   1               		.file	"code1.c"
   2               	__SREG__ = 0x3f
   3               	__SP_H__ = 0x3e
   4               	__SP_L__ = 0x3d
   5               	__CCP__ = 0x34
   6               	__tmp_reg__ = 0
   7               	__zero_reg__ = 1
  15               	.Ltext0:
  16               	.global	uart1_init
  18               	uart1_init:
  19               	.LFB7:
  20               	.LM1:
  21               	/* prologue: function */
  22               	/* frame size = 0 */
  23               	/* stack size = 0 */
  24               	.L__stack_usage = 0
  25               	.LM2:
  26 0000 1092 9800 		sts 152,__zero_reg__
  27               	.LM3:
  28 0004 87E6      		ldi r24,lo8(103)
  29 0006 8093 9900 		sts 153,r24
  30               	.LM4:
  31 000a EDE9      		ldi r30,lo8(157)
  32 000c F0E0      		ldi r31,hi8(157)
  33 000e 8081      		ld r24,Z
  34 0010 8660      		ori r24,lo8(6)
  35 0012 8083      		st Z,r24
  36               	.LM5:
  37 0014 EAE9      		ldi r30,lo8(154)
  38 0016 F0E0      		ldi r31,hi8(154)
  39 0018 8081      		ld r24,Z
  40 001a 8861      		ori r24,lo8(24)
  41 001c 8083      		st Z,r24
  42               	/* epilogue start */
  43               	.LM6:
  44 001e 0895      		ret
  45               	.LFE7:
  47               	.global	uart1_tx_char
  49               	uart1_tx_char:
  50               	.LFB8:
  51               	.LM7:
  52               	/* prologue: function */
  53               	/* frame size = 0 */
  54               	/* stack size = 0 */
  55               	.L__stack_usage = 0
  56               	.LVL0:
  57               	.L3:
  58               	.LM8:
  59 0020 9091 9B00 		lds r25,155
  60 0024 95FF      		sbrs r25,5
  61 0026 00C0      		rjmp .L3
  62               	.LM9:
  63 0028 8093 9C00 		sts 156,r24
  64               	/* epilogue start */
  65               	.LM10:
  66 002c 0895      		ret
  67               	.LFE8:
  69               	.global	uart1_tx_str
  71               	uart1_tx_str:
  72               	.LFB9:
  73               	.LM11:
  74               	.LVL1:
  75 002e EF92      		push r14
  76 0030 FF92      		push r15
  77 0032 CF93      		push r28
  78 0034 DF93      		push r29
  79               	/* prologue: function */
  80               	/* frame size = 0 */
  81               	/* stack size = 4 */
  82               	.L__stack_usage = 4
  83               	.LM12:
  84 0036 E82E      		mov r14,r24
  85 0038 E701      		movw r28,r14
  86 003a 7E01      		movw r14,r28
  87 003c F92E      		mov r15,r25
  88 003e E701      		movw r28,r14
  89               	.LM13:
  90 0040 00C0      		rjmp .L6
  91               	.LVL2:
  92               	.L7:
  93               	.LM14:
  94 0042 0E94 0000 		call uart1_tx_char
  95               	.L6:
  96               	.LM15:
  97 0046 8991      		ld r24,Y+
  98 0048 8823      		tst r24
  99 004a 01F4      		brne .L7
 100               	/* epilogue start */
 101               	.LM16:
 102 004c DF91      		pop r29
 103 004e CF91      		pop r28
 104 0050 FF90      		pop r15
 105 0052 EF90      		pop r14
 106 0054 0895      		ret
 107               	.LFE9:
 109               	.global	uart1_tx_num
 111               	uart1_tx_num:
 112               	.LFB10:
 113               	.LM17:
 114               	.LVL3:
 115 0056 EF92      		push r14
 116 0058 FF92      		push r15
 117 005a 0F93      		push r16
 118 005c 1F93      		push r17
 119 005e DF93      		push r29
 120 0060 CF93      		push r28
 121 0062 00D0      		rcall .
 122 0064 00D0      		rcall .
 123 0066 0F92      		push __tmp_reg__
 124 0068 CDB7      		in r28,__SP_L__
 125 006a DEB7      		in r29,__SP_H__
 126               	/* prologue: function */
 127               	/* frame size = 5 */
 128               	/* stack size = 11 */
 129               	.L__stack_usage = 11
 130               	.LVL4:
 131               	.LM18:
 132 006c FE01      		movw r30,r28
 133 006e 3296      		adiw r30,2
 134               	.LM19:
 135 0070 8E01      		movw r16,r28
 136 0072 0A5F      		subi r16,lo8(-(6))
 137 0074 1F4F      		sbci r17,hi8(-(6))
 138               	.LM20:
 139 0076 2AE0      		ldi r18,lo8(10)
 140 0078 30E0      		ldi r19,hi8(10)
 141               	.LVL5:
 142               	.L9:
 143               	.LM21:
 144 007a B901      		movw r22,r18
 145 007c 0E94 0000 		call __udivmodhi4
 146 0080 8193      		st Z+,r24
 147               	.LM22:
 148 0082 CB01      		movw r24,r22
 149               	.LVL6:
 150               	.LM23:
 151 0084 E017      		cp r30,r16
 152 0086 F107      		cpc r31,r17
 153 0088 01F4      		brne .L9
 154               	.LVL7:
 155               	.LM24:
 156 008a 8E01      		movw r16,r28
 157 008c 0A5F      		subi r16,lo8(-(6))
 158 008e 1F4F      		sbci r17,hi8(-(6))
 159               	.LM25:
 160 0090 7E01      		movw r14,r28
 161 0092 0894      		sec
 162 0094 E11C      		adc r14,__zero_reg__
 163 0096 F11C      		adc r15,__zero_reg__
 164 0098 0894      		sec
 165 009a E11C      		adc r14,__zero_reg__
 166 009c F11C      		adc r15,__zero_reg__
 167               	.LVL8:
 168               	.L10:
 169               	.LM26:
 170 009e F801      		movw r30,r16
 171 00a0 8291      		ld r24,-Z
 172 00a2 8F01      		movw r16,r30
 173 00a4 805D      		subi r24,lo8(-(48))
 174 00a6 0E94 0000 		call uart1_tx_char
 175               	.LM27:
 176 00aa 0E15      		cp r16,r14
 177 00ac 1F05      		cpc r17,r15
 178 00ae 01F4      		brne .L10
 179               	/* epilogue start */
 180               	.LM28:
 181 00b0 0F90      		pop __tmp_reg__
 182 00b2 0F90      		pop __tmp_reg__
 183 00b4 0F90      		pop __tmp_reg__
 184 00b6 0F90      		pop __tmp_reg__
 185 00b8 0F90      		pop __tmp_reg__
 186 00ba CF91      		pop r28
 187 00bc DF91      		pop r29
 188 00be 1F91      		pop r17
 189 00c0 0F91      		pop r16
 190 00c2 FF90      		pop r15
 191 00c4 EF90      		pop r14
 192 00c6 0895      		ret
 193               	.LFE10:
 195               	.global	uart1_rx_char
 197               	uart1_rx_char:
 198               	.LFB11:
 199               	.LM29:
 200               	/* prologue: function */
 201               	/* frame size = 0 */
 202               	/* stack size = 0 */
 203               	.L__stack_usage = 0
 204               	.L14:
 205               	.LM30:
 206 00c8 8091 9B00 		lds r24,155
 207 00cc 87FF      		sbrs r24,7
 208 00ce 00C0      		rjmp .L14
 209               	.LM31:
 210 00d0 8091 9C00 		lds r24,156
 211               	/* epilogue start */
 212               	.LM32:
 213 00d4 0895      		ret
 214               	.LFE11:
 216               	.global	uart1_rx_str
 218               	uart1_rx_str:
 219               	.LFB12:
 220               	.LM33:
 221               	.LVL9:
 222 00d6 EF92      		push r14
 223 00d8 FF92      		push r15
 224 00da 0F93      		push r16
 225 00dc 1F93      		push r17
 226 00de DF93      		push r29
 227 00e0 CF93      		push r28
 228 00e2 0F92      		push __tmp_reg__
 229 00e4 CDB7      		in r28,__SP_L__
 230 00e6 DEB7      		in r29,__SP_H__
 231               	/* prologue: function */
 232               	/* frame size = 1 */
 233               	/* stack size = 7 */
 234               	.L__stack_usage = 7
 235               	.LVL10:
 236               	.LM34:
 237 00e8 482F      		mov r20,r24
 238 00ea 592F      		mov r21,r25
 239 00ec 7A01      		movw r14,r20
 240 00ee 90E0      		ldi r25,lo8(0)
 241               	.LVL11:
 242               	.L19:
 243 00f0 8701      		movw r16,r14
 244               	.LM35:
 245 00f2 9983      		std Y+1,r25
 246 00f4 0E94 0000 		call uart1_rx_char
 247 00f8 F701      		movw r30,r14
 248 00fa 8193      		st Z+,r24
 249 00fc 7F01      		movw r14,r30
 250               	.LM36:
 251 00fe 9981      		ldd r25,Y+1
 252 0100 8D30      		cpi r24,lo8(13)
 253 0102 01F4      		brne .L17
 254               	.LM37:
 255 0104 F801      		movw r30,r16
 256 0106 1082      		st Z,__zero_reg__
 257               	.LM38:
 258 0108 00C0      		rjmp .L16
 259               	.L17:
 260               	.LM39:
 261 010a 9F5F      		subi r25,lo8(-(1))
 262               	.LVL12:
 263 010c 9A30      		cpi r25,lo8(10)
 264 010e 01F4      		brne .L19
 265               	.LVL13:
 266               	.L16:
 267               	/* epilogue start */
 268               	.LM40:
 269 0110 0F90      		pop __tmp_reg__
 270 0112 CF91      		pop r28
 271 0114 DF91      		pop r29
 272 0116 1F91      		pop r17
 273 0118 0F91      		pop r16
 274 011a FF90      		pop r15
 275 011c EF90      		pop r14
 276 011e 0895      		ret
 277               	.LFE12:
 279               	.global	uart1_rx_num
 281               	uart1_rx_num:
 282               	.LFB13:
 283               	.LM41:
 284 0120 EF92      		push r14
 285 0122 FF92      		push r15
 286 0124 0F93      		push r16
 287 0126 1F93      		push r17
 288 0128 DF93      		push r29
 289 012a CF93      		push r28
 290 012c CDB7      		in r28,__SP_L__
 291 012e DEB7      		in r29,__SP_H__
 292 0130 6497      		sbiw r28,20
 293 0132 0FB6      		in __tmp_reg__,__SREG__
 294 0134 F894      		cli
 295 0136 DEBF      		out __SP_H__,r29
 296 0138 0FBE      		out __SREG__,__tmp_reg__
 297 013a CDBF      		out __SP_L__,r28
 298               	/* prologue: function */
 299               	/* frame size = 20 */
 300               	/* stack size = 26 */
 301               	.L__stack_usage = 26
 302               	.LVL14:
 303               	.LM42:
 304 013c 7E01      		movw r14,r28
 305 013e 0894      		sec
 306 0140 E11C      		adc r14,__zero_reg__
 307 0142 F11C      		adc r15,__zero_reg__
 308               	.LM43:
 309 0144 00E0      		ldi r16,lo8(0)
 310 0146 10E0      		ldi r17,hi8(0)
 311               	.LVL15:
 312               	.L23:
 313               	.LM44:
 314 0148 0E94 0000 		call uart1_rx_char
 315 014c 90E0      		ldi r25,lo8(0)
 316 014e C097      		sbiw r24,48
 317 0150 F701      		movw r30,r14
 318 0152 8193      		st Z+,r24
 319 0154 9193      		st Z+,r25
 320 0156 7F01      		movw r14,r30
 321               	.LM45:
 322 0158 8D30      		cpi r24,13
 323 015a 9105      		cpc r25,__zero_reg__
 324 015c 01F0      		breq .L22
 325               	.LM46:
 326 015e 0F5F      		subi r16,lo8(-(1))
 327 0160 1F4F      		sbci r17,hi8(-(1))
 328               	.LVL16:
 329 0162 0A30      		cpi r16,10
 330 0164 1105      		cpc r17,__zero_reg__
 331 0166 01F4      		brne .L23
 332               	.LVL17:
 333               	.L22:
 334               	.LM47:
 335 0168 0150      		subi r16,lo8(-(-1))
 336 016a 1040      		sbci r17,hi8(-(-1))
 337               	.LVL18:
 338               	.LM48:
 339 016c C801      		movw r24,r16
 340 016e 880F      		lsl r24
 341 0170 991F      		rol r25
 342 0172 FE01      		movw r30,r28
 343 0174 3196      		adiw r30,1
 344 0176 E80F      		add r30,r24
 345 0178 F91F      		adc r31,r25
 346 017a 2081      		ld r18,Z
 347 017c 3181      		ldd r19,Z+1
 348               	.LVL19:
 349               	.LM49:
 350 017e 0150      		subi r16,lo8(-(-1))
 351 0180 1040      		sbci r17,hi8(-(-1))
 352               	.LVL20:
 353               	.LM50:
 354 0182 81E0      		ldi r24,lo8(1)
 355 0184 90E0      		ldi r25,hi8(1)
 356               	.LM51:
 357 0186 00C0      		rjmp .L24
 358               	.LVL21:
 359               	.L25:
 360               	.LM52:
 361 0188 AC01      		movw r20,r24
 362 018a 440F      		lsl r20
 363 018c 551F      		rol r21
 364 018e 63E0      		ldi r22,3
 365 0190 880F      	1:	lsl r24
 366 0192 991F      		rol r25
 367 0194 6A95      		dec r22
 368 0196 01F4      		brne 1b
 369               	.LVL22:
 370 0198 840F      		add r24,r20
 371 019a 951F      		adc r25,r21
 372               	.LVL23:
 373               	.LM53:
 374 019c 7291      		ld r23,-Z
 375 019e 6291      		ld r22,-Z
 376 01a0 869F      		mul r24,r22
 377 01a2 A001      		movw r20,r0
 378 01a4 879F      		mul r24,r23
 379 01a6 500D      		add r21,r0
 380 01a8 969F      		mul r25,r22
 381 01aa 500D      		add r21,r0
 382 01ac 1124      		clr r1
 383 01ae 240F      		add r18,r20
 384 01b0 351F      		adc r19,r21
 385               	.LVL24:
 386               	.LM54:
 387 01b2 0150      		subi r16,lo8(-(-1))
 388 01b4 1040      		sbci r17,hi8(-(-1))
 389               	.LVL25:
 390               	.L24:
 391               	.LM55:
 392 01b6 1016      		cp __zero_reg__,r16
 393 01b8 1106      		cpc __zero_reg__,r17
 394 01ba 04F0      		brlt .L25
 395               	.LM56:
 396 01bc C901      		movw r24,r18
 397               	.LVL26:
 398               	/* epilogue start */
 399 01be 6496      		adiw r28,20
 400               	.LVL27:
 401 01c0 0FB6      		in __tmp_reg__,__SREG__
 402 01c2 F894      		cli
 403 01c4 DEBF      		out __SP_H__,r29
 404 01c6 0FBE      		out __SREG__,__tmp_reg__
 405 01c8 CDBF      		out __SP_L__,r28
 406               	.LVL28:
 407 01ca CF91      		pop r28
 408 01cc DF91      		pop r29
 409               	.LVL29:
 410 01ce 1F91      		pop r17
 411 01d0 0F91      		pop r16
 412               	.LVL30:
 413 01d2 FF90      		pop r15
 414 01d4 EF90      		pop r14
 415 01d6 0895      		ret
 416               	.LFE13:
 418               	.global	dely_ns
 420               	dely_ns:
 421               	.LFB16:
 422               	.LM57:
 423               	.LVL31:
 424               	/* prologue: function */
 425               	/* frame size = 0 */
 426               	/* stack size = 0 */
 427               	.L__stack_usage = 0
 428               	.LM58:
 429 01d8 2091 0000 		lds r18,k
 430 01dc 90E0      		ldi r25,lo8(0)
 431 01de 00C0      		rjmp .L28
 432               	.L29:
 433 01e0 9F5F      		subi r25,lo8(-(1))
 434 01e2 2AE0      		ldi r18,lo8(10)
 435               	.L28:
 436               	.LM59:
 437 01e4 9817      		cp r25,r24
 438 01e6 00F0      		brlo .L29
 439               	.LM60:
 440 01e8 2093 0000 		sts k,r18
 441 01ec 9093 0000 		sts j,r25
 442               	/* epilogue start */
 443               	.LM61:
 444 01f0 0895      		ret
 445               	.LFE16:
 447               	.global	toggleE
 449               	toggleE:
 450               	.LFB15:
 451               	.LM62:
 452               	/* prologue: function */
 453               	/* frame size = 0 */
 454               	/* stack size = 0 */
 455               	.L__stack_usage = 0
 456               	.LM63:
 457 01f2 DA9A      		sbi 59-32,2
 458               	.LM64:
 459 01f4 8AEF      		ldi r24,lo8(-6)
 460 01f6 0E94 0000 		call dely_ns
 461               	.LM65:
 462 01fa DA98      		cbi 59-32,2
 463               	/* epilogue start */
 464               	.LM66:
 465 01fc 0895      		ret
 466               	.LFE15:
 468               	.global	lcd_cmd
 470               	lcd_cmd:
 471               	.LFB17:
 472               	.LM67:
 473               	.LVL32:
 474 01fe DF93      		push r29
 475 0200 CF93      		push r28
 476 0202 0F92      		push __tmp_reg__
 477 0204 CDB7      		in r28,__SP_L__
 478 0206 DEB7      		in r29,__SP_H__
 479               	/* prologue: function */
 480               	/* frame size = 1 */
 481               	/* stack size = 3 */
 482               	.L__stack_usage = 3
 483               	.LM68:
 484 0208 9BB3      		in r25,59-32
 485 020a 9470      		andi r25,lo8(4)
 486 020c 9BBB      		out 59-32,r25
 487               	.LM69:
 488 020e 982F      		mov r25,r24
 489 0210 907F      		andi r25,lo8(-16)
 490 0212 9BBB      		out 59-32,r25
 491               	.LM70:
 492 0214 8983      		std Y+1,r24
 493 0216 0E94 0000 		call toggleE
 494               	.LVL33:
 495               	.LM71:
 496 021a 8981      		ldd r24,Y+1
 497 021c 8295      		swap r24
 498 021e 807F      		andi r24,lo8(-16)
 499 0220 8BBB      		out 59-32,r24
 500               	.LM72:
 501 0222 0E94 0000 		call toggleE
 502               	/* epilogue start */
 503               	.LM73:
 504 0226 0F90      		pop __tmp_reg__
 505 0228 CF91      		pop r28
 506 022a DF91      		pop r29
 507 022c 0895      		ret
 508               	.LFE17:
 510               	.global	lcd_putchar
 512               	lcd_putchar:
 513               	.LFB18:
 514               	.LM74:
 515               	.LVL34:
 516 022e DF93      		push r29
 517 0230 CF93      		push r28
 518 0232 0F92      		push __tmp_reg__
 519 0234 CDB7      		in r28,__SP_L__
 520 0236 DEB7      		in r29,__SP_H__
 521               	/* prologue: function */
 522               	/* frame size = 1 */
 523               	/* stack size = 3 */
 524               	.L__stack_usage = 3
 525               	.LM75:
 526 0238 91E0      		ldi r25,lo8(1)
 527 023a 9BBB      		out 59-32,r25
 528               	.LM76:
 529 023c 9BB3      		in r25,59-32
 530 023e 9270      		andi r25,lo8(2)
 531 0240 9BBB      		out 59-32,r25
 532               	.LM77:
 533 0242 982F      		mov r25,r24
 534 0244 907F      		andi r25,lo8(-16)
 535 0246 9160      		ori r25,lo8(1)
 536 0248 9BBB      		out 59-32,r25
 537               	.LM78:
 538 024a 8983      		std Y+1,r24
 539 024c 0E94 0000 		call toggleE
 540               	.LVL35:
 541               	.LM79:
 542 0250 8981      		ldd r24,Y+1
 543 0252 8295      		swap r24
 544 0254 807F      		andi r24,lo8(-16)
 545 0256 8160      		ori r24,lo8(1)
 546 0258 8BBB      		out 59-32,r24
 547               	.LM80:
 548 025a 0E94 0000 		call toggleE
 549               	/* epilogue start */
 550               	.LM81:
 551 025e 0F90      		pop __tmp_reg__
 552 0260 CF91      		pop r28
 553 0262 DF91      		pop r29
 554 0264 0895      		ret
 555               	.LFE18:
 557               	.global	lcd_string
 559               	lcd_string:
 560               	.LFB20:
 561               	.LM82:
 562               	.LVL36:
 563 0266 FF92      		push r15
 564 0268 0F93      		push r16
 565 026a 1F93      		push r17
 566 026c CF93      		push r28
 567 026e DF93      		push r29
 568               	/* prologue: function */
 569               	/* frame size = 0 */
 570               	/* stack size = 5 */
 571               	.L__stack_usage = 5
 572 0270 8C01      		movw r16,r24
 573               	.LVL37:
 574               	.LM83:
 575 0272 81E0      		ldi r24,lo8(1)
 576               	.LVL38:
 577 0274 8BBB      		out 59-32,r24
 578               	.LM84:
 579 0276 8BB3      		in r24,59-32
 580 0278 8270      		andi r24,lo8(2)
 581 027a 8BBB      		out 59-32,r24
 582               	.LM85:
 583 027c FF24      		clr r15
 584               	.LM86:
 585 027e 00C0      		rjmp .L34
 586               	.LVL39:
 587               	.L36:
 588               	.LM87:
 589 0280 8F2D      		mov r24,r15
 590 0282 8031      		cpi r24,lo8(16)
 591 0284 01F4      		brne .L35
 592               	.LM88:
 593 0286 80EC      		ldi r24,lo8(-64)
 594 0288 0E94 0000 		call lcd_cmd
 595               	.L35:
 596               	.LM89:
 597 028c 8881      		ld r24,Y
 598 028e 807F      		andi r24,lo8(-16)
 599 0290 8160      		ori r24,lo8(1)
 600 0292 8BBB      		out 59-32,r24
 601               	.LM90:
 602 0294 0E94 0000 		call toggleE
 603               	.LM91:
 604 0298 8881      		ld r24,Y
 605 029a 8295      		swap r24
 606 029c 807F      		andi r24,lo8(-16)
 607 029e 8160      		ori r24,lo8(1)
 608 02a0 8BBB      		out 59-32,r24
 609               	.LM92:
 610 02a2 0E94 0000 		call toggleE
 611               	.LM93:
 612 02a6 F394      		inc r15
 613               	.LVL40:
 614               	.L34:
 615               	.LM94:
 616 02a8 E801      		movw r28,r16
 617 02aa CF0D      		add r28,r15
 618 02ac D11D      		adc r29,__zero_reg__
 619 02ae 8881      		ld r24,Y
 620 02b0 8823      		tst r24
 621 02b2 01F4      		brne .L36
 622               	/* epilogue start */
 623               	.LM95:
 624 02b4 DF91      		pop r29
 625 02b6 CF91      		pop r28
 626 02b8 1F91      		pop r17
 627 02ba 0F91      		pop r16
 628               	.LVL41:
 629 02bc FF90      		pop r15
 630               	.LVL42:
 631 02be 0895      		ret
 632               	.LFE20:
 634               	.global	lcd_gotoxy1
 636               	lcd_gotoxy1:
 637               	.LFB22:
 638               	.LM96:
 639               	.LVL43:
 640               	/* prologue: function */
 641               	/* frame size = 0 */
 642               	/* stack size = 0 */
 643               	.L__stack_usage = 0
 644               	.LM97:
 645 02c0 8058      		subi r24,lo8(-(-128))
 646               	.LVL44:
 647 02c2 0E94 0000 		call lcd_cmd
 648               	.LVL45:
 649               	/* epilogue start */
 650               	.LM98:
 651 02c6 0895      		ret
 652               	.LFE22:
 654               	.global	lcd_gotoxy2
 656               	lcd_gotoxy2:
 657               	.LFB23:
 658               	.LM99:
 659               	.LVL46:
 660               	/* prologue: function */
 661               	/* frame size = 0 */
 662               	/* stack size = 0 */
 663               	.L__stack_usage = 0
 664               	.LM100:
 665 02c8 8054      		subi r24,lo8(-(-64))
 666               	.LVL47:
 667 02ca 0E94 0000 		call lcd_cmd
 668               	.LVL48:
 669               	/* epilogue start */
 670               	.LM101:
 671 02ce 0895      		ret
 672               	.LFE23:
 674               	.global	lcd_char
 676               	lcd_char:
 677               	.LFB19:
 678               	.LM102:
 679               	.LVL49:
 680               	/* prologue: function */
 681               	/* frame size = 0 */
 682               	/* stack size = 0 */
 683               	.L__stack_usage = 0
 684               	.LM103:
 685 02d0 8930      		cpi r24,lo8(9)
 686 02d2 01F4      		brne .L40
 687               	.LVL50:
 688               	.LM104:
 689 02d4 0E94 0000 		call lcd_putchar
 690               	.LVL51:
 691 02d8 89E0      		ldi r24,lo8(9)
 692 02da 00C0      		rjmp .L42
 693               	.LVL52:
 694               	.L40:
 695               	.LM105:
 696 02dc 8A30      		cpi r24,lo8(10)
 697 02de 01F4      		brne .L42
 698               	.LM106:
 699 02e0 80E0      		ldi r24,lo8(0)
 700               	.LVL53:
 701 02e2 0E94 0000 		call lcd_gotoxy2
 702 02e6 0895      		ret
 703               	.L42:
 704               	.LM107:
 705 02e8 0E94 0000 		call lcd_putchar
 706 02ec 0895      		ret
 707               	.LFE19:
 709               	.global	lcd_showvalue
 711               	lcd_showvalue:
 712               	.LFB21:
 713               	.LM108:
 714               	.LVL54:
 715 02ee FF92      		push r15
 716 02f0 0F93      		push r16
 717 02f2 1F93      		push r17
 718               	/* prologue: function */
 719               	/* frame size = 0 */
 720               	/* stack size = 3 */
 721               	.L__stack_usage = 3
 722 02f4 082F      		mov r16,r24
 723               	.LVL55:
 724               	.LM109:
 725 02f6 64E6      		ldi r22,lo8(100)
 726 02f8 0E94 0000 		call __udivmodqi4
 727               	.LVL56:
 728 02fc 182F      		mov r17,r24
 729               	.LVL57:
 730               	.LM110:
 731 02fe 682F      		mov r22,r24
 732 0300 70E0      		ldi r23,lo8(0)
 733 0302 4CE9      		ldi r20,lo8(-100)
 734 0304 5FEF      		ldi r21,hi8(-100)
 735 0306 649F      		mul r22,r20
 736 0308 9001      		movw r18,r0
 737 030a 659F      		mul r22,r21
 738 030c 300D      		add r19,r0
 739 030e 749F      		mul r23,r20
 740 0310 300D      		add r19,r0
 741 0312 1124      		clr r1
 742 0314 200F      		add r18,r16
 743 0316 311D      		adc r19,__zero_reg__
 744 0318 C901      		movw r24,r18
 745               	.LVL58:
 746 031a 6AE0      		ldi r22,lo8(10)
 747 031c 70E0      		ldi r23,hi8(10)
 748 031e 0E94 0000 		call __divmodhi4
 749 0322 F62E      		mov r15,r22
 750               	.LVL59:
 751               	.LM111:
 752 0324 812F      		mov r24,r17
 753 0326 805D      		subi r24,lo8(-(48))
 754 0328 0E94 0000 		call lcd_char
 755               	.LVL60:
 756               	.LM112:
 757 032c 8F2D      		mov r24,r15
 758 032e 805D      		subi r24,lo8(-(48))
 759 0330 0E94 0000 		call lcd_char
 760               	.LM113:
 761 0334 005D      		subi r16,lo8(-(48))
 762               	.LVL61:
 763 0336 8CE9      		ldi r24,lo8(-100)
 764 0338 189F      		mul r17,r24
 765 033a 102D      		mov r17,r0
 766 033c 1124      		clr r1
 767               	.LVL62:
 768 033e 010F      		add r16,r17
 769 0340 86EF      		ldi r24,lo8(-10)
 770 0342 F89E      		mul r15,r24
 771 0344 802D      		mov r24,r0
 772 0346 1124      		clr r1
 773               	.LM114:
 774 0348 800F      		add r24,r16
 775 034a 0E94 0000 		call lcd_char
 776               	/* epilogue start */
 777               	.LM115:
 778 034e 1F91      		pop r17
 779 0350 0F91      		pop r16
 780 0352 FF90      		pop r15
 781               	.LVL63:
 782 0354 0895      		ret
 783               	.LFE21:
 785               	.global	lcd_exit
 787               	lcd_exit:
 788               	.LFB24:
 789               	.LM116:
 790               	/* prologue: function */
 791               	/* frame size = 0 */
 792               	/* stack size = 0 */
 793               	.L__stack_usage = 0
 794               	.LM117:
 795 0356 8091 0000 		lds r24,save
 796 035a 8BBB      		out 59-32,r24
 797               	/* epilogue start */
 798               	.LM118:
 799 035c 0895      		ret
 800               	.LFE24:
 802               	.global	WaitMs
 804               	WaitMs:
 805               	.LFB25:
 806               	.LM119:
 807               	.LVL64:
 808               	/* prologue: function */
 809               	/* frame size = 0 */
 810               	/* stack size = 0 */
 811               	.L__stack_usage = 0
 812               	.LM120:
 813 035e 00C0      		rjmp .L46
 814               	.LVL65:
 815               	.L48:
 816               	.LM121:
 817 0360 2CEC      		ldi r18,lo8(3276)
 818 0362 3CE0      		ldi r19,hi8(3276)
 819               	.L47:
 820               	.LM122:
 821               	/* #APP */
 822               	 ;  202 "LCD_mega128.h" 1
 823 0364 0000      		nop
 824               	 ;  0 "" 2
 825               	/* #NOAPP */
 826 0366 2150      		subi r18,lo8(-(-1))
 827 0368 3040      		sbci r19,hi8(-(-1))
 828               	.LM123:
 829 036a 01F4      		brne .L47
 830               	.LM124:
 831 036c 0197      		sbiw r24,1
 832               	.LVL66:
 833               	.L46:
 834               	.LM125:
 835 036e 0097      		sbiw r24,0
 836 0370 01F4      		brne .L48
 837               	/* epilogue start */
 838               	.LM126:
 839 0372 0895      		ret
 840               	.LFE25:
 842               	.global	lcd_init
 844               	lcd_init:
 845               	.LFB14:
 846               	.LM127:
 847               	/* prologue: function */
 848               	/* frame size = 0 */
 849               	/* stack size = 0 */
 850               	.L__stack_usage = 0
 851               	.LM128:
 852 0374 8BB3      		in r24,59-32
 853 0376 8093 0000 		sts save,r24
 854               	.LM129:
 855 037a 8FEF      		ldi r24,lo8(-1)
 856 037c 8ABB      		out 58-32,r24
 857               	.LM130:
 858 037e 8FE0      		ldi r24,lo8(15)
 859 0380 90E0      		ldi r25,hi8(15)
 860 0382 0E94 0000 		call WaitMs
 861               	.LM131:
 862 0386 8BB3      		in r24,59-32
 863 0388 8470      		andi r24,lo8(4)
 864 038a 8BBB      		out 59-32,r24
 865               	.LM132:
 866 038c 80E2      		ldi r24,lo8(32)
 867 038e 8BBB      		out 59-32,r24
 868               	.LM133:
 869 0390 81E0      		ldi r24,lo8(1)
 870 0392 0E94 0000 		call lcd_cmd
 871               	.LM134:
 872 0396 8FE0      		ldi r24,lo8(15)
 873 0398 0E94 0000 		call lcd_cmd
 874               	.LM135:
 875 039c 82E0      		ldi r24,lo8(2)
 876 039e 0E94 0000 		call lcd_cmd
 877               	.LM136:
 878 03a2 80E8      		ldi r24,lo8(-128)
 879 03a4 0E94 0000 		call lcd_cmd
 880               	.LM137:
 881 03a8 8FE0      		ldi r24,lo8(15)
 882 03aa 90E0      		ldi r25,hi8(15)
 883 03ac 0E94 0000 		call WaitMs
 884               	/* epilogue start */
 885               	.LM138:
 886 03b0 0895      		ret
 887               	.LFE14:
 889               	.global	eeprom_write
 891               	eeprom_write:
 892               	.LFB26:
 893               	.LM139:
 894               	/* prologue: function */
 895               	/* frame size = 0 */
 896               	/* stack size = 0 */
 897               	.L__stack_usage = 0
 898               	.LVL67:
 899               	.L52:
 900               	.LM140:
 901 03b2 E199      		sbic 60-32,1
 902 03b4 00C0      		rjmp .L52
 903               	.LM141:
 904 03b6 9FBB      		out 62+1-32,r25
 905 03b8 8EBB      		out 62-32,r24
 906               	.LM142:
 907 03ba 6DBB      		out 61-32,r22
 908               	.LM143:
 909 03bc E29A      		sbi 60-32,2
 910               	.LM144:
 911 03be E19A      		sbi 60-32,1
 912               	/* epilogue start */
 913               	.LM145:
 914 03c0 0895      		ret
 915               	.LFE26:
 917               	.global	eeprom_read
 919               	eeprom_read:
 920               	.LFB27:
 921               	.LM146:
 922               	/* prologue: function */
 923               	/* frame size = 0 */
 924               	/* stack size = 0 */
 925               	.L__stack_usage = 0
 926               	.LVL68:
 927               	.L55:
 928               	.LM147:
 929 03c2 E199      		sbic 60-32,1
 930 03c4 00C0      		rjmp .L55
 931               	.LM148:
 932 03c6 9FBB      		out 62+1-32,r25
 933 03c8 8EBB      		out 62-32,r24
 934               	.LM149:
 935 03ca E09A      		sbi 60-32,0
 936               	.LM150:
 937 03cc 8DB3      		in r24,61-32
 938               	.LVL69:
 939               	/* epilogue start */
 940               	.LM151:
 941 03ce 0895      		ret
 942               	.LFE27:
 944               	.global	eeprom_write_string
 946               	eeprom_write_string:
 947               	.LFB28:
 948               	.LM152:
 949               	.LVL70:
 950 03d0 0F93      		push r16
 951 03d2 1F93      		push r17
 952 03d4 DF93      		push r29
 953 03d6 CF93      		push r28
 954 03d8 00D0      		rcall .
 955 03da CDB7      		in r28,__SP_L__
 956 03dc DEB7      		in r29,__SP_H__
 957               	/* prologue: function */
 958               	/* frame size = 2 */
 959               	/* stack size = 6 */
 960               	.L__stack_usage = 6
 961 03de 8C01      		movw r16,r24
 962               	.LM153:
 963 03e0 80E0      		ldi r24,lo8(0)
 964               	.LVL71:
 965 03e2 90E0      		ldi r25,lo8(0)
 966 03e4 6983      		std Y+1,r22
 967 03e6 7A83      		std Y+2,r23
 968 03e8 0E94 0000 		call uart1_tx_num
 969               	.LVL72:
 970               	.LM154:
 971 03ec 8AE0      		ldi r24,lo8(10)
 972 03ee 0E94 0000 		call uart1_tx_char
 973 03f2 6981      		ldd r22,Y+1
 974 03f4 E62F      		mov r30,r22
 975 03f6 7A81      		ldd r23,Y+2
 976 03f8 F72F      		mov r31,r23
 977               	.LM155:
 978 03fa 80E0      		ldi r24,lo8(0)
 979 03fc 90E0      		ldi r25,hi8(0)
 980 03fe AF01      		movw r20,r30
 981 0400 480F      		add r20,r24
 982 0402 591F      		adc r21,r25
 983               	.LM156:
 984 0404 080F      		add r16,r24
 985 0406 191F      		adc r17,r25
 986               	.LM157:
 987 0408 00C0      		rjmp .L58
 988               	.LVL73:
 989               	.L60:
 990               	.LM158:
 991 040a E199      		sbic 60-32,1
 992 040c 00C0      		rjmp .L60
 993               	.LM159:
 994 040e D801      		movw r26,r16
 995 0410 8C91      		ld r24,X
 996 0412 90E0      		ldi r25,lo8(0)
 997 0414 9FBB      		out 62+1-32,r25
 998 0416 8EBB      		out 62-32,r24
 999               	.LM160:
 1000 0418 DA01      		movw r26,r20
 1001 041a 8D91      		ld r24,X+
 1002 041c AD01      		movw r20,r26
 1003 041e 8DBB      		out 61-32,r24
 1004               	.LM161:
 1005 0420 E29A      		sbi 60-32,2
 1006               	.LM162:
 1007 0422 E19A      		sbi 60-32,1
 1008               	.LVL74:
 1009               	.L58:
 1010               	.LM163:
 1011 0424 9F01      		movw r18,r30
 1012               	.LVL75:
 1013               	.LM164:
 1014 0426 8191      		ld r24,Z+
 1015               	.LVL76:
 1016 0428 8823      		tst r24
 1017 042a 01F4      		brne .L60
 1018               	.LM165:
 1019 042c F901      		movw r30,r18
 1020 042e 1082      		st Z,__zero_reg__
 1021               	/* epilogue start */
 1022               	.LM166:
 1023 0430 0F90      		pop __tmp_reg__
 1024 0432 0F90      		pop __tmp_reg__
 1025 0434 CF91      		pop r28
 1026 0436 DF91      		pop r29
 1027 0438 1F91      		pop r17
 1028 043a 0F91      		pop r16
 1029               	.LVL77:
 1030 043c 0895      		ret
 1031               	.LFE28:
 1033               	.global	eeprom_read_string
 1035               	eeprom_read_string:
 1036               	.LFB29:
 1037               	.LM167:
 1038               	.LVL78:
 1039               	/* prologue: function */
 1040               	/* frame size = 0 */
 1041               	/* stack size = 0 */
 1042               	.L__stack_usage = 0
 1043               	.LM168:
 1044 043e 282F      		mov r18,r24
 1045 0440 392F      		mov r19,r25
 1046 0442 D901      		movw r26,r18
 1047 0444 862F      		mov r24,r22
 1048               	.LVL79:
 1049 0446 972F      		mov r25,r23
 1050               	.LVL80:
 1051 0448 FC01      		movw r30,r24
 1052 044a 20E0      		ldi r18,lo8(0)
 1053               	.LVL81:
 1054               	.L67:
 1055               	.LM169:
 1056 044c E199      		sbic 60-32,1
 1057 044e 00C0      		rjmp .L67
 1058               	.LM170:
 1059 0450 8D91      		ld r24,X+
 1060 0452 90E0      		ldi r25,lo8(0)
 1061 0454 9FBB      		out 62+1-32,r25
 1062 0456 8EBB      		out 62-32,r24
 1063               	.LM171:
 1064 0458 E09A      		sbi 60-32,0
 1065               	.LM172:
 1066 045a 8DB3      		in r24,61-32
 1067 045c 8193      		st Z+,r24
 1068               	.LM173:
 1069 045e 2F5F      		subi r18,lo8(-(1))
 1070               	.LVL82:
 1071 0460 2730      		cpi r18,lo8(7)
 1072 0462 01F4      		brne .L67
 1073               	/* epilogue start */
 1074               	.LM174:
 1075 0464 0895      		ret
 1076               	.LFE29:
 1078               		.data
 1079               	.LC0:
 1080 0000 4355 5354 		.string	"CUSTOM"
 1080      4F4D 00
 1081               	.LC1:
 1082 0007 424F 4F54 		.string	"BOOTLOADER PROJECT"
 1082      4C4F 4144 
 1082      4552 2050 
 1082      524F 4A45 
 1082      4354 00
 1083               	.LC2:
 1084 001a 426F 6F74 		.string	"Booting ATMEGA64"
 1084      696E 6720 
 1084      4154 4D45 
 1084      4741 3634 
 1084      00
 1085               	.LC3:
 1086 002b 4C43 445B 		.string	"LCD[OK]"
 1086      4F4B 5D00 
 1087               	.LC4:
 1088 0033 3136 2A32 		.string	"16*2,4 bit"
 1088      2C34 2062 
 1088      6974 00
 1089               	.LC5:
 1090 003e 5541 5254 		.string	"UART1[OK]"
 1090      315B 4F4B 
 1090      5D00 
 1091               	.LC6:
 1092 0048 3936 3030 		.string	"9600bps,Tx&Rx"
 1092      6270 732C 
 1092      5478 2652 
 1092      7800 
 1093               	.LC7:
 1094 0056 6C6F 6164 		.string	"loading App..."
 1094      696E 6720 
 1094      4170 702E 
 1094      2E2E 00
 1095               		.text
 1096               	.global	main
 1098               	main:
 1099               	.LFB30:
 1100               	.LM175:
 1101 0466 4F92      		push r4
 1102 0468 5F92      		push r5
 1103 046a 7F92      		push r7
 1104 046c 8F92      		push r8
 1105 046e 9F92      		push r9
 1106 0470 AF92      		push r10
 1107 0472 BF92      		push r11
 1108 0474 CF92      		push r12
 1109 0476 DF92      		push r13
 1110 0478 EF92      		push r14
 1111 047a FF92      		push r15
 1112 047c 0F93      		push r16
 1113 047e 1F93      		push r17
 1114 0480 DF93      		push r29
 1115 0482 CF93      		push r28
 1116 0484 CDB7      		in r28,__SP_L__
 1117 0486 DEB7      		in r29,__SP_H__
 1118 0488 C250      		subi r28,lo8(-(-514))
 1119 048a D240      		sbci r29,hi8(-(-514))
 1120 048c 0FB6      		in __tmp_reg__,__SREG__
 1121 048e F894      		cli
 1122 0490 DEBF      		out __SP_H__,r29
 1123 0492 0FBE      		out __SREG__,__tmp_reg__
 1124 0494 CDBF      		out __SP_L__,r28
 1125               	/* prologue: function */
 1126               	/* frame size = 514 */
 1127               	/* stack size = 529 */
 1128               	.L__stack_usage = 529
 1129               	.LVL83:
 1130               	.LM176:
 1131 0496 84E0      		ldi r24,lo8(4)
 1132 0498 90E0      		ldi r25,hi8(4)
 1133 049a 9A83      		std Y+2,r25
 1134 049c 8983      		std Y+1,r24
 1135               	.LVL84:
 1136               	.LM177:
 1137 049e 0E94 0000 		call lcd_init
 1138               	.LM178:
 1139 04a2 81E0      		ldi r24,lo8(1)
 1140 04a4 0E94 0000 		call lcd_cmd
 1141               	.LM179:
 1142 04a8 80E8      		ldi r24,lo8(-128)
 1143 04aa 0E94 0000 		call lcd_cmd
 1144               	.LM180:
 1145 04ae 80E0      		ldi r24,lo8(.LC0)
 1146 04b0 90E0      		ldi r25,hi8(.LC0)
 1147 04b2 0E94 0000 		call lcd_string
 1148               	.LM181:
 1149 04b6 80EC      		ldi r24,lo8(-64)
 1150 04b8 0E94 0000 		call lcd_cmd
 1151               	.LM182:
 1152 04bc 80E0      		ldi r24,lo8(.LC1)
 1153 04be 90E0      		ldi r25,hi8(.LC1)
 1154 04c0 0E94 0000 		call lcd_string
 1155               	.LVL85:
 1156               	.LBB12:
 1157               	.LBB13:
 1158               	.LM183:
 1159 04c4 6FEF      		 ldi r22,lo8(9599999)
 1160 04c6 7BE7      	    ldi r23,hi8(9599999)
 1161 04c8 82E9      	    ldi r24,hlo8(9599999)
 1162 04ca 6150      	    1:subi r22,1
 1163 04cc 7040      	    sbci r23,0
 1164 04ce 8040      	    sbci r24,0
 1165 04d0 01F4      	    brne 1b
 1166 04d2 00C0      		rjmp .
 1167 04d4 0000      		nop
 1168               	.LBE13:
 1169               	.LBE12:
 1170               	.LM184:
 1171 04d6 81E0      		ldi r24,lo8(1)
 1172 04d8 0E94 0000 		call lcd_cmd
 1173               	.LM185:
 1174 04dc 80E8      		ldi r24,lo8(-128)
 1175 04de 0E94 0000 		call lcd_cmd
 1176               	.LM186:
 1177 04e2 80E0      		ldi r24,lo8(.LC2)
 1178 04e4 90E0      		ldi r25,hi8(.LC2)
 1179 04e6 0E94 0000 		call lcd_string
 1180               	.LVL86:
 1181               	.LBB14:
 1182               	.LBB15:
 1183               	.LM187:
 1184 04ea 8FEF      		 ldi r24,lo8(6399999)
 1185 04ec 97EA      	    ldi r25,hi8(6399999)
 1186 04ee A1E6      	    ldi r26,hlo8(6399999)
 1187 04f0 8150      	    1:subi r24,1
 1188 04f2 9040      	    sbci r25,0
 1189 04f4 A040      	    sbci r26,0
 1190 04f6 01F4      	    brne 1b
 1191 04f8 00C0      		rjmp .
 1192 04fa 0000      		nop
 1193               	.LBE15:
 1194               	.LBE14:
 1195               	.LM188:
 1196 04fc 81E0      		ldi r24,lo8(1)
 1197 04fe 0E94 0000 		call lcd_cmd
 1198               	.LM189:
 1199 0502 80E8      		ldi r24,lo8(-128)
 1200 0504 0E94 0000 		call lcd_cmd
 1201               	.LM190:
 1202 0508 80E0      		ldi r24,lo8(.LC3)
 1203 050a 90E0      		ldi r25,hi8(.LC3)
 1204 050c 0E94 0000 		call lcd_string
 1205               	.LM191:
 1206 0510 80EC      		ldi r24,lo8(-64)
 1207 0512 0E94 0000 		call lcd_cmd
 1208               	.LM192:
 1209 0516 80E0      		ldi r24,lo8(.LC4)
 1210 0518 90E0      		ldi r25,hi8(.LC4)
 1211 051a 0E94 0000 		call lcd_string
 1212               	.LVL87:
 1213               	.LBB16:
 1214               	.LBB17:
 1215               	.LM193:
 1216 051e 6FEF      		 ldi r22,lo8(6399999)
 1217 0520 77EA      	    ldi r23,hi8(6399999)
 1218 0522 81E6      	    ldi r24,hlo8(6399999)
 1219 0524 6150      	    1:subi r22,1
 1220 0526 7040      	    sbci r23,0
 1221 0528 8040      	    sbci r24,0
 1222 052a 01F4      	    brne 1b
 1223 052c 00C0      		rjmp .
 1224 052e 0000      		nop
 1225               	.LBE17:
 1226               	.LBE16:
 1227               	.LM194:
 1228 0530 0E94 0000 		call uart1_init
 1229               	.LM195:
 1230 0534 81E0      		ldi r24,lo8(1)
 1231 0536 0E94 0000 		call lcd_cmd
 1232               	.LM196:
 1233 053a 80E8      		ldi r24,lo8(-128)
 1234 053c 0E94 0000 		call lcd_cmd
 1235               	.LM197:
 1236 0540 80E0      		ldi r24,lo8(.LC5)
 1237 0542 90E0      		ldi r25,hi8(.LC5)
 1238 0544 0E94 0000 		call lcd_string
 1239               	.LM198:
 1240 0548 80EC      		ldi r24,lo8(-64)
 1241 054a 0E94 0000 		call lcd_cmd
 1242               	.LM199:
 1243 054e 80E0      		ldi r24,lo8(.LC6)
 1244 0550 90E0      		ldi r25,hi8(.LC6)
 1245 0552 0E94 0000 		call lcd_string
 1246               	.LVL88:
 1247               	.LBB18:
 1248               	.LBB19:
 1249               	.LM200:
 1250 0556 8FEF      		 ldi r24,lo8(6399999)
 1251 0558 97EA      	    ldi r25,hi8(6399999)
 1252 055a A1E6      	    ldi r26,hlo8(6399999)
 1253 055c 8150      	    1:subi r24,1
 1254 055e 9040      	    sbci r25,0
 1255 0560 A040      	    sbci r26,0
 1256 0562 01F4      	    brne 1b
 1257 0564 00C0      		rjmp .
 1258 0566 0000      		nop
 1259               	.LBE19:
 1260               	.LBE18:
 1261               	.LM201:
 1262 0568 81E0      		ldi r24,lo8(1)
 1263 056a 0E94 0000 		call lcd_cmd
 1264               	.LM202:
 1265 056e 80E8      		ldi r24,lo8(-128)
 1266 0570 0E94 0000 		call lcd_cmd
 1267               	.LM203:
 1268 0574 80E0      		ldi r24,lo8(.LC7)
 1269 0576 90E0      		ldi r25,hi8(.LC7)
 1270 0578 0E94 0000 		call lcd_string
 1271               	.LM204:
 1272 057c 80EC      		ldi r24,lo8(-64)
 1273 057e 0E94 0000 		call lcd_cmd
 1274               	.LVL89:
 1275               	.LM205:
 1276 0582 00E0      		ldi r16,lo8(0)
 1277 0584 10E0      		ldi r17,hi8(0)
 1278               	.LVL90:
 1279               	.L69:
 1280               	.LBB20:
 1281               	.LBB21:
 1282               	.LM206:
 1283 0586 6FEF      		 ldi r22,lo8(1119999)
 1284 0588 76E1      	    ldi r23,hi8(1119999)
 1285 058a 81E1      	    ldi r24,hlo8(1119999)
 1286 058c 6150      	    1:subi r22,1
 1287 058e 7040      	    sbci r23,0
 1288 0590 8040      	    sbci r24,0
 1289 0592 01F4      	    brne 1b
 1290 0594 00C0      		rjmp .
 1291 0596 0000      		nop
 1292               	.LBE21:
 1293               	.LBE20:
 1294               	.LM207:
 1295 0598 8FEF      		ldi r24,lo8(-1)
 1296 059a 0E94 0000 		call lcd_putchar
 1297               	.LM208:
 1298 059e 0F5F      		subi r16,lo8(-(1))
 1299 05a0 1F4F      		sbci r17,hi8(-(1))
 1300               	.LVL91:
 1301 05a2 0031      		cpi r16,16
 1302 05a4 1105      		cpc r17,__zero_reg__
 1303 05a6 01F4      		brne .L69
 1304               	.LM209:
 1305 05a8 81E0      		ldi r24,lo8(1)
 1306 05aa 0E94 0000 		call lcd_cmd
 1307               	.LM210:
 1308 05ae 80E8      		ldi r24,lo8(-128)
 1309 05b0 0E94 0000 		call lcd_cmd
 1310               	.LVL92:
 1311 05b4 53E0      		ldi r21,lo8(3)
 1312 05b6 E52E      		mov r14,r21
 1313 05b8 F12C      		mov r15,__zero_reg__
 1314 05ba EC0E      		add r14,r28
 1315 05bc FD1E      		adc r15,r29
 1316               	.LM211:
 1317 05be 00E0      		ldi r16,lo8(0)
 1318 05c0 10E0      		ldi r17,hi8(0)
 1319               	.LVL93:
 1320               	.L70:
 1321               	.LM212:
 1322 05c2 C801      		movw r24,r16
 1323 05c4 0E94 0000 		call eeprom_read
 1324 05c8 D701      		movw r26,r14
 1325 05ca 8D93      		st X+,r24
 1326 05cc 7D01      		movw r14,r26
 1327               	.LM213:
 1328 05ce 0F5F      		subi r16,lo8(-(1))
 1329 05d0 1F4F      		sbci r17,hi8(-(1))
 1330               	.LVL94:
 1331 05d2 B2E0      		ldi r27,hi8(512)
 1332 05d4 0030      		cpi r16,lo8(512)
 1333 05d6 1B07      		cpc r17,r27
 1334 05d8 01F4      		brne .L70
 1335               	.LM214:
 1336 05da 8E01      		movw r16,r28
 1337               	.LVL95:
 1338 05dc 0D5F      		subi r16,lo8(-(3))
 1339 05de 1F4F      		sbci r17,hi8(-(3))
 1340               	.LM215:
 1341 05e0 80E0      		ldi r24,lo8(0)
 1342 05e2 90E0      		ldi r25,hi8(0)
 1343 05e4 DC01      		movw r26,r24
 1344               	.LM216:
 1345 05e6 43E0      		ldi r20,lo8(3)
 1346 05e8 842E      		mov r8,r20
 1347               	.LM217:
 1348 05ea 9924      		clr r9
 1349 05ec 9394      		inc r9
 1350               	.LM218:
 1351 05ee 35E0      		ldi r19,lo8(5)
 1352 05f0 A32E      		mov r10,r19
 1353               	.LM219:
 1354 05f2 21E1      		ldi r18,lo8(17)
 1355 05f4 B22E      		mov r11,r18
 1356               	.LVL96:
 1357               	.L77:
 1358               	.LM220:
 1359 05f6 2981      		ldd r18,Y+1
 1360 05f8 3A81      		ldd r19,Y+2
 1361 05fa 2115      		cp r18,__zero_reg__
 1362 05fc 3105      		cpc r19,__zero_reg__
 1363 05fe 01F4      		brne .+2
 1364 0600 00C0      		rjmp .L71
 1365               	.LM221:
 1366 0602 7FB6      		in r7,__SREG__
 1367               	.LVL97:
 1368               	.LM222:
 1369               	/* #APP */
 1370               	 ;  81 "code1.c" 1
 1371 0604 F894      		cli
 1372               	 ;  0 "" 2
 1373               	/* #NOAPP */
 1374               	.L72:
 1375               	.LM223:
 1376 0606 E199      		sbic 60-32,1
 1377 0608 00C0      		rjmp .L72
 1378               	.LM224:
 1379 060a 9C01      		movw r18,r24
 1380               	.LM225:
 1381 060c FC01      		movw r30,r24
 1382               	/* #APP */
 1383               	 ;  83 "code1.c" 1
 1384 060e 8092 6800 		sts 104, r8
 1385 0612 E895      		spm
 1386               		
 1387               	 ;  0 "" 2
 1388               	/* #NOAPP */
 1389               	.L73:
 1390               	.LM226:
 1391 0614 4091 6800 		lds r20,104
 1392 0618 40FD      		sbrc r20,0
 1393 061a 00C0      		rjmp .L73
 1394               	.LM227:
 1395 061c E12C      		mov r14,__zero_reg__
 1396 061e F1E0      		ldi r31,hi8(256)
 1397 0620 FF2E      		mov r15,r31
 1398 0622 E20E      		add r14,r18
 1399 0624 F31E      		adc r15,r19
 1400 0626 2901      		movw r4,r18
 1401 0628 A801      		movw r20,r16
 1402               	.LVL98:
 1403               	.L74:
 1404               	.LM228:
 1405 062a FA01      		movw r30,r20
 1406 062c 6081      		ld r22,Z
 1407               	.LVL99:
 1408               	.LM229:
 1409 062e D180      		ldd r13,Z+1
 1410 0630 CC24      		clr r12
 1411 0632 F601      		movw r30,r12
 1412 0634 E60F      		add r30,r22
 1413 0636 F11D      		adc r31,__zero_reg__
 1414 0638 BF01      		movw r22,r30
 1415               	.LVL100:
 1416               	.LM230:
 1417 063a 4E5F      		subi r20,lo8(-(2))
 1418 063c 5F4F      		sbci r21,hi8(-(2))
 1419               	.LVL101:
 1420               	.LM231:
 1421 063e F201      		movw r30,r4
 1422               	.LVL102:
 1423               	/* #APP */
 1424               	 ;  92 "code1.c" 1
 1425 0640 0B01      		movw  r0, r22
 1426 0642 9092 6800 		sts 104, r9
 1427 0646 E895      		spm
 1428 0648 1124      		clr  r1
 1429               		
 1430               	 ;  0 "" 2
 1431               	/* #NOAPP */
 1432 064a 62E0      		ldi r22,lo8(2)
 1433 064c 70E0      		ldi r23,hi8(2)
 1434               	.LVL103:
 1435 064e 460E      		add r4,r22
 1436 0650 571E      		adc r5,r23
 1437               	.LM232:
 1438 0652 4E14      		cp r4,r14
 1439 0654 5F04      		cpc r5,r15
 1440 0656 01F4      		brne .L74
 1441               	.LM233:
 1442 0658 0050      		subi r16,lo8(-(256))
 1443 065a 1F4F      		sbci r17,hi8(-(256))
 1444               	.LM234:
 1445 065c F901      		movw r30,r18
 1446               	/* #APP */
 1447               	 ;  94 "code1.c" 1
 1448 065e A092 6800 		sts 104, r10
 1449 0662 E895      		spm
 1450               		
 1451               	 ;  0 "" 2
 1452               	/* #NOAPP */
 1453               	.L75:
 1454               	.LM235:
 1455 0664 2091 6800 		lds r18,104
 1456 0668 20FD      		sbrc r18,0
 1457 066a 00C0      		rjmp .L75
 1458               	.LM236:
 1459               	/* #APP */
 1460               	 ;  96 "code1.c" 1
 1461 066c B092 6800 		sts 104, r11
 1462 0670 E895      		spm
 1463               		
 1464               	 ;  0 "" 2
 1465               	.LM237:
 1466               	/* #NOAPP */
 1467 0672 7FBE      		out __SREG__,r7
 1468 0674 00C0      		rjmp .L76
 1469               	.LVL104:
 1470               	.L71:
 1471               	.LM238:
 1472               	/* #APP */
 1473               	 ;  101 "code1.c" 1
 1474 0676 0C94 0000 		jmp 0x0000
 1475               	 ;  0 "" 2
 1476               	.LVL105:
 1477               	/* #NOAPP */
 1478               	.L76:
 1479               	.LM239:
 1480 067a 2981      		ldd r18,Y+1
 1481 067c 3A81      		ldd r19,Y+2
 1482 067e 2150      		subi r18,lo8(-(-1))
 1483 0680 3040      		sbci r19,hi8(-(-1))
 1484               	.LVL106:
 1485 0682 3A83      		std Y+2,r19
 1486 0684 2983      		std Y+1,r18
 1487               	.LVL107:
 1488               	.LM240:
 1489 0686 8058      		subi r24,lo8(-(128))
 1490 0688 9F4F      		sbci r25,hi8(-(128))
 1491 068a AF4F      		sbci r26,hlo8(-(128))
 1492 068c BF4F      		sbci r27,hhi8(-(128))
 1493               	.LVL108:
 1494               	.LM241:
 1495 068e 00C0      		rjmp .L77
 1496               	.LFE30:
 1498               	.global	k
 1499               	.global	k
 1500               		.section .bss
 1503               	k:
 1504 0000 00        		.skip 1,0
 1505               	.global	j
 1506               	.global	j
 1509               	j:
 1510 0001 00        		.skip 1,0
 1511               	.global	save
 1512               	.global	save
 1515               	save:
 1516 0002 00        		.skip 1,0
 1725               	.Letext0:
DEFINED SYMBOLS
                            *ABS*:0000000000000000 code1.c
     /tmp/ccNnr4Ei.s:2      *ABS*:000000000000003f __SREG__
     /tmp/ccNnr4Ei.s:3      *ABS*:000000000000003e __SP_H__
     /tmp/ccNnr4Ei.s:4      *ABS*:000000000000003d __SP_L__
     /tmp/ccNnr4Ei.s:5      *ABS*:0000000000000034 __CCP__
     /tmp/ccNnr4Ei.s:6      *ABS*:0000000000000000 __tmp_reg__
     /tmp/ccNnr4Ei.s:7      *ABS*:0000000000000001 __zero_reg__
     /tmp/ccNnr4Ei.s:18     .text:0000000000000000 uart1_init
     /tmp/ccNnr4Ei.s:49     .text:0000000000000020 uart1_tx_char
     /tmp/ccNnr4Ei.s:71     .text:000000000000002e uart1_tx_str
     /tmp/ccNnr4Ei.s:111    .text:0000000000000056 uart1_tx_num
     /tmp/ccNnr4Ei.s:197    .text:00000000000000c8 uart1_rx_char
     /tmp/ccNnr4Ei.s:218    .text:00000000000000d6 uart1_rx_str
     /tmp/ccNnr4Ei.s:281    .text:0000000000000120 uart1_rx_num
     /tmp/ccNnr4Ei.s:420    .text:00000000000001d8 dely_ns
     /tmp/ccNnr4Ei.s:1503   .bss:0000000000000000 k
     /tmp/ccNnr4Ei.s:1509   .bss:0000000000000001 j
     /tmp/ccNnr4Ei.s:449    .text:00000000000001f2 toggleE
     /tmp/ccNnr4Ei.s:470    .text:00000000000001fe lcd_cmd
     /tmp/ccNnr4Ei.s:512    .text:000000000000022e lcd_putchar
     /tmp/ccNnr4Ei.s:559    .text:0000000000000266 lcd_string
     /tmp/ccNnr4Ei.s:636    .text:00000000000002c0 lcd_gotoxy1
     /tmp/ccNnr4Ei.s:656    .text:00000000000002c8 lcd_gotoxy2
     /tmp/ccNnr4Ei.s:676    .text:00000000000002d0 lcd_char
     /tmp/ccNnr4Ei.s:711    .text:00000000000002ee lcd_showvalue
     /tmp/ccNnr4Ei.s:787    .text:0000000000000356 lcd_exit
     /tmp/ccNnr4Ei.s:1515   .bss:0000000000000002 save
     /tmp/ccNnr4Ei.s:804    .text:000000000000035e WaitMs
     /tmp/ccNnr4Ei.s:844    .text:0000000000000374 lcd_init
     /tmp/ccNnr4Ei.s:891    .text:00000000000003b2 eeprom_write
     /tmp/ccNnr4Ei.s:919    .text:00000000000003c2 eeprom_read
     /tmp/ccNnr4Ei.s:946    .text:00000000000003d0 eeprom_write_string
     /tmp/ccNnr4Ei.s:1035   .text:000000000000043e eeprom_read_string
     /tmp/ccNnr4Ei.s:1098   .text:0000000000000466 main

UNDEFINED SYMBOLS
__udivmodhi4
__udivmodqi4
__divmodhi4
__do_copy_data
__do_clear_bss
