   1               		.file	"eeprom.c"
   2               	__SREG__ = 0x3f
   3               	__SP_H__ = 0x3e
   4               	__SP_L__ = 0x3d
   5               	__CCP__  = 0x34
   6               	__tmp_reg__ = 0
   7               	__zero_reg__ = 1
   8               		.global __do_copy_data
   9               		.global __do_clear_bss
  17               	.Ltext0:
  18               	.global	uart1_init
  20               	uart1_init:
  21               	.LFB2:
  22               	.LM1:
  23               	/* prologue: function */
  24               	/* frame size = 0 */
  25               	.LM2:
  26 0000 1092 9800 		sts 152,__zero_reg__
  27               	.LM3:
  28 0004 87E6      		ldi r24,lo8(103)
  29 0006 8093 9900 		sts 153,r24
  30               	.LM4:
  31 000a EDE9      		ldi r30,lo8(157)
  32 000c F0E0      		ldi r31,hi8(157)
  33 000e 8081      		ld r24,Z
  34 0010 8660      		ori r24,lo8(6)
  35 0012 8083      		st Z,r24
  36               	.LM5:
  37 0014 EAE9      		ldi r30,lo8(154)
  38 0016 F0E0      		ldi r31,hi8(154)
  39 0018 8081      		ld r24,Z
  40 001a 8861      		ori r24,lo8(24)
  41 001c 8083      		st Z,r24
  42               	/* epilogue start */
  43               	.LM6:
  44 001e 0895      		ret
  45               	.LFE2:
  47               	.global	uart1_tx_char
  49               	uart1_tx_char:
  50               	.LFB3:
  51               	.LM7:
  52               	.LVL0:
  53               	/* prologue: function */
  54               	/* frame size = 0 */
  55 0020 982F      		mov r25,r24
  56               	.LVL1:
  57               	.L4:
  58               	.LM8:
  59 0022 8091 9B00 		lds r24,155
  60 0026 85FF      		sbrs r24,5
  61 0028 00C0      		rjmp .L4
  62               	.LM9:
  63 002a 9093 9C00 		sts 156,r25
  64               	/* epilogue start */
  65               	.LM10:
  66 002e 0895      		ret
  67               	.LFE3:
  69               	.global	uart1_tx_str
  71               	uart1_tx_str:
  72               	.LFB4:
  73               	.LM11:
  74               	.LVL2:
  75               	/* prologue: function */
  76               	/* frame size = 0 */
  77 0030 FC01      		movw r30,r24
  78 0032 00C0      		rjmp .L8
  79               	.LVL3:
  80               	.L11:
  81               	.LBB20:
  82               	.LBB21:
  83               	.LM12:
  84 0034 8091 9B00 		lds r24,155
  85 0038 85FF      		sbrs r24,5
  86 003a 00C0      		rjmp .L11
  87               	.LM13:
  88 003c 9093 9C00 		sts 156,r25
  89               	.LBE21:
  90               	.LBE20:
  91               	.LM14:
  92 0040 3196      		adiw r30,1
  93               	.LVL4:
  94               	.L8:
  95               	.LM15:
  96 0042 9081      		ld r25,Z
  97 0044 9923      		tst r25
  98 0046 01F4      		brne .L11
  99               	/* epilogue start */
 100               	.LM16:
 101 0048 0895      		ret
 102               	.LFE4:
 104               	.global	uart1_tx_num
 106               	uart1_tx_num:
 107               	.LFB5:
 108               	.LM17:
 109               	.LVL5:
 110 004a DF93      		push r29
 111 004c CF93      		push r28
 112 004e 00D0      		rcall .
 113 0050 00D0      		rcall .
 114 0052 0F92      		push __tmp_reg__
 115 0054 CDB7      		in r28,__SP_L__
 116 0056 DEB7      		in r29,__SP_H__
 117               	/* prologue: function */
 118               	/* frame size = 5 */
 119               	.LM18:
 120 0058 6AE0      		ldi r22,lo8(10)
 121 005a 70E0      		ldi r23,hi8(10)
 122 005c 0E94 0000 		call __udivmodhi4
 123               	.LVL6:
 124 0060 8A83      		std Y+2,r24
 125 0062 FE01      		movw r30,r28
 126 0064 3296      		adiw r30,2
 127               	.LM19:
 128 0066 9E01      		movw r18,r28
 129 0068 2F5F      		subi r18,lo8(-(1))
 130 006a 3F4F      		sbci r19,hi8(-(1))
 131               	.L15:
 132               	.LM20:
 133 006c 9081      		ld r25,Z
 134               	.L14:
 135               	.LBB22:
 136               	.LBB23:
 137               	.LM21:
 138 006e 8091 9B00 		lds r24,155
 139 0072 85FF      		sbrs r24,5
 140 0074 00C0      		rjmp .L14
 141               	.LBE23:
 142               	.LBE22:
 143               	.LM22:
 144 0076 905D      		subi r25,lo8(-(48))
 145               	.LBB25:
 146               	.LBB24:
 147               	.LM23:
 148 0078 9093 9C00 		sts 156,r25
 149 007c 3197      		sbiw r30,1
 150               	.LBE24:
 151               	.LBE25:
 152               	.LM24:
 153 007e 2E17      		cp r18,r30
 154 0080 3F07      		cpc r19,r31
 155 0082 01F4      		brne .L15
 156               	/* epilogue start */
 157               	.LM25:
 158 0084 0F90      		pop __tmp_reg__
 159 0086 0F90      		pop __tmp_reg__
 160 0088 0F90      		pop __tmp_reg__
 161 008a 0F90      		pop __tmp_reg__
 162 008c 0F90      		pop __tmp_reg__
 163 008e CF91      		pop r28
 164 0090 DF91      		pop r29
 165 0092 0895      		ret
 166               	.LFE5:
 168               	.global	uart1_rx_char
 170               	uart1_rx_char:
 171               	.LFB6:
 172               	.LM26:
 173               	/* prologue: function */
 174               	/* frame size = 0 */
 175               	.L20:
 176               	.LM27:
 177 0094 8091 9B00 		lds r24,155
 178 0098 87FF      		sbrs r24,7
 179 009a 00C0      		rjmp .L20
 180               	.LM28:
 181 009c 8091 9C00 		lds r24,156
 182               	/* epilogue start */
 183               	.LM29:
 184 00a0 0895      		ret
 185               	.LFE6:
 187               	.global	uart1_rx_str
 189               	uart1_rx_str:
 190               	.LFB7:
 191               	.LM30:
 192               	.LVL7:
 193               	/* prologue: function */
 194               	/* frame size = 0 */
 195               	.LM31:
 196 00a2 FC01      		movw r30,r24
 197               	.LVL8:
 198 00a4 20E0      		ldi r18,lo8(0)
 199 00a6 30E0      		ldi r19,hi8(0)
 200               	.LVL9:
 201               	.L30:
 202               	.LBB26:
 203               	.LBB27:
 204               	.LM32:
 205 00a8 8091 9B00 		lds r24,155
 206 00ac 87FF      		sbrs r24,7
 207 00ae 00C0      		rjmp .L30
 208               	.LM33:
 209 00b0 8091 9C00 		lds r24,156
 210               	.LBE27:
 211               	.LBE26:
 212               	.LM34:
 213 00b4 8083      		st Z,r24
 214               	.LM35:
 215 00b6 8D30      		cpi r24,lo8(13)
 216 00b8 01F4      		brne .L25
 217               	.LM36:
 218 00ba 1082      		st Z,__zero_reg__
 219 00bc 0895      		ret
 220               	.L25:
 221               	.LM37:
 222 00be 2F5F      		subi r18,lo8(-(1))
 223 00c0 3F4F      		sbci r19,hi8(-(1))
 224 00c2 3196      		adiw r30,1
 225 00c4 2436      		cpi r18,100
 226 00c6 3105      		cpc r19,__zero_reg__
 227 00c8 01F4      		brne .L30
 228 00ca 0895      		ret
 229               	.LFE7:
 231               	.global	uart1_rx_num
 233               	uart1_rx_num:
 234               	.LFB8:
 235               	.LM38:
 236               	/* prologue: function */
 237               	/* frame size = 0 */
 238               	.L32:
 239               	.LBB28:
 240               	.LBB29:
 241               	.LM39:
 242 00cc 8091 9B00 		lds r24,155
 243 00d0 87FF      		sbrs r24,7
 244 00d2 00C0      		rjmp .L32
 245               	.LM40:
 246 00d4 8091 9C00 		lds r24,156
 247               	.LVL10:
 248               	.LBE29:
 249               	.LBE28:
 250               	.LM41:
 251 00d8 8053      		subi r24,lo8(-(-48))
 252               	.LVL11:
 253               	/* epilogue start */
 254 00da 0895      		ret
 255               	.LFE8:
 257               	.global	eeprom_write
 259               	eeprom_write:
 260               	.LFB9:
 261               	.LM42:
 262               	/* prologue: function */
 263               	/* frame size = 0 */
 264               	.LVL12:
 265               	.L36:
 266               	.LM43:
 267 00dc E199      		sbic 60-32,1
 268 00de 00C0      		rjmp .L36
 269               	.LM44:
 270 00e0 9FBB      		out (62)+1-32,r25
 271 00e2 8EBB      		out 62-32,r24
 272               	.LM45:
 273 00e4 6DBB      		out 61-32,r22
 274               	.LM46:
 275 00e6 E29A      		sbi 60-32,2
 276               	.LM47:
 277 00e8 E19A      		sbi 60-32,1
 278               	/* epilogue start */
 279               	.LM48:
 280 00ea 0895      		ret
 281               	.LFE9:
 283               	.global	eeprom_read
 285               	eeprom_read:
 286               	.LFB10:
 287               	.LM49:
 288               	/* prologue: function */
 289               	/* frame size = 0 */
 290               	.LVL13:
 291               	.L40:
 292               	.LM50:
 293 00ec E199      		sbic 60-32,1
 294 00ee 00C0      		rjmp .L40
 295               	.LM51:
 296 00f0 9FBB      		out (62)+1-32,r25
 297 00f2 8EBB      		out 62-32,r24
 298               	.LM52:
 299 00f4 E09A      		sbi 60-32,0
 300               	.LM53:
 301 00f6 8DB3      		in r24,61-32
 302               	.LVL14:
 303               	/* epilogue start */
 304               	.LM54:
 305 00f8 0895      		ret
 306               	.LFE10:
 308               		.data
 309               	.LC0:
 310 0000 5465 7374 		.string	"Test code for EEPROM read - write operations...\n"
 310      2063 6F64 
 310      6520 666F 
 310      7220 4545 
 310      5052 4F4D 
 311               		.text
 312               	.global	main
 314               	main:
 315               	.LFB11:
 316               	.LM55:
 317               	/* prologue: function */
 318               	/* frame size = 0 */
 319               	.LBB30:
 320               	.LBB31:
 321               	.LM56:
 322 00fa 1092 9800 		sts 152,__zero_reg__
 323               	.LM57:
 324 00fe 87E6      		ldi r24,lo8(103)
 325 0100 8093 9900 		sts 153,r24
 326               	.LM58:
 327 0104 8091 9D00 		lds r24,157
 328 0108 8660      		ori r24,lo8(6)
 329 010a 8093 9D00 		sts 157,r24
 330               	.LM59:
 331 010e 8091 9A00 		lds r24,154
 332 0112 8861      		ori r24,lo8(24)
 333 0114 8093 9A00 		sts 154,r24
 334 0118 E0E0      		ldi r30,lo8(.LC0)
 335 011a F0E0      		ldi r31,hi8(.LC0)
 336               	.LVL15:
 337 011c 00C0      		rjmp .L44
 338               	.L50:
 339               	.LBE31:
 340               	.LBE30:
 341               	.LBB32:
 342               	.LBB33:
 343               	.LBB34:
 344               	.LBB35:
 345               	.LM60:
 346 011e 8091 9B00 		lds r24,155
 347 0122 85FF      		sbrs r24,5
 348 0124 00C0      		rjmp .L50
 349               	.LM61:
 350 0126 9093 9C00 		sts 156,r25
 351               	.LBE35:
 352               	.LBE34:
 353               	.LM62:
 354 012a 3196      		adiw r30,1
 355               	.L44:
 356               	.LM63:
 357 012c 9081      		ld r25,Z
 358 012e 9923      		tst r25
 359 0130 01F4      		brne .L50
 360               	.L49:
 361               	.LBE33:
 362               	.LBE32:
 363               	.LBB36:
 364               	.LBB37:
 365               	.LM64:
 366 0132 E199      		sbic 60-32,1
 367 0134 00C0      		rjmp .L49
 368               	.LM65:
 369 0136 80E0      		ldi r24,lo8(512)
 370 0138 92E0      		ldi r25,hi8(512)
 371 013a 9FBB      		out (62)+1-32,r25
 372 013c 8EBB      		out 62-32,r24
 373               	.LM66:
 374 013e E09A      		sbi 60-32,0
 375               	.LM67:
 376 0140 9DB3      		in r25,61-32
 377               	.LVL16:
 378               	.L47:
 379               	.LBE37:
 380               	.LBE36:
 381               	.LBB38:
 382               	.LBB39:
 383               	.LM68:
 384 0142 8091 9B00 		lds r24,155
 385 0146 85FF      		sbrs r24,5
 386 0148 00C0      		rjmp .L47
 387               	.LM69:
 388 014a 9093 9C00 		sts 156,r25
 389               	.LBE39:
 390               	.LBE38:
 391               	.LM70:
 392 014e 80E0      		ldi r24,lo8(0)
 393 0150 90E0      		ldi r25,hi8(0)
 394               	/* epilogue start */
 395 0152 0895      		ret
 396               	.LFE11:
 494               	.Letext0:
DEFINED SYMBOLS
                            *ABS*:00000000 eeprom.c
     /tmp/ccdcC8pN.s:2      *ABS*:0000003f __SREG__
     /tmp/ccdcC8pN.s:3      *ABS*:0000003e __SP_H__
     /tmp/ccdcC8pN.s:4      *ABS*:0000003d __SP_L__
     /tmp/ccdcC8pN.s:5      *ABS*:00000034 __CCP__
     /tmp/ccdcC8pN.s:6      *ABS*:00000000 __tmp_reg__
     /tmp/ccdcC8pN.s:7      *ABS*:00000001 __zero_reg__
     /tmp/ccdcC8pN.s:20     .text:00000000 uart1_init
     /tmp/ccdcC8pN.s:49     .text:00000020 uart1_tx_char
     /tmp/ccdcC8pN.s:71     .text:00000030 uart1_tx_str
     /tmp/ccdcC8pN.s:106    .text:0000004a uart1_tx_num
     /tmp/ccdcC8pN.s:170    .text:00000094 uart1_rx_char
     /tmp/ccdcC8pN.s:189    .text:000000a2 uart1_rx_str
     /tmp/ccdcC8pN.s:233    .text:000000cc uart1_rx_num
     /tmp/ccdcC8pN.s:259    .text:000000dc eeprom_write
     /tmp/ccdcC8pN.s:285    .text:000000ec eeprom_read
     /tmp/ccdcC8pN.s:314    .text:000000fa main

UNDEFINED SYMBOLS
__do_copy_data
__do_clear_bss
__udivmodhi4
