
main.elf:     file format elf32-littlearm

Sections:
Idx Name          Size      VMA       LMA       File off  Algn
  0 .text         00009ad4  00000000  00000000  00008000  2**2
                  CONTENTS, ALLOC, LOAD, READONLY, CODE
  1 .ctors        00000000  00009ad4  00009ad4  000187e0  2**0
                  CONTENTS
  2 .dtors        00000000  00009ad4  00009ad4  000187e0  2**0
                  CONTENTS
  3 .data         000007c4  40000000  00009ad4  00018000  2**2
                  CONTENTS, ALLOC, LOAD, DATA
  4 .bss          000003a4  400007e0  400007e0  000187e0  2**5
                  ALLOC
  5 .stack        00000400  40000c00  40000c00  000187e0  2**0
                  CONTENTS
  6 .stab         00002364  00000000  00000000  00018be0  2**2
                  CONTENTS, READONLY, DEBUGGING
  7 .stabstr      00001ea9  00000000  00000000  0001af44  2**0
                  CONTENTS, READONLY, DEBUGGING
  8 .comment      000003a0  00000000  00000000  0001cded  2**0
                  CONTENTS, READONLY
  9 .debug_aranges 000006e0  00000000  00000000  0001d190  2**3
                  CONTENTS, READONLY, DEBUGGING
 10 .debug_pubnames 00000b02  00000000  00000000  0001d870  2**0
                  CONTENTS, READONLY, DEBUGGING
 11 .debug_info   00022947  00000000  00000000  0001e372  2**0
                  CONTENTS, READONLY, DEBUGGING
 12 .debug_abbrev 00005ecb  00000000  00000000  00040cb9  2**0
                  CONTENTS, READONLY, DEBUGGING
 13 .debug_line   000056c9  00000000  00000000  00046b84  2**0
                  CONTENTS, READONLY, DEBUGGING
 14 .debug_frame  00001460  00000000  00000000  0004c250  2**2
                  CONTENTS, READONLY, DEBUGGING
 15 .debug_str    000026de  00000000  00000000  0004d6b0  2**0
                  CONTENTS, READONLY, DEBUGGING
 16 .debug_ranges 00000280  00000000  00000000  0004fd8e  2**0
                  CONTENTS, READONLY, DEBUGGING
Disassembly of section .text:

00000000 <_boot>:

// Runtime Interrupt Vectors
// -------------------------
Vectors:
        b     _start                    // reset - _start
       0:	ea000012 	b	50 <_mainCRTStartup>
        ldr   pc,_undf                  // undefined - _undf
       4:	e59ff014 	ldr	pc, [pc, #20]	; 20 <_undf>
        ldr   pc,_swi                   // SWI - _swi
       8:	e59ff014 	ldr	pc, [pc, #20]	; 24 <_swi>
        ldr   pc,_pabt                  // program abort - _pabt
       c:	e59ff014 	ldr	pc, [pc, #20]	; 28 <_pabt>
        ldr   pc,_dabt                  // data abort - _dabt
      10:	e59ff014 	ldr	pc, [pc, #20]	; 2c <_dabt>
        nop                             // reserved
      14:	e1a00000 	nop			(mov r0,r0)
        ldr   pc,[pc,#-0xFF0]           // IRQ - read the VIC
      18:	e51ffff0 	ldr	pc, [pc, #-4080]	; fffff030 <_end+0xbfffe030>
        ldr   pc,_fiq                   // FIQ - _fiq
      1c:	e59ff010 	ldr	pc, [pc, #16]	; 34 <_fiq>

00000020 <_undf>:
      20:	00000038 	andeq	r0, r0, r8, lsr r0

00000024 <_swi>:
      24:	0000003c 	andeq	r0, r0, ip, lsr r0

00000028 <_pabt>:
      28:	00000040 	andeq	r0, r0, r0, asr #32

0000002c <_dabt>:
      2c:	00000044 	andeq	r0, r0, r4, asr #32

00000030 <_irq>:
      30:	00000048 	andeq	r0, r0, r8, asr #32

00000034 <_fiq>:
      34:	0000004c 	andeq	r0, r0, ip, asr #32

00000038 <__undf>:

#if 0
// Use this group for production
_undf:  .word _reset                    // undefined - _reset
_swi:   .word _reset                    // SWI - _reset
_pabt:  .word _reset                    // program abort - _reset
_dabt:  .word _reset                    // data abort - _reset
_irq:   .word _reset                    // IRQ - _reset
_fiq:   .word _reset                    // FIQ - _reset

#else
// Use this group for development
_undf:  .word __undf                    // undefined
_swi:   .word __swi                     // SWI
_pabt:  .word __pabt                    // program abort
_dabt:  .word __dabt                    // data abort
_irq:   .word __irq                     // IRQ
_fiq:   .word __fiq                     // FIQ

__undf: b     .                         // undefined
      38:	eafffffe 	b	38 <__undf>

0000003c <__swi>:
__swi:  b     .                         // SWI
      3c:	eafffffe 	b	3c <__swi>

00000040 <__pabt>:
__pabt: b     .                         // program abort
      40:	eafffffe 	b	40 <F_BIT>

00000044 <__dabt>:
__dabt: b     .                         // data abort
      44:	eafffffe 	b	44 <__dabt>

00000048 <__irq>:
__irq:  b     .                         // IRQ
      48:	eafffffe 	b	48 <__irq>

0000004c <__fiq>:
__fiq:  b     .                         // FIQ
      4c:	eafffffe 	b	4c <__fiq>

00000050 <_mainCRTStartup>:
#endif
        .size _boot, . - _boot
        .endfunc


// Setup the operating mode & stack.
// ---------------------------------
        .global _start, start, _mainCRTStartup
        .func   _start

_start:
start:
_mainCRTStartup:

// Initialize Interrupt System
// - Set stack location for each mode
// - Leave in System Mode with Interrupts Disabled
// -----------------------------------------------
        ldr   r0,=_stack
      50:	e59f00c0 	ldr	r0, [pc, #192]	; 118 <_reset+0x4>
        msr   CPSR_c,#MODE_UND|I_BIT|F_BIT // Undefined Instruction Mode
      54:	e321f0db 	msr	CPSR_c, #219	; 0xdb
        mov   sp,r0
      58:	e1a0d000 	mov	sp, r0
        sub   r0,r0,#UND_STACK_SIZE
      5c:	e2400004 	sub	r0, r0, #4	; 0x4
        msr   CPSR_c,#MODE_ABT|I_BIT|F_BIT // Abort Mode
      60:	e321f0d7 	msr	CPSR_c, #215	; 0xd7
        mov   sp,r0
      64:	e1a0d000 	mov	sp, r0
        sub   r0,r0,#ABT_STACK_SIZE
      68:	e2400004 	sub	r0, r0, #4	; 0x4
        msr   CPSR_c,#MODE_FIQ|I_BIT|F_BIT // FIQ Mode
      6c:	e321f0d1 	msr	CPSR_c, #209	; 0xd1
        mov   sp,r0
      70:	e1a0d000 	mov	sp, r0
        sub   r0,r0,#FIQ_STACK_SIZE
      74:	e2400004 	sub	r0, r0, #4	; 0x4
        msr   CPSR_c,#MODE_IRQ|I_BIT|F_BIT // IRQ Mode
      78:	e321f0d2 	msr	CPSR_c, #210	; 0xd2
        mov   sp,r0
      7c:	e1a0d000 	mov	sp, r0
        sub   r0,r0,#IRQ_STACK_SIZE
      80:	e2400080 	sub	r0, r0, #128	; 0x80
        msr   CPSR_c,#MODE_SVC|I_BIT|F_BIT // Supervisor Mode
      84:	e321f0d3 	msr	CPSR_c, #211	; 0xd3
        mov   sp,r0
      88:	e1a0d000 	mov	sp, r0
        sub   r0,r0,#SVC_STACK_SIZE
      8c:	e2400004 	sub	r0, r0, #4	; 0x4
        msr   CPSR_c,#MODE_SYS|I_BIT|F_BIT // System Mode
      90:	e321f0df 	msr	CPSR_c, #223	; 0xdf
        mov   sp,r0
      94:	e1a0d000 	mov	sp, r0

// Copy initialized data to its execution address in RAM
// -----------------------------------------------------
#ifdef ROM_RUN
        ldr   r1,=_etext                // -> ROM data start
      98:	e59f107c 	ldr	r1, [pc, #124]	; 11c <_reset+0x8>
        ldr   r2,=_data                 // -> data start
      9c:	e59f207c 	ldr	r2, [pc, #124]	; 120 <_reset+0xc>
        ldr   r3,=_edata                // -> end of data
      a0:	e59f307c 	ldr	r3, [pc, #124]	; 124 <_reset+0x10>
1:      cmp   r2,r3                     // check if data to move
      a4:	e1520003 	cmp	r2, r3
        ldrlo r0,[r1],#4                // copy it
      a8:	34910004 	ldrcc	r0, [r1], #4
        strlo r0,[r2],#4
      ac:	34820004 	strcc	r0, [r2], #4
        blo   1b                        // loop until done
      b0:	3afffffb 	bcc	a4 <IRQ_STACK_SIZE+0x24>
#endif
// Clear .bss
// ----------
        mov   r0,#0                     // get a zero
      b4:	e3a00000 	mov	r0, #0	; 0x0
        ldr   r1,=__bss_start           // -> bss start
      b8:	e59f1068 	ldr	r1, [pc, #104]	; 128 <_reset+0x14>
        ldr   r2,=__bss_end__           // -> bss end
      bc:	e59f2068 	ldr	r2, [pc, #104]	; 12c <_reset+0x18>
2:      cmp   r1,r2                     // check if data to clear
      c0:	e1510002 	cmp	r1, r2
        strlo r0,[r1],#4                // clear 4 bytes
      c4:	34810004 	strcc	r0, [r1], #4
        blo   2b                        // loop until done
      c8:	3afffffc 	bcc	c0 <IRQ_STACK_SIZE+0x40>
		
/*
   Call C++ constructors (for objects in "global scope")
   ctor loop added by Martin Thomas 4/2005 
   based on a Anglia Design example-application for ST ARM
*/

		LDR 	r0, =__ctors_start__
      cc:	e59f005c 	ldr	r0, [pc, #92]	; 130 <_reset+0x1c>
		LDR 	r1, =__ctors_end__
      d0:	e59f105c 	ldr	r1, [pc, #92]	; 134 <_reset+0x20>

000000d4 <ctor_loop>:
ctor_loop:
		CMP 	r0, r1
      d4:	e1500001 	cmp	r0, r1
		BEQ 	ctor_end
      d8:	0a000005 	beq	f4 <ctor_end>
		LDR 	r2, [r0], #4
      dc:	e4902004 	ldr	r2, [r0], #4
		STMFD 	sp!, {r0-r1}
      e0:	e92d0003 	stmdb	sp!, {r0, r1}
		MOV 	lr, pc
      e4:	e1a0e00f 	mov	lr, pc
		MOV 	pc, r2
      e8:	e1a0f002 	mov	pc, r2
		LDMFD 	sp!, {r0-r1}
      ec:	e8bd0003 	ldmia	sp!, {r0, r1}
		B 		ctor_loop
      f0:	eafffff7 	b	d4 <ctor_loop>

000000f4 <ctor_end>:
ctor_end:

// Call main program: main(0)
// --------------------------
        mov   r0,#0                     // no arguments (argc = 0)
      f4:	e3a00000 	mov	r0, #0	; 0x0
        mov   r1,r0
      f8:	e1a01000 	mov	r1, r0
        mov   r2,r0
      fc:	e1a02000 	mov	r2, r0
        mov   fp,r0                     // null frame pointer
     100:	e1a0b000 	mov	fp, r0
        mov   r7,r0                     // null frame pointer for thumb
     104:	e1a07000 	mov	r7, r0
        ldr   r10,=main
     108:	e59fa028 	ldr	sl, [pc, #40]	; 138 <_reset+0x24>
        mov   lr,pc
     10c:	e1a0e00f 	mov	lr, pc

/* Enter the C code, use BX instruction so as to never return */
/* use BLX (?) main if you want to use c++ destructors below */

        bx    r10                       // enter main()
     110:	e12fff1a 	bx	sl

00000114 <_reset>:

/* "global object"-dtors are never called and it should not be 
   needed since there is no OS to exit to. */
/* Call destructors */
#		LDR		r0, =__dtors_start__
#		LDR		r1, =__dtors_end__
dtor_loop:
#		CMP		r0, r1
#		BEQ		dtor_end
#		LDR		r2, [r0], #4
#		STMFD	sp!, {r0-r1}
#		MOV		lr, pc
#		MOV		pc, r2
#		LDMFD	sp!, {r0-r1}
#		B		dtor_loop
dtor_end:
   
        .size   _start, . - _start
        .endfunc

        .global _reset, reset, exit, abort
        .func   _reset
_reset:
reset:
exit:
abort:
#if 0
// Disable interrupts, then force a hardware reset by driving P23 low
// -------------------------------------------------------------------
        mrs   r0,cpsr                   // get PSR
        orr   r0,r0,#I_BIT|F_BIT        // disable IRQ and FIQ
        msr   cpsr,r0                   // set up status register

        ldr   r1,=(PS_BASE)             // PS Base Address
        ldr   r0,=(PS_PIO)              // PIO Module
        str   r0,[r1,#PS_PCER_OFF]      // enable its clock
        ldr   r1,=(PIO_BASE)            // PIO Base Address
        ldr   r0,=(1<<23)               // P23
        str   r0,[r1,#PIO_PER_OFF]      // make sure pin is contolled by PIO
        str   r0,[r1,#PIO_CODR_OFF]     // set the pin low
        str   r0,[r1,#PIO_OER_OFF]      // make it an output
#endif
        b     .                         // loop until reset
     114:	eafffffe 	b	114 <_reset>
     118:	40001000 	andmi	r1, r0, r0
     11c:	00009ad4 	ldreqd	r9, [r0], -r4
     120:	40000000 	andmi	r0, r0, r0
     124:	400007c4 	andmi	r0, r0, r4, asr #15
     128:	400007e0 	andmi	r0, r0, r0, ror #15
     12c:	40000b84 	andmi	r0, r0, r4, lsl #23
     130:	00009ad4 	ldreqd	r9, [r0], -r4
     134:	00009ad4 	ldreqd	r9, [r0], -r4
     138:	00000bf0 	streqd	r0, [r0], -r0

0000013c <IRQ_Routine>:
/*  ----------------------------------------------------  */
void IRQ_Routine(void)
{

    while (1);
     13c:	eafffffe 	b	13c <IRQ_Routine>

00000140 <FIQ_Routine>:
}
void FIQ_Routine(void)
{
    while (1);
     140:	eafffffe 	b	140 <FIQ_Routine>

00000144 <SWI_Routine>:
}
void SWI_Routine(void)
{
    while (1);
     144:	eafffffe 	b	144 <SWI_Routine>

00000148 <UNDEF_Routine>:
}
void UNDEF_Routine(void)
{
    while (1);
     148:	eafffffe 	b	148 <UNDEF_Routine>

0000014c <feed>:
}


/**********************************************************
                      Initialize
**********************************************************/

#define PLOCK 0x400
static void feed(void)
{
    PLLFEED = 0xAA;
     14c:	e59f3010 	ldr	r3, [pc, #16]	; 164 <feed+0x18>
     150:	e3a020aa 	mov	r2, #170	; 0xaa
     154:	e5832000 	str	r2, [r3]
    PLLFEED = 0x55;
     158:	e3a02055 	mov	r2, #85	; 0x55
     15c:	e5832000 	str	r2, [r3]
     160:	e1a0f00e 	mov	pc, lr
     164:	e01fc08c 	ands	ip, pc, ip, lsl #1

00000168 <sys_init>:
} void sys_init(void)
{

    //                              Setting the Phased Lock Loop (PLL)
    //               ----------------------------------
    //
    // LPC-P2148 has a 12.0000 mhz crystal
    //
    // We'd like the LPC2148 to run at 60 mhz (has to be an even multiple of crystal)
    // 
    // According to the Philips LPC2148 manual:   M = cclk / Fosc   where:  M    = PLL multiplier (bits 0-4 of PLLCFG)
    //                                                                                                                                              cclk = 60000000 hz
    //                                                                                                                                              Fosc = 12000000 hz
    //
    // Solving:     M = 60000000 / 12000000 = 5           
    //
    //                      Note: M - 1 must be entered into bits 0-4 of PLLCFG (assign 4 to these bits)
    //
    //
    // The Current Controlled Oscilator (CCO) must operate in the range 156 mhz to 320 mhz
    //
    // According to the Philips LPC2148 manual:     Fcco = cclk * 2 * P    where:   Fcco = CCO frequency 
    //                                                                                                                                                      cclk = 60000000 hz
    //                                                                                                                                                      P = PLL divisor (bits 5-6 of PLLCFG)
    //
    // Solving:     Fcco = 60000000 * 2 * P
    //                      P = 2  (trial value)
    //                      Fcco = 60000000 * 2 * 2
    //                      Fcc0 = 240000000 hz    (good choice for P since it's within the 156 mhz to 320 mhz range)
    //
    // From Table 22 (page 34) of Philips LPC2148 manual    P = 2, PLLCFG bits 5-6 = 1  (assign 1 to these bits)
    //
    // Finally:      PLLCFG = 0  01  00100  =  0x24
    //
    // Final note: to load PLLCFG register, we must use the 0xAA followed 0x55 write sequence to the PLLFEED register
    //             this is done in the short function feed() below
    //

    // Setting Multiplier and Divider values
    PLLCFG = 0x24;
     168:	e59f3068 	ldr	r3, [pc, #104]	; 1d8 <sys_init+0x70>
     16c:	e1a0c00d 	mov	ip, sp
     170:	e3a02024 	mov	r2, #36	; 0x24
     174:	e92dd810 	stmdb	sp!, {r4, fp, ip, lr, pc}
     178:	e5832000 	str	r2, [r3]
     17c:	e24cb004 	sub	fp, ip, #4	; 0x4
    feed();
     180:	ebfffff1 	bl	14c <feed>

    // Enabling the PLL */  
    PLLCON = 0x1;
     184:	e59f3050 	ldr	r3, [pc, #80]	; 1dc <sys_init+0x74>
     188:	e3a02001 	mov	r2, #1	; 0x1
     18c:	e5832000 	str	r2, [r3]
    feed();
     190:	ebffffed 	bl	14c <feed>

    // Wait for the PLL to lock to set frequency
    while (!(PLLSTAT & PLOCK));
     194:	e59f3044 	ldr	r3, [pc, #68]	; 1e0 <sys_init+0x78>
     198:	e5933000 	ldr	r3, [r3]
     19c:	e3130b01 	tst	r3, #1024	; 0x400
     1a0:	0afffffb 	beq	194 <sys_init+0x2c>

    // Connect the PLL as the clock source
    PLLCON = 0x3;
     1a4:	e59f3030 	ldr	r3, [pc, #48]	; 1dc <sys_init+0x74>
     1a8:	e3a04003 	mov	r4, #3	; 0x3
     1ac:	e5834000 	str	r4, [r3]
    feed();
     1b0:	ebffffe5 	bl	14c <feed>

    // Enabling MAM and setting number of clocks used for Flash memory fetch
    MAMTIM = 0x3;
     1b4:	e59f3028 	ldr	r3, [pc, #40]	; 1e4 <sys_init+0x7c>
     1b8:	e5834000 	str	r4, [r3]
    MAMCR = 0x2;
     1bc:	e59f3024 	ldr	r3, [pc, #36]	; 1e8 <sys_init+0x80>
     1c0:	e3a02002 	mov	r2, #2	; 0x2
     1c4:	e5832000 	str	r2, [r3]

    // Setting peripheral Clock (pclk) to System Clock (cclk)
    VPBDIV = 0x1;
     1c8:	e59f301c 	ldr	r3, [pc, #28]	; 1ec <sys_init+0x84>
     1cc:	e3a02001 	mov	r2, #1	; 0x1
     1d0:	e5832000 	str	r2, [r3]
     1d4:	e91ba810 	ldmdb	fp, {r4, fp, sp, pc}
     1d8:	e01fc084 	ands	ip, pc, r4, lsl #1
     1dc:	e01fc080 	ands	ip, pc, r0, lsl #1
     1e0:	e01fc088 	ands	ip, pc, r8, lsl #1
     1e4:	e01fc004 	ands	ip, pc, r4
     1e8:	e01fc000 	ands	ip, pc, r0
     1ec:	e01fc100 	ands	ip, pc, r0, lsl #2

000001f0 <_sbrk_r>:
}





/* "malloc clue function" */

	/**** Locally used variables. ****/
extern char end[];              /*  end is set in the linker command 	*/
				/* file and is the end of statically 	*/
				/* allocated data (thus start of heap).	*/

static char *heap_ptr;		/* Points to current end of the heap.	*/

/************************** _sbrk_r *************************************/
/*  Support function.  Adjusts end of heap to provide more memory to	*/
/* memory allocator. Simple and dumb with no sanity checks.		*/
/*  struct _reent *r	-- re-entrancy structure, used by newlib to 	*/
/*			support multiple threads of operation.		*/
/*  ptrdiff_t nbytes	-- number of bytes to add.			*/
/*  Returns pointer to start of new heap area.				*/
/*  Note:  This implementation is not thread safe (despite taking a	*/
/* _reent structure as a parameter).  					*/
/*  Since _s_r is not used in the current implementation, the following	*/
/* messages must be suppressed.						*/

void * _sbrk_r(
    struct _reent *_s_r, 
    ptrdiff_t nbytes)
{
	char  *base;		/*  errno should be set to  ENOMEM on error	*/

	if (!heap_ptr) {	/*  Initialize if first time through.		*/
     1f0:	e59f2020 	ldr	r2, [pc, #32]	; 218 <_sbrk_r+0x28>
     1f4:	e5923000 	ldr	r3, [r2]
     1f8:	e3530000 	cmp	r3, #0	; 0x0
		heap_ptr = end;
     1fc:	059f3018 	ldreq	r3, [pc, #24]	; 21c <_sbrk_r+0x2c>
     200:	05823000 	streq	r3, [r2]
	}
	base = heap_ptr;	/*  Point to end of heap.			*/
     204:	e5923000 	ldr	r3, [r2]
	heap_ptr += nbytes;	/*  Increase heap.				*/
	
	return base;		/*  Return pointer to start of new heap area.	*/
}
     208:	e1a00003 	mov	r0, r3
     20c:	e0833001 	add	r3, r3, r1
     210:	e5823000 	str	r3, [r2]
     214:	e1a0f00e 	mov	pc, lr
     218:	400007e0 	andmi	r0, r0, r0, ror #15
     21c:	40001000 	andmi	r1, r0, r0

00000220 <enableIRQ>:

static inline unsigned asm_get_cpsr(void)
{
  unsigned long retval;
  asm volatile (" mrs  %0, cpsr" : "=r" (retval) : /* no inputs */  );
     220:	e10f0000 	mrs	r0, CPSR
  return retval;
}

static inline void asm_set_cpsr(unsigned val)
{
     224:	e3c03080 	bic	r3, r0, #128	; 0x80
  asm volatile (" msr  cpsr, %0" : /* no outputs */ : "r" (val)  );
     228:	e129f003 	msr	CPSR_fc, r3
}

unsigned enableIRQ(void)
{
  unsigned _cpsr;

  _cpsr = asm_get_cpsr();
  asm_set_cpsr(_cpsr & ~IRQ_MASK);
  return _cpsr;
}
     22c:	e1a0f00e 	mov	pc, lr

00000230 <disableIRQ>:
     230:	e10f0000 	mrs	r0, CPSR
     234:	e3803080 	orr	r3, r0, #128	; 0x80
     238:	e129f003 	msr	CPSR_fc, r3

unsigned disableIRQ(void)
{
  unsigned _cpsr;

  _cpsr = asm_get_cpsr();
  asm_set_cpsr(_cpsr | IRQ_MASK);
  return _cpsr;
}
     23c:	e1a0f00e 	mov	pc, lr

00000240 <restoreIRQ>:

unsigned restoreIRQ(unsigned oldCPSR)
{
     240:	e1a02000 	mov	r2, r0
     244:	e10f0000 	mrs	r0, CPSR
     248:	e2022080 	and	r2, r2, #128	; 0x80
     24c:	e3c03080 	bic	r3, r0, #128	; 0x80
     250:	e1833002 	orr	r3, r3, r2
     254:	e129f003 	msr	CPSR_fc, r3
  unsigned _cpsr;

  _cpsr = asm_get_cpsr();
  asm_set_cpsr((_cpsr & ~IRQ_MASK) | (oldCPSR & IRQ_MASK));
  return _cpsr;
}
     258:	e1a0f00e 	mov	pc, lr

0000025c <delay_ms>:
void uart0_tx_num(unsigned int data);
int uart0_rx_num(void);

void delay_ms(unsigned int i)
{
     25c:	e24dd008 	sub	sp, sp, #8	; 0x8
	volatile unsigned int j=0,k = 0;
     260:	e3a03000 	mov	r3, #0	; 0x0
     264:	e58d3004 	str	r3, [sp, #4]
     268:	e58d3000 	str	r3, [sp]
	for (j=0;j<i;j++)
     26c:	e58d3004 	str	r3, [sp, #4]
     270:	e59d3004 	ldr	r3, [sp, #4]
     274:	e1530000 	cmp	r3, r0
     278:	2a000011 	bcs	2c4 <delay_ms+0x68>
		for (k=0;k<6000;k++);	// 
     27c:	e3a03000 	mov	r3, #0	; 0x0
     280:	e58d3000 	str	r3, [sp]
     284:	e59d3000 	ldr	r3, [sp]
     288:	e59f203c 	ldr	r2, [pc, #60]	; 2cc <delay_ms+0x70>
     28c:	e1530002 	cmp	r3, r2
     290:	8a000005 	bhi	2ac <delay_ms+0x50>
     294:	e59d3000 	ldr	r3, [sp]
     298:	e2833001 	add	r3, r3, #1	; 0x1
     29c:	e58d3000 	str	r3, [sp]
     2a0:	e59d3000 	ldr	r3, [sp]
     2a4:	e1530002 	cmp	r3, r2
     2a8:	9afffff9 	bls	294 <delay_ms+0x38>
     2ac:	e59d3004 	ldr	r3, [sp, #4]
     2b0:	e2833001 	add	r3, r3, #1	; 0x1
     2b4:	e58d3004 	str	r3, [sp, #4]
     2b8:	e59d3004 	ldr	r3, [sp, #4]
     2bc:	e1530000 	cmp	r3, r0
     2c0:	3affffed 	bcc	27c <delay_ms+0x20>
     2c4:	e28dd008 	add	sp, sp, #8	; 0x8
     2c8:	e1a0f00e 	mov	pc, lr
     2cc:	0000176f 	andeq	r1, r0, pc, ror #14

000002d0 <uart0_init>:
}

void uart0_init(unsigned int baudrate)
{
     2d0:	e1a0c00d 	mov	ip, sp
     2d4:	e92dd800 	stmdb	sp!, {fp, ip, lr, pc}
	unsigned int baudvalue;

	baudvalue = (60000000 / (16 * baudrate));
     2d8:	e1a01200 	mov	r1, r0, lsl #4
     2dc:	e24cb004 	sub	fp, ip, #4	; 0x4
     2e0:	e59f0058 	ldr	r0, [pc, #88]	; 340 <uart0_init+0x70>
     2e4:	eb001c9a 	bl	7554 <__udivsi3>

	PINSEL0 |= (1<<0);				//select TX0  bit 1:0  as 01
     2e8:	e59f2054 	ldr	r2, [pc, #84]	; 344 <uart0_init+0x74>
     2ec:	e5923000 	ldr	r3, [r2]
     2f0:	e3833001 	orr	r3, r3, #1	; 0x1
     2f4:	e5823000 	str	r3, [r2]

	PINSEL0 |= (1<<2);				//select RX0  bit 3:2  as 01
     2f8:	e5923000 	ldr	r3, [r2]
   //PINSEL0 = (PINSEL0 & ~0x0000000F) | 0x00000005;     /* Enable RxD0 and TxD0              */

	U0LCR= 0x83;					//8 bit, 1 stop bit, no parity bit, DLAB
     2fc:	e59f1044 	ldr	r1, [pc, #68]	; 348 <uart0_init+0x78>
     300:	e3833004 	orr	r3, r3, #4	; 0x4
     304:	e5823000 	str	r3, [r2]
     308:	e3a03083 	mov	r3, #131	; 0x83
     30c:	e5813000 	str	r3, [r1]
	//U0LCR |= (1<<7);
	//**********baud rate***************************	
	
	U0DLL = baudvalue & 0xFF;			//lower bits
     310:	e59f3034 	ldr	r3, [pc, #52]	; 34c <uart0_init+0x7c>
	U0DLM = baudvalue >> 8;			//higher bits
     314:	e1a0c420 	mov	ip, r0, lsr #8
     318:	e20000ff 	and	r0, r0, #255	; 0xff
     31c:	e5830000 	str	r0, [r3]
     320:	e59f3028 	ldr	r3, [pc, #40]	; 350 <uart0_init+0x80>
     324:	e583c000 	str	ip, [r3]

	U0LCR= 0x03;					//DLAB=0, 8bit data, 1 stop bit, no parity
     328:	e3a03003 	mov	r3, #3	; 0x3
     32c:	e5813000 	str	r3, [r1]

	U0FCR = 1;					//enable FIFO
     330:	e59f301c 	ldr	r3, [pc, #28]	; 354 <uart0_init+0x84>
     334:	e3a02001 	mov	r2, #1	; 0x1
     338:	e5832000 	str	r2, [r3]
     33c:	e91ba800 	ldmdb	fp, {fp, sp, pc}
     340:	03938700 	orreqs	r8, r3, #0	; 0x0
     344:	e002c000 	and	ip, r2, r0
     348:	e000c00c 	and	ip, r0, ip
     34c:	e000c000 	and	ip, r0, r0
     350:	e000c004 	and	ip, r0, r4
     354:	e000c008 	and	ip, r0, r8

00000358 <uart0_tx_char>:

}


void uart0_tx_char(unsigned char data)
{	//Refer DS p105
     358:	e20000ff 	and	r0, r0, #255	; 0xff
	//while(!(U0LSR &(1<<THRE)));			//waiting for the U0TRH to be empty or THRE=1 (polling)
	while(!(U0LSR & 0x30));			//waiting for the U0TRH to be empty or THRE=1 (polling)   (0010 0000)
     35c:	e59f3014 	ldr	r3, [pc, #20]	; 378 <uart0_tx_char+0x20>
     360:	e5933000 	ldr	r3, [r3]
     364:	e3130030 	tst	r3, #48	; 0x30
     368:	159f300c 	ldrne	r3, [pc, #12]	; 37c <uart0_tx_char+0x24>
     36c:	15830000 	strne	r0, [r3]
     370:	11a0f00e 	movne	pc, lr
     374:	eafffff8 	b	35c <uart0_tx_char+0x4>
     378:	e000c014 	and	ip, r0, r4, lsl r0
     37c:	e000c000 	and	ip, r0, r0

00000380 <uart0_tx_string>:
	//while(!(U0LSR & 0x40));				//polling TEMT
	U0THR=data;					//????check with TEMT also
		
}

void uart0_tx_string(unsigned char *ptr)
{	
     380:	e1a0c00d 	mov	ip, sp
     384:	e92dd810 	stmdb	sp!, {r4, fp, ip, lr, pc}
     388:	e1a04000 	mov	r4, r0
	while(*ptr!='\0')
     38c:	e5d00000 	ldrb	r0, [r0]
     390:	e3500000 	cmp	r0, #0	; 0x0
     394:	e24cb004 	sub	fp, ip, #4	; 0x4
     398:	091ba810 	ldmeqdb	fp, {r4, fp, sp, pc}
	{
		uart0_tx_char(*ptr);
     39c:	e20000ff 	and	r0, r0, #255	; 0xff
     3a0:	ebffffec 	bl	358 <uart0_tx_char>
		ptr++;
     3a4:	e5f40001 	ldrb	r0, [r4, #1]!
     3a8:	e3500000 	cmp	r0, #0	; 0x0
     3ac:	091ba810 	ldmeqdb	fp, {r4, fp, sp, pc}
     3b0:	eafffff9 	b	39c <uart0_tx_string+0x1c>

000003b4 <uart0_rx_char>:
		//_delay_ms(55);
	}
}

unsigned char uart0_rx_char(void)
{
	//while(!(U0LSR & (1<<RDR)))
	while(!(U0LSR & 0x01));			//pollig RDR
     3b4:	e59f3018 	ldr	r3, [pc, #24]	; 3d4 <uart0_rx_char+0x20>
     3b8:	e5933000 	ldr	r3, [r3]
     3bc:	e3130001 	tst	r3, #1	; 0x1
     3c0:	159f3010 	ldrne	r3, [pc, #16]	; 3d8 <uart0_rx_char+0x24>
     3c4:	15930000 	ldrne	r0, [r3]
     3c8:	120000ff 	andne	r0, r0, #255	; 0xff
	return U0RBR;
}
     3cc:	11a0f00e 	movne	pc, lr
     3d0:	eafffff7 	b	3b4 <uart0_rx_char>
     3d4:	e000c014 	and	ip, r0, r4, lsl r0
     3d8:	e000c000 	and	ip, r0, r0

000003dc <uart0_rx_string>:

void uart0_rx_string(unsigned char *cptr)
{
     3dc:	e1a0c00d 	mov	ip, sp
     3e0:	e92dd830 	stmdb	sp!, {r4, r5, fp, ip, lr, pc}
     3e4:	e24cb004 	sub	fp, ip, #4	; 0x4
     3e8:	e1a04000 	mov	r4, r0
	int i;
	for(i=0;i<100;i++)				//fro 100 char
     3ec:	e3a05000 	mov	r5, #0	; 0x0
	{
		*(cptr+i)=uart0_rx_char();		//rec a char
     3f0:	ebffffef 	bl	3b4 <uart0_rx_char>
     3f4:	e7c40005 	strb	r0, [r4, r5]
		
		if(*(cptr+i)=='\r')			//first enter u check \r i.e till user enter \r receive
     3f8:	e7d43005 	ldrb	r3, [r4, r5]
     3fc:	e353000d 	cmp	r3, #13	; 0xd
     400:	03a03000 	moveq	r3, #0	; 0x0
     404:	07c43005 	streqb	r3, [r4, r5]
		{
			*(cptr+i)='\0';			//once enter store '\0'
			break;				//come out of loop if enter
     408:	091ba830 	ldmeqdb	fp, {r4, r5, fp, sp, pc}
     40c:	e2855001 	add	r5, r5, #1	; 0x1
     410:	e3550063 	cmp	r5, #99	; 0x63
     414:	c91ba830 	ldmgtdb	fp, {r4, r5, fp, sp, pc}
     418:	eafffff4 	b	3f0 <uart0_rx_string+0x14>

0000041c <uart0_tx_num>:
		}
	}
}

void uart0_tx_num(unsigned int data)			//???????checkou on the range
{
     41c:	e1a0c00d 	mov	ip, sp
     420:	e92dd810 	stmdb	sp!, {r4, fp, ip, lr, pc}
     424:	e24cb004 	sub	fp, ip, #4	; 0x4
     428:	e24dd00c 	sub	sp, sp, #12	; 0xc
	unsigned char count[11],i;
	for(i=1;i<11;i++)
     42c:	e3a04001 	mov	r4, #1	; 0x1
	{
		count[i]=data%10;
     430:	e59f3064 	ldr	r3, [pc, #100]	; 49c <uart0_tx_num+0x80>
     434:	e0832390 	umull	r2, r3, r0, r3
     438:	e1a031a3 	mov	r3, r3, lsr #3
     43c:	e0832103 	add	r2, r3, r3, lsl #2
     440:	e24bc010 	sub	ip, fp, #16	; 0x10
     444:	e0402082 	sub	r2, r0, r2, lsl #1
		data=data/10;
		if(data==0)
     448:	e3530000 	cmp	r3, #0	; 0x0
     44c:	e1a00003 	mov	r0, r3
     450:	e08c3004 	add	r3, ip, r4
     454:	e2841001 	add	r1, r4, #1	; 0x1
     458:	e543200c 	strb	r2, [r3, -#12]
     45c:	0a000002 	beq	46c <uart0_tx_num+0x50>
     460:	e20140ff 	and	r4, r1, #255	; 0xff
     464:	e354000a 	cmp	r4, #10	; 0xa
     468:	9afffff0 	bls	430 <uart0_tx_num+0x14>
		{
		 break;
		}
	}	
	while(i!=0)
     46c:	e3540000 	cmp	r4, #0	; 0x0
     470:	091ba810 	ldmeqdb	fp, {r4, fp, sp, pc}
	{
	 uart0_tx_char(48+count[i]);
     474:	e24b2010 	sub	r2, fp, #16	; 0x10
     478:	e0823004 	add	r3, r2, r4
     47c:	e553000c 	ldrb	r0, [r3, -#12]
     480:	e2800030 	add	r0, r0, #48	; 0x30
     484:	e20000ff 	and	r0, r0, #255	; 0xff
     488:	ebffffb2 	bl	358 <uart0_tx_char>
		i--;
     48c:	e2443001 	sub	r3, r4, #1	; 0x1
     490:	e21340ff 	ands	r4, r3, #255	; 0xff
     494:	091ba810 	ldmeqdb	fp, {r4, fp, sp, pc}
     498:	eafffff5 	b	474 <uart0_tx_num+0x58>
     49c:	cccccccd 	stcgtl	12, cr12, [ip], #820

000004a0 <uart0_rx_num>:
	}	
}

int uart0_rx_num(void)
{
     4a0:	e1a0c00d 	mov	ip, sp
     4a4:	e92dd870 	stmdb	sp!, {r4, r5, r6, fp, ip, lr, pc}
     4a8:	e24cb004 	sub	fp, ip, #4	; 0x4
     4ac:	e24dd028 	sub	sp, sp, #40	; 0x28
	int i,no,mul=1;
     4b0:	e3a05001 	mov	r5, #1	; 0x1
	int arr[10],*iptr;

	iptr=arr;
     4b4:	e24b6040 	sub	r6, fp, #64	; 0x40
	
	for(i=0;i<10;i++)				//fro 100 char
     4b8:	e3a04000 	mov	r4, #0	; 0x0
	{
		*(iptr+i)=(uart0_rx_char()-48);		//rec a char
     4bc:	ebffffbc 	bl	3b4 <uart0_rx_char>
     4c0:	e20000ff 	and	r0, r0, #255	; 0xff
     4c4:	e2400030 	sub	r0, r0, #48	; 0x30
		
		if(*(iptr+i)==('\r'-48))				//first enter u check \r i.e till user enter \r receive
     4c8:	e3700023 	cmn	r0, #35	; 0x23
     4cc:	e7860104 	str	r0, [r6, r4, lsl #2]
     4d0:	0a000002 	beq	4e0 <uart0_rx_num+0x40>
     4d4:	e2844001 	add	r4, r4, #1	; 0x1
     4d8:	e3540009 	cmp	r4, #9	; 0x9
     4dc:	dafffff6 	ble	4bc <uart0_rx_num+0x1c>
		{
			break;				//come out of loop if enter
		}
	}
	
	i--;
     4e0:	e2444001 	sub	r4, r4, #1	; 0x1
	no=*(iptr+i);
     4e4:	e7960104 	ldr	r0, [r6, r4, lsl #2]

	i--;
	
	for(;i>=0;i--)
     4e8:	e2544001 	subs	r4, r4, #1	; 0x1
     4ec:	491ba870 	ldmmidb	fp, {r4, r5, r6, fp, sp, pc}
	{
		mul=mul*10;	
		no=no+mul*(*(iptr+i));
     4f0:	e7962104 	ldr	r2, [r6, r4, lsl #2]
     4f4:	e0853105 	add	r3, r5, r5, lsl #2
     4f8:	e1a05083 	mov	r5, r3, lsl #1
     4fc:	e2544001 	subs	r4, r4, #1	; 0x1
     500:	e0200592 	mla	r0, r2, r5, r0
	}

	return no;
}
     504:	491ba870 	ldmmidb	fp, {r4, r5, r6, fp, sp, pc}
     508:	eafffff8 	b	4f0 <uart0_rx_num+0x50>

0000050c <delay>:
#define LINE1	0x80
#define LINE2	0xC0

void delay(unsigned int i)
{
     50c:	e24dd008 	sub	sp, sp, #8	; 0x8
	volatile unsigned int j=0,k = 0;
     510:	e3a03000 	mov	r3, #0	; 0x0
     514:	e58d3004 	str	r3, [sp, #4]
     518:	e58d3000 	str	r3, [sp]
	for (j=0;j<i;j++)
     51c:	e58d3004 	str	r3, [sp, #4]
     520:	e59d3004 	ldr	r3, [sp, #4]
     524:	e1530000 	cmp	r3, r0
     528:	2a000011 	bcs	574 <delay+0x68>
		for (k=0;k<6000;k++);	// 
     52c:	e3a03000 	mov	r3, #0	; 0x0
     530:	e58d3000 	str	r3, [sp]
     534:	e59d3000 	ldr	r3, [sp]
     538:	e59f203c 	ldr	r2, [pc, #60]	; 57c <delay+0x70>
     53c:	e1530002 	cmp	r3, r2
     540:	8a000005 	bhi	55c <delay+0x50>
     544:	e59d3000 	ldr	r3, [sp]
     548:	e2833001 	add	r3, r3, #1	; 0x1
     54c:	e58d3000 	str	r3, [sp]
     550:	e59d3000 	ldr	r3, [sp]
     554:	e1530002 	cmp	r3, r2
     558:	9afffff9 	bls	544 <delay+0x38>
     55c:	e59d3004 	ldr	r3, [sp, #4]
     560:	e2833001 	add	r3, r3, #1	; 0x1
     564:	e58d3004 	str	r3, [sp, #4]
     568:	e59d3004 	ldr	r3, [sp, #4]
     56c:	e1530000 	cmp	r3, r0
     570:	3affffed 	bcc	52c <delay+0x20>
     574:	e28dd008 	add	sp, sp, #8	; 0x8
     578:	e1a0f00e 	mov	pc, lr
     57c:	0000176f 	andeq	r1, r0, pc, ror #14

00000580 <latch>:
}

void latch(void)
{
     580:	e1a0c00d 	mov	ip, sp
     584:	e92dd800 	stmdb	sp!, {fp, ip, lr, pc}
	delay(10);
     588:	e3a0000a 	mov	r0, #10	; 0xa
     58c:	e24cb004 	sub	fp, ip, #4	; 0x4
     590:	ebffffdd 	bl	50c <delay>
	IOSET1 |= (1 << LED_EN);	//LED_EN = 1
     594:	e59f2024 	ldr	r2, [pc, #36]	; 5c0 <latch+0x40>
     598:	e5923000 	ldr	r3, [r2]
     59c:	e3833501 	orr	r3, r3, #4194304	; 0x400000
     5a0:	e5823000 	str	r3, [r2]
	delay(10);
     5a4:	e3a0000a 	mov	r0, #10	; 0xa
     5a8:	ebffffd7 	bl	50c <delay>
	IOCLR1 |= (1 << LED_EN);
     5ac:	e59f2010 	ldr	r2, [pc, #16]	; 5c4 <latch+0x44>
     5b0:	e5923000 	ldr	r3, [r2]
     5b4:	e3833501 	orr	r3, r3, #4194304	; 0x400000
     5b8:	e5823000 	str	r3, [r2]
     5bc:	e91ba800 	ldmdb	fp, {fp, sp, pc}
     5c0:	e0028014 	and	r8, r2, r4, lsl r0
     5c4:	e002801c 	and	r8, r2, ip, lsl r0

000005c8 <lcd2148_cmd>:
}

void lcd2148_cmd(unsigned char cmd)
{
     5c8:	e1a0c00d 	mov	ip, sp
     5cc:	e92dd870 	stmdb	sp!, {r4, r5, r6, fp, ip, lr, pc}
	IOCLR1 |= (1 << LED_RW);		// RS = 0, command
     5d0:	e59f205c 	ldr	r2, [pc, #92]	; 634 <lcd2148_cmd+0x6c>
     5d4:	e5923000 	ldr	r3, [r2]
     5d8:	e3833401 	orr	r3, r3, #16777216	; 0x1000000
     5dc:	e5823000 	str	r3, [r2]

	IOCLR0 |= (0x0f << 10);
     5e0:	e59f5050 	ldr	r5, [pc, #80]	; 638 <lcd2148_cmd+0x70>
     5e4:	e5953000 	ldr	r3, [r5]
     5e8:	e3833b0f 	orr	r3, r3, #15360	; 0x3c00
	IOSET0 |= ((cmd & 0xf0) << 6);	// write higher nibble first
     5ec:	e59f6048 	ldr	r6, [pc, #72]	; 63c <lcd2148_cmd+0x74>
     5f0:	e5853000 	str	r3, [r5]
     5f4:	e5963000 	ldr	r3, [r6]
     5f8:	e20020f0 	and	r2, r0, #240	; 0xf0
     5fc:	e1833302 	orr	r3, r3, r2, lsl #6
     600:	e5863000 	str	r3, [r6]
     604:	e24cb004 	sub	fp, ip, #4	; 0x4
     608:	e1a04000 	mov	r4, r0
	latch();
     60c:	ebffffdb 	bl	580 <latch>

	IOCLR0 |= (0x0f << 10);
     610:	e5953000 	ldr	r3, [r5]
     614:	e3833b0f 	orr	r3, r3, #15360	; 0x3c00
     618:	e5853000 	str	r3, [r5]
	IOSET0 |= ((cmd & 0x0f) << 10);	// write lower nibble
     61c:	e5963000 	ldr	r3, [r6]
     620:	e204400f 	and	r4, r4, #15	; 0xf
     624:	e1833504 	orr	r3, r3, r4, lsl #10
     628:	e5863000 	str	r3, [r6]
	latch();
     62c:	e91b6870 	ldmdb	fp, {r4, r5, r6, fp, sp, lr}
     630:	eaffffd2 	b	580 <latch>
     634:	e002801c 	and	r8, r2, ip, lsl r0
     638:	e002800c 	and	r8, r2, ip
     63c:	e0028004 	and	r8, r2, r4

00000640 <lcd2148_data>:
}

void lcd2148_data(unsigned char data)
{
     640:	e1a0c00d 	mov	ip, sp
     644:	e92dd870 	stmdb	sp!, {r4, r5, r6, fp, ip, lr, pc}
	IOSET1 |= (1 << LED_RW);		// RS = 1, data
     648:	e59f205c 	ldr	r2, [pc, #92]	; 6ac <lcd2148_data+0x6c>
     64c:	e5923000 	ldr	r3, [r2]
     650:	e3833401 	orr	r3, r3, #16777216	; 0x1000000
     654:	e5823000 	str	r3, [r2]

	IOCLR0 |= (0x0f << 10);
     658:	e59f5050 	ldr	r5, [pc, #80]	; 6b0 <lcd2148_data+0x70>
     65c:	e5953000 	ldr	r3, [r5]
     660:	e3833b0f 	orr	r3, r3, #15360	; 0x3c00
	IOSET0 |= ((data & 0xf0) << 6);	// write higher nibble first
     664:	e59f6048 	ldr	r6, [pc, #72]	; 6b4 <lcd2148_data+0x74>
     668:	e5853000 	str	r3, [r5]
     66c:	e5963000 	ldr	r3, [r6]
     670:	e20020f0 	and	r2, r0, #240	; 0xf0
     674:	e1833302 	orr	r3, r3, r2, lsl #6
     678:	e5863000 	str	r3, [r6]
     67c:	e24cb004 	sub	fp, ip, #4	; 0x4
     680:	e1a04000 	mov	r4, r0
	latch();
     684:	ebffffbd 	bl	580 <latch>

	IOCLR0 |= (0x0f << 10);
     688:	e5953000 	ldr	r3, [r5]
     68c:	e3833b0f 	orr	r3, r3, #15360	; 0x3c00
     690:	e5853000 	str	r3, [r5]
	IOSET0 |= ((data & 0x0f) << 10);	// write lower nibble
     694:	e5963000 	ldr	r3, [r6]
     698:	e204400f 	and	r4, r4, #15	; 0xf
     69c:	e1833504 	orr	r3, r3, r4, lsl #10
     6a0:	e5863000 	str	r3, [r6]
	latch();
     6a4:	e91b6870 	ldmdb	fp, {r4, r5, r6, fp, sp, lr}
     6a8:	eaffffb4 	b	580 <latch>
     6ac:	e0028014 	and	r8, r2, r4, lsl r0
     6b0:	e002800c 	and	r8, r2, ip
     6b4:	e0028004 	and	r8, r2, r4

000006b8 <lcd2148_init>:
}

void lcd2148_init(void)
{	 /* D7-D4 : P0.13-P0.10 
     6b8:	e1a0c00d 	mov	ip, sp
     6bc:	e92dd830 	stmdb	sp!, {r4, r5, fp, ip, lr, pc}
		EN_LCD P1.LED_EN
		R/W_LCD P1.LED_RS
		RS_LCD P1.LED_RW  */
	PINSEL0 &= ~(0xff << 20);
     6c0:	e59f2114 	ldr	r2, [pc, #276]	; 7dc <lcd2148_init+0x124>
     6c4:	e5923000 	ldr	r3, [r2]
     6c8:	e3c336ff 	bic	r3, r3, #267386880	; 0xff00000
     6cc:	e5823000 	str	r3, [r2]
	PINSEL2 &= ~(1 << 3);
     6d0:	e59f2108 	ldr	r2, [pc, #264]	; 7e0 <lcd2148_init+0x128>
     6d4:	e5923000 	ldr	r3, [r2]
     6d8:	e3c33008 	bic	r3, r3, #8	; 0x8
     6dc:	e5823000 	str	r3, [r2]
	IODIR0 |= (0xf << 10);		// data outputs
     6e0:	e59f20fc 	ldr	r2, [pc, #252]	; 7e4 <lcd2148_init+0x12c>
     6e4:	e5923000 	ldr	r3, [r2]
     6e8:	e3833b0f 	orr	r3, r3, #15360	; 0x3c00
     6ec:	e5823000 	str	r3, [r2]
	IODIR1 |= (7 << LED_EN);		// control outputs
     6f0:	e59f20f0 	ldr	r2, [pc, #240]	; 7e8 <lcd2148_init+0x130>
     6f4:	e5923000 	ldr	r3, [r2]
     6f8:	e3833507 	orr	r3, r3, #29360128	; 0x1c00000
	IOCLR0 |= 0x00003c00;		// clearing port pins
     6fc:	e59f50e8 	ldr	r5, [pc, #232]	; 7ec <lcd2148_init+0x134>
     700:	e5823000 	str	r3, [r2]
     704:	e5953000 	ldr	r3, [r5]
     708:	e3833b0f 	orr	r3, r3, #15360	; 0x3c00

	IOCLR1 |= (1 <<LED_EN)|(1 << LED_RS)|(1 << LED_RW);	// select RS=0 i.e. command mode, R/W = 0, EN =0
     70c:	e59f20dc 	ldr	r2, [pc, #220]	; 7f0 <lcd2148_init+0x138>
     710:	e5853000 	str	r3, [r5]
     714:	e5923000 	ldr	r3, [r2]
     718:	e3833507 	orr	r3, r3, #29360128	; 0x1c00000
     71c:	e5823000 	str	r3, [r2]
     720:	e24cb004 	sub	fp, ip, #4	; 0x4
	delay(100);
     724:	e3a00064 	mov	r0, #100	; 0x64
     728:	ebffff77 	bl	50c <delay>
	IOCLR0 |= (0xf << 10);
     72c:	e5953000 	ldr	r3, [r5]
     730:	e3833b0f 	orr	r3, r3, #15360	; 0x3c00
	IOSET0 |= (3 << 10);		// cmd(0x30)
     734:	e59f40b8 	ldr	r4, [pc, #184]	; 7f4 <lcd2148_init+0x13c>
     738:	e5853000 	str	r3, [r5]
     73c:	e5943000 	ldr	r3, [r4]
     740:	e3833b03 	orr	r3, r3, #3072	; 0xc00
     744:	e5843000 	str	r3, [r4]
	latch();					//LED_EN pulse
     748:	ebffff8c 	bl	580 <latch>

	delay(5);
     74c:	e3a00005 	mov	r0, #5	; 0x5
     750:	ebffff6d 	bl	50c <delay>
	IOCLR0 |= (0xf << 10);
     754:	e5953000 	ldr	r3, [r5]
     758:	e3833b0f 	orr	r3, r3, #15360	; 0x3c00
     75c:	e5853000 	str	r3, [r5]
	IOSET0 |= (3 << 10);		// cmd(0x30)
     760:	e5943000 	ldr	r3, [r4]
     764:	e3833b03 	orr	r3, r3, #3072	; 0xc00
     768:	e5843000 	str	r3, [r4]
	latch();					//LED_EN pulse
     76c:	ebffff83 	bl	580 <latch>

	delay(1);
     770:	e3a00001 	mov	r0, #1	; 0x1
     774:	ebffff64 	bl	50c <delay>
	IOCLR0 |= (0xf << 10);
     778:	e5953000 	ldr	r3, [r5]
     77c:	e3833b0f 	orr	r3, r3, #15360	; 0x3c00
     780:	e5853000 	str	r3, [r5]
	IOSET0 |= (3 << 10);		// cmd(0x30)
     784:	e5943000 	ldr	r3, [r4]
     788:	e3833b03 	orr	r3, r3, #3072	; 0xc00
     78c:	e5843000 	str	r3, [r4]
	latch();					//LED_EN pulse
     790:	ebffff7a 	bl	580 <latch>

	IOCLR0 |= (0xf << 10);
     794:	e5953000 	ldr	r3, [r5]
     798:	e3833b0f 	orr	r3, r3, #15360	; 0x3c00
     79c:	e5853000 	str	r3, [r5]
	IOSET0 |= (2 << 10);		// cmd(0x20), 4-bit mode
     7a0:	e5943000 	ldr	r3, [r4]
     7a4:	e3833b02 	orr	r3, r3, #2048	; 0x800
     7a8:	e5843000 	str	r3, [r4]
	latch();					//LED_EN pulse
     7ac:	ebffff73 	bl	580 <latch>

	lcd2148_cmd(0x28);			// 2 line display, 5x8 display
     7b0:	e3a00028 	mov	r0, #40	; 0x28
     7b4:	ebffff83 	bl	5c8 <lcd2148_cmd>
	lcd2148_cmd(0x0f);			// display ON, cursor ON, blink ON
     7b8:	e3a0000f 	mov	r0, #15	; 0xf
     7bc:	ebffff81 	bl	5c8 <lcd2148_cmd>
	lcd2148_cmd(0x01);			// clear display
     7c0:	e3a00001 	mov	r0, #1	; 0x1
     7c4:	ebffff7f 	bl	5c8 <lcd2148_cmd>
	lcd2148_cmd(0x02);			// cursor home
     7c8:	e3a00002 	mov	r0, #2	; 0x2
     7cc:	ebffff7d 	bl	5c8 <lcd2148_cmd>
	lcd2148_cmd(0x06);			// increment cursor by 1, no shift
     7d0:	e3a00006 	mov	r0, #6	; 0x6
     7d4:	e91b6830 	ldmdb	fp, {r4, r5, fp, sp, lr}
     7d8:	eaffff7a 	b	5c8 <lcd2148_cmd>
     7dc:	e002c000 	and	ip, r2, r0
     7e0:	e002c014 	and	ip, r2, r4, lsl r0
     7e4:	e0028008 	and	r8, r2, r8
     7e8:	e0028018 	and	r8, r2, r8, lsl r0
     7ec:	e002800c 	and	r8, r2, ip
     7f0:	e002801c 	and	r8, r2, ip, lsl r0
     7f4:	e0028004 	and	r8, r2, r4

000007f8 <lcd_string>:

}

void lcd_string(unsigned char str[32])
{
     7f8:	e1a0c00d 	mov	ip, sp
     7fc:	e92dd8f0 	stmdb	sp!, {r4, r5, r6, r7, fp, ip, lr, pc}
	unsigned char k=0;
	IOCLR1 |= (1 <<LED_EN)|(1 << LED_RS)|(1 << LED_RW);
     800:	e59f30a4 	ldr	r3, [pc, #164]	; 8ac <lcd_string+0xb4>
     804:	e5932000 	ldr	r2, [r3]
     808:	e3822507 	orr	r2, r2, #29360128	; 0x1c00000
     80c:	e5832000 	str	r2, [r3]
	while(str[k]!='\0')	//Till null character is encountered
     810:	e5d03000 	ldrb	r3, [r0]
     814:	e3530000 	cmp	r3, #0	; 0x0
     818:	e24cb004 	sub	fp, ip, #4	; 0x4
     81c:	e1a04000 	mov	r4, r0
     820:	e3a06000 	mov	r6, #0	; 0x0
     824:	091ba8f0 	ldmeqdb	fp, {r4, r5, r6, r7, fp, sp, pc}
		{
			if(k==16)
     828:	e3560010 	cmp	r6, #16	; 0x10
     82c:	e59f507c 	ldr	r5, [pc, #124]	; 8b0 <lcd_string+0xb8>
     830:	e59f707c 	ldr	r7, [pc, #124]	; 8b4 <lcd_string+0xbc>
     834:	e3a000c0 	mov	r0, #192	; 0xc0
				lcd2148_cmd(LINE2);
     838:	0bffff62 	bleq	5c8 <lcd2148_cmd>
		IOSET1 |= (1 << LED_RW);		// RS = 1, data
     83c:	e59f2074 	ldr	r2, [pc, #116]	; 8b8 <lcd_string+0xc0>
     840:	e5923000 	ldr	r3, [r2]
     844:	e3833401 	orr	r3, r3, #16777216	; 0x1000000
     848:	e5823000 	str	r3, [r2]

		IOCLR0 |= (0x0f << 10);
     84c:	e5953000 	ldr	r3, [r5]
     850:	e3833b0f 	orr	r3, r3, #15360	; 0x3c00
     854:	e5853000 	str	r3, [r5]
		IOSET0 |= ((str[k] & 0xf0) << 6);	// write higher nibble first
     858:	e7d43006 	ldrb	r3, [r4, r6]
     85c:	e5972000 	ldr	r2, [r7]
     860:	e20330f0 	and	r3, r3, #240	; 0xf0
     864:	e1822303 	orr	r2, r2, r3, lsl #6
     868:	e5872000 	str	r2, [r7]
		latch();
     86c:	ebffff43 	bl	580 <latch>

		IOCLR0 |= (0x0f << 10);
     870:	e5953000 	ldr	r3, [r5]
     874:	e3833b0f 	orr	r3, r3, #15360	; 0x3c00
     878:	e5853000 	str	r3, [r5]
		IOSET0 |= ((str[k]& 0x0f) << 10);	// write lower nibble
     87c:	e7d43006 	ldrb	r3, [r4, r6]
     880:	e5972000 	ldr	r2, [r7]
     884:	e203300f 	and	r3, r3, #15	; 0xf
     888:	e1822503 	orr	r2, r2, r3, lsl #10
     88c:	e5872000 	str	r2, [r7]
		latch();
     890:	ebffff3a 	bl	580 <latch>
		k++;
     894:	e2863001 	add	r3, r6, #1	; 0x1
     898:	e20360ff 	and	r6, r3, #255	; 0xff
     89c:	e7d43006 	ldrb	r3, [r4, r6]
     8a0:	e3530000 	cmp	r3, #0	; 0x0
     8a4:	091ba8f0 	ldmeqdb	fp, {r4, r5, r6, r7, fp, sp, pc}
     8a8:	eaffffde 	b	828 <lcd_string+0x30>
     8ac:	e002801c 	and	r8, r2, ip, lsl r0
     8b0:	e002800c 	and	r8, r2, ip
     8b4:	e0028004 	and	r8, r2, r4
     8b8:	e0028014 	and	r8, r2, r4, lsl r0

000008bc <lcd_showvalue>:
		}
}

void lcd_showvalue(unsigned char num)	//prints the decimal 3digit value of num
{
     8bc:	e1a0c00d 	mov	ip, sp
	unsigned char H=0,T=0,O=0;
	H=num/100;
     8c0:	e59f3070 	ldr	r3, [pc, #112]	; 938 <lcd_showvalue+0x7c>
     8c4:	e92dd830 	stmdb	sp!, {r4, r5, fp, ip, lr, pc}
     8c8:	e20050ff 	and	r5, r0, #255	; 0xff
     8cc:	e0802593 	umull	r2, r0, r3, r5
     8d0:	e1a002a0 	mov	r0, r0, lsr #5
     8d4:	e20000ff 	and	r0, r0, #255	; 0xff
	T=(num - (H*100))/10;
     8d8:	e0803100 	add	r3, r0, r0, lsl #2
     8dc:	e0833103 	add	r3, r3, r3, lsl #2
     8e0:	e0455103 	sub	r5, r5, r3, lsl #2
     8e4:	e59f3050 	ldr	r3, [pc, #80]	; 93c <lcd_showvalue+0x80>
     8e8:	e0c32395 	smull	r2, r3, r5, r3
     8ec:	e1a04fc5 	mov	r4, r5, asr #31
     8f0:	e0644143 	rsb	r4, r4, r3, asr #2
     8f4:	e20440ff 	and	r4, r4, #255	; 0xff
	O=(num - (H*100) - (T*10));
     8f8:	e0843104 	add	r3, r4, r4, lsl #2
	
	lcd2148_data(H+48);
     8fc:	e2800030 	add	r0, r0, #48	; 0x30
	lcd2148_data(T+48);
     900:	e2844030 	add	r4, r4, #48	; 0x30
     904:	e24cb004 	sub	fp, ip, #4	; 0x4
     908:	e20000ff 	and	r0, r0, #255	; 0xff
     90c:	e20440ff 	and	r4, r4, #255	; 0xff
     910:	e0455083 	sub	r5, r5, r3, lsl #1
     914:	ebffff49 	bl	640 <lcd2148_data>
     918:	e1a00004 	mov	r0, r4
     91c:	ebffff47 	bl	640 <lcd2148_data>
     920:	e20550ff 	and	r5, r5, #255	; 0xff
	lcd2148_data(O+48);
     924:	e2855030 	add	r5, r5, #48	; 0x30
     928:	e20550ff 	and	r5, r5, #255	; 0xff
     92c:	e1a00005 	mov	r0, r5
     930:	e91b6830 	ldmdb	fp, {r4, r5, fp, sp, lr}
     934:	eaffff41 	b	640 <lcd2148_data>
     938:	51eb851f 	mvnpl	r8, pc, lsl r5
     93c:	66666667 	strvsbt	r6, [r6], -r7, ror #12

00000940 <lcd_gotoxy1>:
}

void lcd_gotoxy1(unsigned char pos)
{
	lcd2148_cmd(LINE1+pos);
     940:	e2400080 	sub	r0, r0, #128	; 0x80
     944:	e20000ff 	and	r0, r0, #255	; 0xff
     948:	eaffff1e 	b	5c8 <lcd2148_cmd>

0000094c <lcd_gotoxy2>:
}

void lcd_gotoxy2(unsigned char pos)
{
	lcd2148_cmd(LINE2+pos);
     94c:	e2400040 	sub	r0, r0, #64	; 0x40
     950:	e20000ff 	and	r0, r0, #255	; 0xff
     954:	eaffff1b 	b	5c8 <lcd2148_cmd>

00000958 <RTC_init>:
#define year  2012
*/
void RTC_init()
{
CCR=0x11;
     958:	e59f3008 	ldr	r3, [pc, #8]	; 968 <RTC_init+0x10>
     95c:	e3a02011 	mov	r2, #17	; 0x11
     960:	e5832000 	str	r2, [r3]
     964:	e1a0f00e 	mov	pc, lr
     968:	e0024008 	and	r4, r2, r8

0000096c <RTC_write>:
//CIIR|=(1<<0)|(1<<1)|(1<<2);
}

void RTC_write()
{
SEC  = sec  & 0x3f;
     96c:	e59f30a4 	ldr	r3, [pc, #164]	; a18 <RTC_write+0xac>
     970:	e5933000 	ldr	r3, [r3]
     974:	e59f20a0 	ldr	r2, [pc, #160]	; a1c <RTC_write+0xb0>
     978:	e203303f 	and	r3, r3, #63	; 0x3f
     97c:	e5823000 	str	r3, [r2]
MIN  = min  & 0x3f;
     980:	e59f3098 	ldr	r3, [pc, #152]	; a20 <RTC_write+0xb4>
     984:	e5933000 	ldr	r3, [r3]
     988:	e59f2094 	ldr	r2, [pc, #148]	; a24 <RTC_write+0xb8>
     98c:	e203303f 	and	r3, r3, #63	; 0x3f
     990:	e5823000 	str	r3, [r2]
HOUR = hour & 0x1f;
     994:	e59f308c 	ldr	r3, [pc, #140]	; a28 <RTC_write+0xbc>
     998:	e5933000 	ldr	r3, [r3]
     99c:	e59f2088 	ldr	r2, [pc, #136]	; a2c <RTC_write+0xc0>
     9a0:	e203301f 	and	r3, r3, #31	; 0x1f
     9a4:	e5823000 	str	r3, [r2]
DOM  = day  & 0x1f;
     9a8:	e59f3080 	ldr	r3, [pc, #128]	; a30 <RTC_write+0xc4>
     9ac:	e5933000 	ldr	r3, [r3]
     9b0:	e59f207c 	ldr	r2, [pc, #124]	; a34 <RTC_write+0xc8>
     9b4:	e203301f 	and	r3, r3, #31	; 0x1f
     9b8:	e5823000 	str	r3, [r2]
MONTH= month& 0x0f;
     9bc:	e59f3074 	ldr	r3, [pc, #116]	; a38 <RTC_write+0xcc>
     9c0:	e5933000 	ldr	r3, [r3]
     9c4:	e59f2070 	ldr	r2, [pc, #112]	; a3c <RTC_write+0xd0>
     9c8:	e203300f 	and	r3, r3, #15	; 0xf
     9cc:	e5823000 	str	r3, [r2]
YEAR = year & 0x0fff;
     9d0:	e59f3068 	ldr	r3, [pc, #104]	; a40 <RTC_write+0xd4>
     9d4:	e5933000 	ldr	r3, [r3]
     9d8:	e59f2064 	ldr	r2, [pc, #100]	; a44 <RTC_write+0xd8>
     9dc:	e1a03a03 	mov	r3, r3, lsl #20
     9e0:	e1a03a23 	mov	r3, r3, lsr #20
     9e4:	e5823000 	str	r3, [r2]
DOW  = dow  & 0x07;
     9e8:	e59f3058 	ldr	r3, [pc, #88]	; a48 <RTC_write+0xdc>
     9ec:	e5933000 	ldr	r3, [r3]
     9f0:	e59f2054 	ldr	r2, [pc, #84]	; a4c <RTC_write+0xe0>
     9f4:	e2033007 	and	r3, r3, #7	; 0x7
     9f8:	e5823000 	str	r3, [r2]
DOY  = doy  & 0x01ff;
     9fc:	e59f304c 	ldr	r3, [pc, #76]	; a50 <RTC_write+0xe4>
     a00:	e5933000 	ldr	r3, [r3]
     a04:	e59f2048 	ldr	r2, [pc, #72]	; a54 <RTC_write+0xe8>
     a08:	e1a03b83 	mov	r3, r3, lsl #23
     a0c:	e1a03ba3 	mov	r3, r3, lsr #23
     a10:	e5823000 	str	r3, [r2]
     a14:	e1a0f00e 	mov	pc, lr
     a18:	400007e4 	andmi	r0, r0, r4, ror #15
     a1c:	e0024020 	and	r4, r2, r0, lsr #32
     a20:	40000000 	andmi	r0, r0, r0
     a24:	e0024024 	and	r4, r2, r4, lsr #32
     a28:	40000004 	andmi	r0, r0, r4
     a2c:	e0024028 	and	r4, r2, r8, lsr #32
     a30:	40000008 	andmi	r0, r0, r8
     a34:	e002402c 	and	r4, r2, ip, lsr #32
     a38:	4000000c 	andmi	r0, r0, ip
     a3c:	e0024038 	and	r4, r2, r8, lsr r0
     a40:	40000010 	andmi	r0, r0, r0, lsl r0
     a44:	e002403c 	and	r4, r2, ip, lsr r0
     a48:	40000014 	andmi	r0, r0, r4, lsl r0
     a4c:	e0024030 	and	r4, r2, r0, lsr r0
     a50:	40000018 	andmi	r0, r0, r8, lsl r0
     a54:	e0024034 	and	r4, r2, r4, lsr r0

00000a58 <RTC_read_sec>:
}

unsigned int RTC_read_sec()
{
return (CTIME0&0X3F);
     a58:	e59f3008 	ldr	r3, [pc, #8]	; a68 <RTC_read_sec+0x10>
     a5c:	e5930000 	ldr	r0, [r3]
     a60:	e200003f 	and	r0, r0, #63	; 0x3f
}
     a64:	e1a0f00e 	mov	pc, lr
     a68:	e0024014 	and	r4, r2, r4, lsl r0

00000a6c <RTC_read_min>:
unsigned int RTC_read_min()
{
return ((CTIME0&0X3F00)>>8);
     a6c:	e59f300c 	ldr	r3, [pc, #12]	; a80 <RTC_read_min+0x14>
     a70:	e5930000 	ldr	r0, [r3]
     a74:	e2000c3f 	and	r0, r0, #16128	; 0x3f00
     a78:	e1a00420 	mov	r0, r0, lsr #8
}
     a7c:	e1a0f00e 	mov	pc, lr
     a80:	e0024014 	and	r4, r2, r4, lsl r0

00000a84 <RTC_read_hour>:
unsigned int RTC_read_hour()
{
return ((CTIME0&0X1F0000)>>16);
     a84:	e59f300c 	ldr	r3, [pc, #12]	; a98 <RTC_read_hour+0x14>
     a88:	e5930000 	ldr	r0, [r3]
     a8c:	e200081f 	and	r0, r0, #2031616	; 0x1f0000
     a90:	e1a00820 	mov	r0, r0, lsr #16
}
     a94:	e1a0f00e 	mov	pc, lr
     a98:	e0024014 	and	r4, r2, r4, lsl r0

00000a9c <RTC_read_day>:

unsigned int RTC_read_day()
{
return (CTIME1&0X3F);
     a9c:	e59f3008 	ldr	r3, [pc, #8]	; aac <RTC_read_day+0x10>
     aa0:	e5930000 	ldr	r0, [r3]
     aa4:	e200003f 	and	r0, r0, #63	; 0x3f
}
     aa8:	e1a0f00e 	mov	pc, lr
     aac:	e0024018 	and	r4, r2, r8, lsl r0

00000ab0 <RTC_read_month>:
unsigned int RTC_read_month()
{
return ((CTIME1&0X0F00)>>8);
     ab0:	e59f300c 	ldr	r3, [pc, #12]	; ac4 <RTC_read_month+0x14>
     ab4:	e5930000 	ldr	r0, [r3]
     ab8:	e2000c0f 	and	r0, r0, #3840	; 0xf00
     abc:	e1a00420 	mov	r0, r0, lsr #8
}
     ac0:	e1a0f00e 	mov	pc, lr
     ac4:	e0024018 	and	r4, r2, r8, lsl r0

00000ac8 <RTC_read_year>:
unsigned int RTC_read_year()
{
return ((CTIME1&0X0FFF0000)>>16);
     ac8:	e59f3010 	ldr	r3, [pc, #16]	; ae0 <RTC_read_year+0x18>
     acc:	e59f0010 	ldr	r0, [pc, #16]	; ae4 <RTC_read_year+0x1c>
     ad0:	e5933000 	ldr	r3, [r3]
     ad4:	e0030000 	and	r0, r3, r0
     ad8:	e1a00820 	mov	r0, r0, lsr #16
}
     adc:	e1a0f00e 	mov	pc, lr
     ae0:	e0024018 	and	r4, r2, r8, lsl r0
     ae4:	0fff0000 	swieq	0x00ff0000

00000ae8 <RTC_read_dow>:
unsigned int RTC_read_dow()
{
return ((CTIME0&0X07000000)>>24);
     ae8:	e59f300c 	ldr	r3, [pc, #12]	; afc <RTC_read_dow+0x14>
     aec:	e5930000 	ldr	r0, [r3]
     af0:	e2000407 	and	r0, r0, #117440512	; 0x7000000
     af4:	e1a00c20 	mov	r0, r0, lsr #24
}
     af8:	e1a0f00e 	mov	pc, lr
     afc:	e0024014 	and	r4, r2, r4, lsl r0

00000b00 <RTC_read_doy>:
unsigned int RTC_read_doy()
{
return (CTIME2&0X01FF);
     b00:	e59f300c 	ldr	r3, [pc, #12]	; b14 <RTC_read_doy+0x14>
     b04:	e5930000 	ldr	r0, [r3]
     b08:	e1a00b80 	mov	r0, r0, lsl #23
     b0c:	e1a00ba0 	mov	r0, r0, lsr #23
}
     b10:	e1a0f00e 	mov	pc, lr
     b14:	e002401c 	and	r4, r2, ip, lsl r0

00000b18 <alarm_start>:

void alarm_start()
{
	CIIR=0x00;
     b18:	e59f2020 	ldr	r2, [pc, #32]	; b40 <alarm_start+0x28>
     b1c:	e3a03000 	mov	r3, #0	; 0x0
     b20:	e5823000 	str	r3, [r2]
	ILR=0x1;			
     b24:	e59f3018 	ldr	r3, [pc, #24]	; b44 <alarm_start+0x2c>
     b28:	e3a01001 	mov	r1, #1	; 0x1
     b2c:	e5831000 	str	r1, [r3]
	CIIR|=(1<<0);
     b30:	e5923000 	ldr	r3, [r2]
     b34:	e1833001 	orr	r3, r3, r1
     b38:	e5823000 	str	r3, [r2]
     b3c:	e1a0f00e 	mov	pc, lr
     b40:	e002400c 	and	r4, r2, ip
     b44:	e0024000 	and	r4, r2, r0

00000b48 <alarm_stop>:
}

void alarm_stop(unsigned int value)
{
ILR|=0x2;
     b48:	e59f2024 	ldr	r2, [pc, #36]	; b74 <alarm_stop+0x2c>
     b4c:	e5923000 	ldr	r3, [r2]
     b50:	e3833002 	orr	r3, r3, #2	; 0x2
     b54:	e5823000 	str	r3, [r2]
	ALSEC=value;
     b58:	e59f3018 	ldr	r3, [pc, #24]	; b78 <alarm_stop+0x30>
	AMR&=~(1<<0);
     b5c:	e59f2018 	ldr	r2, [pc, #24]	; b7c <alarm_stop+0x34>
     b60:	e5830000 	str	r0, [r3]
     b64:	e5923000 	ldr	r3, [r2]
     b68:	e3c33001 	bic	r3, r3, #1	; 0x1
     b6c:	e5823000 	str	r3, [r2]
     b70:	e1a0f00e 	mov	pc, lr
     b74:	e0024000 	and	r4, r2, r0
     b78:	e0024060 	and	r4, r2, r0, rrx
     b7c:	e0024010 	and	r4, r2, r0, lsl r0

00000b80 <timer_init>:

#include"LPC214x.h"
void timer_init(void)
{
T0TCR|=(1<<1);               //reset TC an PC
     b80:	e59f104c 	ldr	r1, [pc, #76]	; bd4 <timer_init+0x54>
     b84:	e5913000 	ldr	r3, [r1]
     b88:	e3833002 	orr	r3, r3, #2	; 0x2
     b8c:	e5813000 	str	r3, [r1]
T0CTCR=0X00;                 //select timer mode
     b90:	e59f3040 	ldr	r3, [pc, #64]	; bd8 <timer_init+0x58>
     b94:	e3a02000 	mov	r2, #0	; 0x0
     b98:	e5832000 	str	r2, [r3]
T0PR=60;                     //set prescale value to 60 (not fixed just used for simplification)
     b9c:	e59f3038 	ldr	r3, [pc, #56]	; bdc <timer_init+0x5c>
     ba0:	e3a0203c 	mov	r2, #60	; 0x3c
     ba4:	e5832000 	str	r2, [r3]
T0MR0=1000000;               //60Mhz/60=1Mhz , 1/1Mhz=1usec,for 1 sec delay 1sec/1usec=10000 clock               
     ba8:	e59f2030 	ldr	r2, [pc, #48]	; be0 <timer_init+0x60>
     bac:	e59f3030 	ldr	r3, [pc, #48]	; be4 <timer_init+0x64>
     bb0:	e5832000 	str	r2, [r3]
T0MCR=0X3;                   //generate an interrupt on match & TC tO 00
     bb4:	e59f302c 	ldr	r3, [pc, #44]	; be8 <timer_init+0x68>
     bb8:	e3a02003 	mov	r2, #3	; 0x3
     bbc:	e5832000 	str	r2, [r3]
T0TCR=0X1;                   //start the timer
T0IR=0x1;
     bc0:	e59f3024 	ldr	r3, [pc, #36]	; bec <timer_init+0x6c>
     bc4:	e3a00001 	mov	r0, #1	; 0x1
     bc8:	e5810000 	str	r0, [r1]
     bcc:	e5830000 	str	r0, [r3]
     bd0:	e1a0f00e 	mov	pc, lr
     bd4:	e0004004 	and	r4, r0, r4
     bd8:	e0004070 	and	r4, r0, r0, ror r0
     bdc:	e000400c 	and	r4, r0, ip
     be0:	000f4240 	andeq	r4, pc, r0, asr #4
     be4:	e0004018 	and	r4, r0, r8, lsl r0
     be8:	e0004014 	and	r4, r0, r4, lsl r0
     bec:	e0004000 	and	r4, r0, r0

00000bf0 <main>:
volatile unsigned int secover_Intflag = 0;
volatile unsigned int sec1,min1,hour1,day1,month1,year1,dow1,doy1,mystr[100];

int main()
{
     bf0:	e1a0c00d 	mov	ip, sp
     bf4:	e92ddff0 	stmdb	sp!, {r4, r5, r6, r7, r8, r9, sl, fp, ip, lr, pc}
     bf8:	e24cb004 	sub	fp, ip, #4	; 0x4
     bfc:	e24dd018 	sub	sp, sp, #24	; 0x18


sys_init();
     c00:	ebfffd58 	bl	168 <sys_init>
uart0_init(9600);
     c04:	e3a00d96 	mov	r0, #9600	; 0x2580
     c08:	ebfffdb0 	bl	2d0 <uart0_init>
timer_init();
     c0c:	ebffffdb 	bl	b80 <timer_init>
PINSEL2&=~(1<<3); // to select the bit 1.25 of port1
     c10:	e59f218c 	ldr	r2, [pc, #396]	; da4 <main+0x1b4>
     c14:	e5923000 	ldr	r3, [r2]
     c18:	e3c33008 	bic	r3, r3, #8	; 0x8
     c1c:	e5823000 	str	r3, [r2]
IODIR1 |=(1<<25); // SET THE 25th pin
     c20:	e59f2180 	ldr	r2, [pc, #384]	; da8 <main+0x1b8>
     c24:	e5923000 	ldr	r3, [r2]
     c28:	e3833402 	orr	r3, r3, #33554432	; 0x2000000
     c2c:	e5823000 	str	r3, [r2]
IOSET1 |=(1<<25); // BUZZER OFF
     c30:	e59f2174 	ldr	r2, [pc, #372]	; dac <main+0x1bc>
     c34:	e5923000 	ldr	r3, [r2]
     c38:	e3833402 	orr	r3, r3, #33554432	; 0x2000000
     c3c:	e5823000 	str	r3, [r2]
VICVectAddr1 = (unsigned int)Timer0_Isr; 
     c40:	e59f2168 	ldr	r2, [pc, #360]	; db0 <main+0x1c0>
     c44:	e59f3168 	ldr	r3, [pc, #360]	; db4 <main+0x1c4>
     c48:	e5832000 	str	r2, [r3]
	VICVectCntl1 |= 0x20 | 0x4; 
     c4c:	e59f2164 	ldr	r2, [pc, #356]	; db8 <main+0x1c8>
     c50:	e5923000 	ldr	r3, [r2]
     c54:	e3833024 	orr	r3, r3, #36	; 0x24
     c58:	e5823000 	str	r3, [r2]
	VICIntEnable |= 0x00000010;
     c5c:	e59f2158 	ldr	r2, [pc, #344]	; dbc <main+0x1cc>
     c60:	e5923000 	ldr	r3, [r2]
     c64:	e3833010 	orr	r3, r3, #16	; 0x10
     c68:	e5823000 	str	r3, [r2]

RTC_write();
     c6c:	ebffff3e 	bl	96c <RTC_write>
alarm_start();
     c70:	ebffffa8 	bl	b18 <alarm_start>
alarm_stop(3);
     c74:	e3a00003 	mov	r0, #3	; 0x3
     c78:	ebffffb2 	bl	b48 <alarm_stop>
RTC_init();
     c7c:	ebffff35 	bl	958 <RTC_init>
 enableIRQ();
     c80:	ebfffd66 	bl	220 <enableIRQ>
while(1)
{
sec1=RTC_read_sec();
     c84:	ebffff73 	bl	a58 <RTC_read_sec>
     c88:	e59f3130 	ldr	r3, [pc, #304]	; dc0 <main+0x1d0>
     c8c:	e5830000 	str	r0, [r3]

min1=RTC_read_min();
     c90:	ebffff75 	bl	a6c <RTC_read_min>
     c94:	e59f9128 	ldr	r9, [pc, #296]	; dc4 <main+0x1d4>
     c98:	e5890000 	str	r0, [r9]

hour1=RTC_read_hour();
     c9c:	ebffff78 	bl	a84 <RTC_read_hour>
     ca0:	e59f7120 	ldr	r7, [pc, #288]	; dc8 <main+0x1d8>
     ca4:	e5870000 	str	r0, [r7]

day1=RTC_read_day();
     ca8:	ebffff7b 	bl	a9c <RTC_read_day>
     cac:	e59fa118 	ldr	sl, [pc, #280]	; dcc <main+0x1dc>
     cb0:	e58a0000 	str	r0, [sl]

month1=RTC_read_month();
     cb4:	ebffff7d 	bl	ab0 <RTC_read_month>
     cb8:	e59f8110 	ldr	r8, [pc, #272]	; dd0 <main+0x1e0>
     cbc:	e5880000 	str	r0, [r8]

year1=RTC_read_year();
     cc0:	ebffff80 	bl	ac8 <RTC_read_year>
     cc4:	e59f6108 	ldr	r6, [pc, #264]	; dd4 <main+0x1e4>
     cc8:	e5860000 	str	r0, [r6]

dow1=RTC_read_dow();
     ccc:	ebffff85 	bl	ae8 <RTC_read_dow>
     cd0:	e59f5100 	ldr	r5, [pc, #256]	; dd8 <main+0x1e8>
     cd4:	e5850000 	str	r0, [r5]

doy1=RTC_read_doy();
     cd8:	ebffff88 	bl	b00 <RTC_read_doy>
     cdc:	e59fe0f8 	ldr	lr, [pc, #248]	; ddc <main+0x1ec>
if(secover_Intflag)
     ce0:	e59f40f8 	ldr	r4, [pc, #248]	; de0 <main+0x1f0>
     ce4:	e58e0000 	str	r0, [lr]
     ce8:	e5943000 	ldr	r3, [r4]
     cec:	e3530000 	cmp	r3, #0	; 0x0
     cf0:	e59f10ec 	ldr	r1, [pc, #236]	; de4 <main+0x1f4>
     cf4:	e59f00ec 	ldr	r0, [pc, #236]	; de8 <main+0x1f8>
     cf8:	0a000013 	beq	d4c <main+0x15c>
{	
sprintf(mystr,"RTC_TIME:%02d:%02d:%02d\nDATE:%02d:%02d:%04d\nDay of week:%02d\nDay of year:%03d\n\n",hour1,min1,sec1,day1,month1,year1,dow1,doy1);   //inbuild libray fnction used to creat string
     cfc:	e5972000 	ldr	r2, [r7]
     d00:	e59f70b8 	ldr	r7, [pc, #184]	; dc0 <main+0x1d0>
     d04:	e5993000 	ldr	r3, [r9]
     d08:	e597c000 	ldr	ip, [r7]
     d0c:	e58dc000 	str	ip, [sp]
     d10:	e59ac000 	ldr	ip, [sl]
     d14:	e58dc004 	str	ip, [sp, #4]
     d18:	e598c000 	ldr	ip, [r8]
     d1c:	e58dc008 	str	ip, [sp, #8]
     d20:	e596c000 	ldr	ip, [r6]
     d24:	e58dc00c 	str	ip, [sp, #12]
     d28:	e595c000 	ldr	ip, [r5]
     d2c:	e58dc010 	str	ip, [sp, #16]
     d30:	e59ec000 	ldr	ip, [lr]
     d34:	e58dc014 	str	ip, [sp, #20]
     d38:	eb00005d 	bl	eb4 <sprintf>
uart0_tx_string(mystr);
     d3c:	e59f00a4 	ldr	r0, [pc, #164]	; de8 <main+0x1f8>
     d40:	ebfffd8e 	bl	380 <uart0_tx_string>
secover_Intflag=0;
     d44:	e3a03000 	mov	r3, #0	; 0x0
     d48:	e5843000 	str	r3, [r4]
}
if(ILR &(1<<0))
     d4c:	e59f2098 	ldr	r2, [pc, #152]	; dec <main+0x1fc>
     d50:	e5923000 	ldr	r3, [r2]
     d54:	e3130001 	tst	r3, #1	; 0x1
     d58:	e59f0090 	ldr	r0, [pc, #144]	; df0 <main+0x200>
     d5c:	e59f1048 	ldr	r1, [pc, #72]	; dac <main+0x1bc>
     d60:	0a000005 	beq	d7c <main+0x18c>
	{
		ILR|=(1<<0);
     d64:	e5923000 	ldr	r3, [r2]
     d68:	e3833001 	orr	r3, r3, #1	; 0x1
     d6c:	e5823000 	str	r3, [r2]
		IOSET1|=(1<<25);
     d70:	e5913000 	ldr	r3, [r1]
     d74:	e3833402 	orr	r3, r3, #33554432	; 0x2000000
     d78:	e5813000 	str	r3, [r1]
	}
	if(ILR &(1<<1))
     d7c:	e5923000 	ldr	r3, [r2]
     d80:	e3130002 	tst	r3, #2	; 0x2
     d84:	0affffbe 	beq	c84 <main+0x94>
	{
		ILR|=(1<<1);IOCLR1|=(1<<25);
     d88:	e5923000 	ldr	r3, [r2]
     d8c:	e3833002 	orr	r3, r3, #2	; 0x2
     d90:	e5823000 	str	r3, [r2]
     d94:	e5903000 	ldr	r3, [r0]
     d98:	e3833402 	orr	r3, r3, #33554432	; 0x2000000
     d9c:	e5803000 	str	r3, [r0]
     da0:	eaffffb7 	b	c84 <main+0x94>
     da4:	e002c014 	and	ip, r2, r4, lsl r0
     da8:	e0028018 	and	r8, r2, r8, lsl r0
     dac:	e0028014 	and	r8, r2, r4, lsl r0
     db0:	00000df4 	streqd	r0, [r0], -r4
     db4:	fffff104 	swinv	0x00fff104
     db8:	fffff204 	swinv	0x00fff204
     dbc:	fffff010 	swinv	0x00fff010
     dc0:	40000940 	andmi	r0, r0, r0, asr #18
     dc4:	40000920 	andmi	r0, r0, r0, lsr #18
     dc8:	400008e0 	andmi	r0, r0, r0, ror #17
     dcc:	40000900 	andmi	r0, r0, r0, lsl #18
     dd0:	40000b60 	andmi	r0, r0, r0, ror #22
     dd4:	40000b00 	andmi	r0, r0, r0, lsl #22
     dd8:	40000b20 	andmi	r0, r0, r0, lsr #22
     ddc:	40000b40 	andmi	r0, r0, r0, asr #22
     de0:	400007e8 	andmi	r0, r0, r8, ror #15
     de4:	00009a04 	andeq	r9, r0, r4, lsl #20
     de8:	40000960 	andmi	r0, r0, r0, ror #18
     dec:	e0024000 	and	r4, r2, r0
     df0:	e002801c 	and	r8, r2, ip, lsl r0

00000df4 <Timer0_Isr>:
		
	}	
/*
if(sec1==3)
{
ILR|=(1<<1);
IOCLR1|=(1<<25); // BUZZER ON
}
else
{
ILR|=(1<<0);
IOSET1|=(1<<25); // BUZZER OFF
}*/

}
return 0;
}


void Timer0_Isr(void)
{
     df4:	e92d000e 	stmdb	sp!, {r1, r2, r3}

	static unsigned int count = 999;
	count--;
     df8:	e59f2044 	ldr	r2, [pc, #68]	; e44 <Timer0_Isr+0x50>
     dfc:	e5923000 	ldr	r3, [r2]
     e00:	e2433001 	sub	r3, r3, #1	; 0x1
	if(count!=0)
     e04:	e3530000 	cmp	r3, #0	; 0x0
     e08:	e5823000 	str	r3, [r2]
	{
		count = 999;
     e0c:	159f3034 	ldrne	r3, [pc, #52]	; e48 <Timer0_Isr+0x54>
     e10:	15823000 	strne	r3, [r2]
		secover_Intflag = 1;
     e14:	159f3030 	ldrne	r3, [pc, #48]	; e4c <Timer0_Isr+0x58>
     e18:	13a02001 	movne	r2, #1	; 0x1
     e1c:	15832000 	strne	r2, [r3]
     e20:	e59f1028 	ldr	r1, [pc, #40]	; e50 <Timer0_Isr+0x5c>
	}
    	T0IR |= 1;		/* Clear interrupt flag */
     e24:	e5913000 	ldr	r3, [r1]
     e28:	e3833001 	orr	r3, r3, #1	; 0x1
     e2c:	e5813000 	str	r3, [r1]
	VICVectAddr = 0;
     e30:	e59f301c 	ldr	r3, [pc, #28]	; e54 <Timer0_Isr+0x60>
     e34:	e3a02000 	mov	r2, #0	; 0x0
     e38:	e5832000 	str	r2, [r3]
     e3c:	e8bd000e 	ldmia	sp!, {r1, r2, r3}
     e40:	e25ef004 	subs	pc, lr, #4	; 0x4
     e44:	4000001c 	andmi	r0, r0, ip, lsl r0
     e48:	000003e7 	andeq	r0, r0, r7, ror #7
     e4c:	400007e8 	andmi	r0, r0, r8, ror #15
     e50:	e0004000 	and	r4, r0, r0
     e54:	fffff030 	swinv	0x00fff030

00000e58 <_sprintf_r>:
     e58:	e1a0c00d 	mov	ip, sp
     e5c:	e92d000c 	stmdb	sp!, {r2, r3}
     e60:	e92dd800 	stmdb	sp!, {fp, ip, lr, pc}
     e64:	e24cb00c 	sub	fp, ip, #12	; 0xc
     e68:	e24dd05c 	sub	sp, sp, #92	; 0x5c
     e6c:	e1a0e000 	mov	lr, r0
     e70:	e1a0c001 	mov	ip, r1
     e74:	e3e03102 	mvn	r3, #-2147483648	; 0x80000000
     e78:	e28b2008 	add	r2, fp, #8	; 0x8
     e7c:	e50be014 	str	lr, [fp, -#20]
     e80:	e59b1004 	ldr	r1, [fp, #4]
     e84:	e3a0ef82 	mov	lr, #520	; 0x208
     e88:	e24b0068 	sub	r0, fp, #104	; 0x68
     e8c:	e50b3054 	str	r3, [fp, -#84]
     e90:	e50b3060 	str	r3, [fp, -#96]
     e94:	e50bc058 	str	ip, [fp, -#88]
     e98:	e14be5bc 	strh	lr, [fp, -#92]
     e9c:	e50bc068 	str	ip, [fp, -#104]
     ea0:	eb000058 	bl	1008 <vfprintf>
     ea4:	e51b3068 	ldr	r3, [fp, -#104]
     ea8:	e3a02000 	mov	r2, #0	; 0x0
     eac:	e5c32000 	strb	r2, [r3]
     eb0:	e91ba800 	ldmdb	fp, {fp, sp, pc}

00000eb4 <sprintf>:
     eb4:	e1a0c00d 	mov	ip, sp
     eb8:	e92d000e 	stmdb	sp!, {r1, r2, r3}
     ebc:	e92dd800 	stmdb	sp!, {fp, ip, lr, pc}
     ec0:	e59f304c 	ldr	r3, [pc, #76]	; f14 <sprintf+0x60>
     ec4:	e24cb010 	sub	fp, ip, #16	; 0x10
     ec8:	e24dd05c 	sub	sp, sp, #92	; 0x5c
     ecc:	e593e000 	ldr	lr, [r3]
     ed0:	e1a0c000 	mov	ip, r0
     ed4:	e3e03102 	mvn	r3, #-2147483648	; 0x80000000
     ed8:	e28b2008 	add	r2, fp, #8	; 0x8
     edc:	e50be014 	str	lr, [fp, -#20]
     ee0:	e59b1004 	ldr	r1, [fp, #4]
     ee4:	e3a0ef82 	mov	lr, #520	; 0x208
     ee8:	e24b0068 	sub	r0, fp, #104	; 0x68
     eec:	e50b3054 	str	r3, [fp, -#84]
     ef0:	e50b3060 	str	r3, [fp, -#96]
     ef4:	e50bc058 	str	ip, [fp, -#88]
     ef8:	e14be5bc 	strh	lr, [fp, -#92]
     efc:	e50bc068 	str	ip, [fp, -#104]
     f00:	eb000040 	bl	1008 <vfprintf>
     f04:	e51b3068 	ldr	r3, [fp, -#104]
     f08:	e3a02000 	mov	r2, #0	; 0x0
     f0c:	e5c32000 	strb	r2, [r3]
     f10:	e91ba800 	ldmdb	fp, {fp, sp, pc}
     f14:	4000039c 	mulmi	r0, ip, r3

00000f18 <__sprint>:
     f18:	e1a0c00d 	mov	ip, sp
     f1c:	e92dd810 	stmdb	sp!, {r4, fp, ip, lr, pc}
     f20:	e5913008 	ldr	r3, [r1, #8]
     f24:	e3530000 	cmp	r3, #0	; 0x0
     f28:	e24cb004 	sub	fp, ip, #4	; 0x4
     f2c:	e1a04001 	mov	r4, r1
     f30:	e1a02003 	mov	r2, r3
     f34:	05813004 	streq	r3, [r1, #4]
     f38:	1a000001 	bne	f44 <__sprint+0x2c>
     f3c:	e1a00002 	mov	r0, r2
     f40:	e91ba810 	ldmdb	fp, {r4, fp, sp, pc}
     f44:	eb000df9 	bl	4730 <__sfvwrite>
     f48:	e3a03000 	mov	r3, #0	; 0x0
     f4c:	e5843004 	str	r3, [r4, #4]
     f50:	e5843008 	str	r3, [r4, #8]
     f54:	e1a02000 	mov	r2, r0
     f58:	eafffff7 	b	f3c <__sprint+0x24>

00000f5c <__sbprintf>:
     f5c:	e1a0c00d 	mov	ip, sp
     f60:	e92dd9f0 	stmdb	sp!, {r4, r5, r6, r7, r8, fp, ip, lr, pc}
     f64:	e24dde45 	sub	sp, sp, #1104	; 0x450
     f68:	e24cb004 	sub	fp, ip, #4	; 0x4
     f6c:	e24dd00c 	sub	sp, sp, #12	; 0xc
     f70:	e1d030bc 	ldrh	r3, [r0, #12]
     f74:	e3c33002 	bic	r3, r3, #2	; 0x2
     f78:	e1a08000 	mov	r8, r0
     f7c:	e14b37b0 	strh	r3, [fp, -#112]
     f80:	e3a03000 	mov	r3, #0	; 0x0
     f84:	e590e054 	ldr	lr, [r0, #84]
     f88:	e590501c 	ldr	r5, [r0, #28]
     f8c:	e5906024 	ldr	r6, [r0, #36]
     f90:	e24b707c 	sub	r7, fp, #124	; 0x7c
     f94:	e50b3064 	str	r3, [fp, -#100]
     f98:	e24bce47 	sub	ip, fp, #1136	; 0x470
     f9c:	e1d830be 	ldrh	r3, [r8, #14]
     fa0:	e24cc00c 	sub	ip, ip, #12	; 0xc
     fa4:	e3a04b01 	mov	r4, #1024	; 0x400
     fa8:	e1a00007 	mov	r0, r7
     fac:	e50b4068 	str	r4, [fp, -#104]
     fb0:	e50b4074 	str	r4, [fp, -#116]
     fb4:	e50be028 	str	lr, [fp, -#40]
     fb8:	e50b5060 	str	r5, [fp, -#96]
     fbc:	e50b6058 	str	r6, [fp, -#88]
     fc0:	e50bc06c 	str	ip, [fp, -#108]
     fc4:	e14b36be 	strh	r3, [fp, -#110]
     fc8:	e50bc07c 	str	ip, [fp, -#124]
     fcc:	eb00000d 	bl	1008 <vfprintf>
     fd0:	e1a04000 	mov	r4, r0
     fd4:	e3540000 	cmp	r4, #0	; 0x0
     fd8:	e1a00007 	mov	r0, r7
     fdc:	ba000002 	blt	fec <__sbprintf+0x90>
     fe0:	eb000c3b 	bl	40d4 <fflush>
     fe4:	e3500000 	cmp	r0, #0	; 0x0
     fe8:	13e04000 	mvnne	r4, #0	; 0x0
     fec:	e15b37b0 	ldrh	r3, [fp, -#112]
     ff0:	e3130040 	tst	r3, #64	; 0x40
     ff4:	11d830bc 	ldrneh	r3, [r8, #12]
     ff8:	e1a00004 	mov	r0, r4
     ffc:	13833040 	orrne	r3, r3, #64	; 0x40
    1000:	11c830bc 	strneh	r3, [r8, #12]
    1004:	e91ba9f0 	ldmdb	fp, {r4, r5, r6, r7, r8, fp, sp, pc}

00001008 <vfprintf>:
    1008:	e1a0c00d 	mov	ip, sp
    100c:	e92dd870 	stmdb	sp!, {r4, r5, r6, fp, ip, lr, pc}
    1010:	e24cb004 	sub	fp, ip, #4	; 0x4
    1014:	e590c054 	ldr	ip, [r0, #84]
    1018:	e35c0000 	cmp	ip, #0	; 0x0
    101c:	059f3048 	ldreq	r3, [pc, #72]	; 106c <vfprintf+0x64>
    1020:	e1a06002 	mov	r6, r2
    1024:	05932000 	ldreq	r2, [r3]
    1028:	01a0c002 	moveq	ip, r2
    102c:	e59c3038 	ldr	r3, [ip, #56]
    1030:	05802054 	streq	r2, [r0, #84]
    1034:	e3530000 	cmp	r3, #0	; 0x0
    1038:	e1a04000 	mov	r4, r0
    103c:	e1a05001 	mov	r5, r1
    1040:	e1a0000c 	mov	r0, ip
    1044:	0a000005 	beq	1060 <vfprintf+0x58>
    1048:	e1a0000c 	mov	r0, ip
    104c:	e1a01004 	mov	r1, r4
    1050:	e1a02005 	mov	r2, r5
    1054:	e1a03006 	mov	r3, r6
    1058:	e91b6870 	ldmdb	fp, {r4, r5, r6, fp, sp, lr}
    105c:	ea000003 	b	1070 <_vfprintf_r>
    1060:	eb000cbe 	bl	4360 <__sinit>
    1064:	e594c054 	ldr	ip, [r4, #84]
    1068:	eafffff6 	b	1048 <vfprintf+0x40>
    106c:	4000039c 	mulmi	r0, ip, r3

00001070 <_vfprintf_r>:
    1070:	e1a0c00d 	mov	ip, sp
    1074:	e92ddff0 	stmdb	sp!, {r4, r5, r6, r7, r8, r9, sl, fp, ip, lr, pc}
    1078:	e24cb004 	sub	fp, ip, #4	; 0x4
    107c:	e24ddf85 	sub	sp, sp, #532	; 0x214
    1080:	e3a0c000 	mov	ip, #0	; 0x0
    1084:	e50bc21c 	str	ip, [fp, -#540]
    1088:	e50b11fc 	str	r1, [fp, -#508]
    108c:	e1a04002 	mov	r4, r2
    1090:	e50b3200 	str	r3, [fp, -#512]
    1094:	e50b01f8 	str	r0, [fp, -#504]
    1098:	eb000ed2 	bl	4be8 <localeconv>
    109c:	e1a03000 	mov	r3, r0
    10a0:	e5933000 	ldr	r3, [r3]
    10a4:	e51b121c 	ldr	r1, [fp, -#540]
    10a8:	e3a02008 	mov	r2, #8	; 0x8
    10ac:	e24b0f7a 	sub	r0, fp, #488	; 0x1e8
    10b0:	e50b3210 	str	r3, [fp, -#528]
    10b4:	eb001161 	bl	5640 <memset>
    10b8:	e51be1fc 	ldr	lr, [fp, -#508]
    10bc:	e1de20bc 	ldrh	r2, [lr, #12]
    10c0:	e51bc21c 	ldr	ip, [fp, -#540]
    10c4:	e3a01000 	mov	r1, #0	; 0x0
    10c8:	e3a00000 	mov	r0, #0	; 0x0
    10cc:	e24b3e21 	sub	r3, fp, #528	; 0x210
    10d0:	e3120008 	tst	r2, #8	; 0x8
    10d4:	e9030003 	stmdb	r3, {r0, r1}
    10d8:	e50bc228 	str	ip, [fp, -#552]
    10dc:	0a000002 	beq	10ec <_vfprintf_r+0x7c>
    10e0:	e59e3010 	ldr	r3, [lr, #16]
    10e4:	e3530000 	cmp	r3, #0	; 0x0
    10e8:	1a000006 	bne	1108 <_vfprintf_r+0x98>
    10ec:	e51b01fc 	ldr	r0, [fp, -#508]
    10f0:	eb00064f 	bl	2a34 <__swsetup>
    10f4:	e3500000 	cmp	r0, #0	; 0x0
    10f8:	13e00000 	mvnne	r0, #0	; 0x0
    10fc:	191baff0 	ldmnedb	fp, {r4, r5, r6, r7, r8, r9, sl, fp, sp, pc}
    1100:	e51be1fc 	ldr	lr, [fp, -#508]
    1104:	e1de20bc 	ldrh	r2, [lr, #12]
    1108:	e202301a 	and	r3, r2, #26	; 0x1a
    110c:	e353000a 	cmp	r3, #10	; 0xa
    1110:	0a0005ac 	beq	27c8 <_vfprintf_r+0x1758>
    1114:	e3a03000 	mov	r3, #0	; 0x0
    1118:	e24b7080 	sub	r7, fp, #128	; 0x80
    111c:	e50b7040 	str	r7, [fp, -#64]
    1120:	e50b3038 	str	r3, [fp, -#56]
    1124:	e50b303c 	str	r3, [fp, -#60]
    1128:	e50b3208 	str	r3, [fp, -#520]
    112c:	e1a08004 	mov	r8, r4
    1130:	e1a0a008 	mov	sl, r8
    1134:	e59f1a98 	ldr	r1, [pc, #2712]	; 1bd4 <_vfprintf_r+0xb64>
    1138:	e59f2a98 	ldr	r2, [pc, #2712]	; 1bd8 <_vfprintf_r+0xb68>
    113c:	e5910000 	ldr	r0, [r1]
    1140:	e5923000 	ldr	r3, [r2]
    1144:	e24bcf7a 	sub	ip, fp, #488	; 0x1e8
    1148:	e1a02008 	mov	r2, r8
    114c:	e24b1f7b 	sub	r1, fp, #492	; 0x1ec
    1150:	e58dc000 	str	ip, [sp]
    1154:	eb001090 	bl	539c <_mbtowc_r>
    1158:	e3500000 	cmp	r0, #0	; 0x0
    115c:	e1a05000 	mov	r5, r0
    1160:	da000004 	ble	1178 <_vfprintf_r+0x108>
    1164:	e51b31ec 	ldr	r3, [fp, -#492]
    1168:	e0888005 	add	r8, r8, r5
    116c:	e3530025 	cmp	r3, #37	; 0x25
    1170:	02488001 	subeq	r8, r8, #1	; 0x1
    1174:	1affffee 	bne	1134 <_vfprintf_r+0xc4>
    1178:	e058600a 	subs	r6, r8, sl
    117c:	0a00000d 	beq	11b8 <_vfprintf_r+0x148>
    1180:	e24b203c 	sub	r2, fp, #60	; 0x3c
    1184:	e892000c 	ldmia	r2, {r2, r3}
    1188:	e2822001 	add	r2, r2, #1	; 0x1
    118c:	e0833006 	add	r3, r3, r6
    1190:	e3520007 	cmp	r2, #7	; 0x7
    1194:	e587a000 	str	sl, [r7]
    1198:	e5876004 	str	r6, [r7, #4]
    119c:	e50b3038 	str	r3, [fp, -#56]
    11a0:	e50b203c 	str	r2, [fp, -#60]
    11a4:	e2877008 	add	r7, r7, #8	; 0x8
    11a8:	ca00057f 	bgt	27ac <_vfprintf_r+0x173c>
    11ac:	e51be208 	ldr	lr, [fp, -#520]
    11b0:	e08ee006 	add	lr, lr, r6
    11b4:	e50be208 	str	lr, [fp, -#520]
    11b8:	e3550000 	cmp	r5, #0	; 0x0
    11bc:	da00056b 	ble	2770 <_vfprintf_r+0x1700>
    11c0:	e3a00000 	mov	r0, #0	; 0x0
    11c4:	e50b020c 	str	r0, [fp, -#524]
    11c8:	e24b1c02 	sub	r1, fp, #512	; 0x200
    11cc:	e551100c 	ldrb	r1, [r1, -#12]
    11d0:	e50b0204 	str	r0, [fp, -#516]
    11d4:	e54b1029 	strb	r1, [fp, -#41]
    11d8:	e5f82001 	ldrb	r2, [r8, #1]!
    11dc:	e50b0220 	str	r0, [fp, -#544]
    11e0:	e3e04000 	mvn	r4, #0	; 0x0
    11e4:	e20290ff 	and	r9, r2, #255	; 0xff
    11e8:	e2888001 	add	r8, r8, #1	; 0x1
    11ec:	e2493020 	sub	r3, r9, #32	; 0x20
    11f0:	e3530058 	cmp	r3, #88	; 0x58
    11f4:	979ff103 	ldrls	pc, [pc, r3, lsl #2]
    11f8:	ea000554 	b	2750 <_vfprintf_r+0x16e0>
    11fc:	00001360 	andeq	r1, r0, r0, ror #6
    1200:	00002750 	andeq	r2, r0, r0, asr r7
    1204:	00002750 	andeq	r2, r0, r0, asr r7
    1208:	00001380 	andeq	r1, r0, r0, lsl #7
    120c:	00002750 	andeq	r2, r0, r0, asr r7
    1210:	00002750 	andeq	r2, r0, r0, asr r7
    1214:	00002750 	andeq	r2, r0, r0, asr r7
    1218:	00002750 	andeq	r2, r0, r0, asr r7
    121c:	00002750 	andeq	r2, r0, r0, asr r7
    1220:	00002750 	andeq	r2, r0, r0, asr r7
    1224:	00001394 	muleq	r0, r4, r3
    1228:	000013d0 	ldreqd	r1, [r0], -r0
    122c:	00002750 	andeq	r2, r0, r0, asr r7
    1230:	000013bc 	streqh	r1, [r0], -ip
    1234:	000013d8 	ldreqd	r1, [r0], -r8
    1238:	00002750 	andeq	r2, r0, r0, asr r7
    123c:	00001444 	andeq	r1, r0, r4, asr #8
    1240:	00001458 	andeq	r1, r0, r8, asr r4
    1244:	00001458 	andeq	r1, r0, r8, asr r4
    1248:	00001458 	andeq	r1, r0, r8, asr r4
    124c:	00001458 	andeq	r1, r0, r8, asr r4
    1250:	00001458 	andeq	r1, r0, r8, asr r4
    1254:	00001458 	andeq	r1, r0, r8, asr r4
    1258:	00001458 	andeq	r1, r0, r8, asr r4
    125c:	00001458 	andeq	r1, r0, r8, asr r4
    1260:	00001458 	andeq	r1, r0, r8, asr r4
    1264:	00002750 	andeq	r2, r0, r0, asr r7
    1268:	00002750 	andeq	r2, r0, r0, asr r7
    126c:	00002750 	andeq	r2, r0, r0, asr r7
    1270:	00002750 	andeq	r2, r0, r0, asr r7
    1274:	00002750 	andeq	r2, r0, r0, asr r7
    1278:	00002750 	andeq	r2, r0, r0, asr r7
    127c:	00002750 	andeq	r2, r0, r0, asr r7
    1280:	00002750 	andeq	r2, r0, r0, asr r7
    1284:	00002750 	andeq	r2, r0, r0, asr r7
    1288:	00002750 	andeq	r2, r0, r0, asr r7
    128c:	00001480 	andeq	r1, r0, r0, lsl #9
    1290:	0000241c 	andeq	r2, r0, ip, lsl r4
    1294:	00002750 	andeq	r2, r0, r0, asr r7
    1298:	0000241c 	andeq	r2, r0, ip, lsl r4
    129c:	00002750 	andeq	r2, r0, r0, asr r7
    12a0:	00002750 	andeq	r2, r0, r0, asr r7
    12a4:	00002750 	andeq	r2, r0, r0, asr r7
    12a8:	00002750 	andeq	r2, r0, r0, asr r7
    12ac:	00002270 	andeq	r2, r0, r0, ror r2
    12b0:	00002750 	andeq	r2, r0, r0, asr r7
    12b4:	00002750 	andeq	r2, r0, r0, asr r7
    12b8:	00002280 	andeq	r2, r0, r0, lsl #5
    12bc:	00002750 	andeq	r2, r0, r0, asr r7
    12c0:	00002750 	andeq	r2, r0, r0, asr r7
    12c4:	00002750 	andeq	r2, r0, r0, asr r7
    12c8:	00002750 	andeq	r2, r0, r0, asr r7
    12cc:	00002750 	andeq	r2, r0, r0, asr r7
    12d0:	000022f8 	streqd	r2, [r0], -r8
    12d4:	00002750 	andeq	r2, r0, r0, asr r7
    12d8:	00002750 	andeq	r2, r0, r0, asr r7
    12dc:	00002368 	andeq	r2, r0, r8, ror #6
    12e0:	00002750 	andeq	r2, r0, r0, asr r7
    12e4:	00002750 	andeq	r2, r0, r0, asr r7
    12e8:	00002750 	andeq	r2, r0, r0, asr r7
    12ec:	00002750 	andeq	r2, r0, r0, asr r7
    12f0:	00002750 	andeq	r2, r0, r0, asr r7
    12f4:	00002750 	andeq	r2, r0, r0, asr r7
    12f8:	00002750 	andeq	r2, r0, r0, asr r7
    12fc:	00002750 	andeq	r2, r0, r0, asr r7
    1300:	00002750 	andeq	r2, r0, r0, asr r7
    1304:	00002750 	andeq	r2, r0, r0, asr r7
    1308:	000023f4 	streqd	r2, [r0], -r4
    130c:	0000148c 	andeq	r1, r0, ip, lsl #9
    1310:	0000241c 	andeq	r2, r0, ip, lsl r4
    1314:	0000241c 	andeq	r2, r0, ip, lsl r4
    1318:	0000241c 	andeq	r2, r0, ip, lsl r4
    131c:	00002618 	andeq	r2, r0, r8, lsl r6
    1320:	0000148c 	andeq	r1, r0, ip, lsl #9
    1324:	00002750 	andeq	r2, r0, r0, asr r7
    1328:	00002750 	andeq	r2, r0, r0, asr r7
    132c:	0000262c 	andeq	r2, r0, ip, lsr #12
    1330:	00002750 	andeq	r2, r0, r0, asr r7
    1334:	00002654 	andeq	r2, r0, r4, asr r6
    1338:	0000228c 	andeq	r2, r0, ip, lsl #5
    133c:	000026a8 	andeq	r2, r0, r8, lsr #13
    1340:	000026e0 	andeq	r2, r0, r0, ror #13
    1344:	00002750 	andeq	r2, r0, r0, asr r7
    1348:	000026f0 	streqd	r2, [r0], -r0
    134c:	00002750 	andeq	r2, r0, r0, asr r7
    1350:	00002304 	andeq	r2, r0, r4, lsl #6
    1354:	00002750 	andeq	r2, r0, r0, asr r7
    1358:	00002750 	andeq	r2, r0, r0, asr r7
    135c:	000027a0 	andeq	r2, r0, r0, lsr #15
    1360:	e55b3029 	ldrb	r3, [fp, -#41]
    1364:	e3530000 	cmp	r3, #0	; 0x0
    1368:	03a03020 	moveq	r3, #32	; 0x20
    136c:	0a000001 	beq	1378 <_vfprintf_r+0x308>
    1370:	e5d82000 	ldrb	r2, [r8]
    1374:	eaffff9a 	b	11e4 <_vfprintf_r+0x174>
    1378:	e54b3029 	strb	r3, [fp, -#41]
    137c:	eafffffb 	b	1370 <_vfprintf_r+0x300>
    1380:	e51bc204 	ldr	ip, [fp, -#516]
    1384:	e5d82000 	ldrb	r2, [r8]
    1388:	e38cc001 	orr	ip, ip, #1	; 0x1
    138c:	e50bc204 	str	ip, [fp, -#516]
    1390:	eaffff93 	b	11e4 <_vfprintf_r+0x174>
    1394:	e51b3200 	ldr	r3, [fp, -#512]
    1398:	e51be200 	ldr	lr, [fp, -#512]
    139c:	e5933000 	ldr	r3, [r3]
    13a0:	e28ee004 	add	lr, lr, #4	; 0x4
    13a4:	e3530000 	cmp	r3, #0	; 0x0
    13a8:	e50b320c 	str	r3, [fp, -#524]
    13ac:	e50be200 	str	lr, [fp, -#512]
    13b0:	aaffffee 	bge	1370 <_vfprintf_r+0x300>
    13b4:	e2633000 	rsb	r3, r3, #0	; 0x0
    13b8:	e50b320c 	str	r3, [fp, -#524]
    13bc:	e51b0204 	ldr	r0, [fp, -#516]
    13c0:	e5d82000 	ldrb	r2, [r8]
    13c4:	e3800004 	orr	r0, r0, #4	; 0x4
    13c8:	e50b0204 	str	r0, [fp, -#516]
    13cc:	eaffff84 	b	11e4 <_vfprintf_r+0x174>
    13d0:	e3a0302b 	mov	r3, #43	; 0x2b
    13d4:	eaffffe7 	b	1378 <_vfprintf_r+0x308>
    13d8:	e4d89001 	ldrb	r9, [r8], #1
    13dc:	e359002a 	cmp	r9, #42	; 0x2a
    13e0:	0a00000f 	beq	1424 <_vfprintf_r+0x3b4>
    13e4:	e2493030 	sub	r3, r9, #48	; 0x30
    13e8:	e3530009 	cmp	r3, #9	; 0x9
    13ec:	e3a05000 	mov	r5, #0	; 0x0
    13f0:	8a000006 	bhi	1410 <_vfprintf_r+0x3a0>
    13f4:	e0852105 	add	r2, r5, r5, lsl #2
    13f8:	e0892082 	add	r2, r9, r2, lsl #1
    13fc:	e4d89001 	ldrb	r9, [r8], #1
    1400:	e2493030 	sub	r3, r9, #48	; 0x30
    1404:	e3530009 	cmp	r3, #9	; 0x9
    1408:	e2425030 	sub	r5, r2, #48	; 0x30
    140c:	9afffff8 	bls	13f4 <_vfprintf_r+0x384>
    1410:	e3e03000 	mvn	r3, #0	; 0x0
    1414:	e1550003 	cmp	r5, r3
    1418:	a1a04005 	movge	r4, r5
    141c:	b1a04003 	movlt	r4, r3
    1420:	eaffff71 	b	11ec <_vfprintf_r+0x17c>
    1424:	e51b3200 	ldr	r3, [fp, -#512]
    1428:	e5934000 	ldr	r4, [r3]
    142c:	e2831004 	add	r1, r3, #4	; 0x4
    1430:	e3540000 	cmp	r4, #0	; 0x0
    1434:	e50b1200 	str	r1, [fp, -#512]
    1438:	aaffffcc 	bge	1370 <_vfprintf_r+0x300>
    143c:	e5d82000 	ldrb	r2, [r8]
    1440:	eaffff66 	b	11e0 <_vfprintf_r+0x170>
    1444:	e51b3204 	ldr	r3, [fp, -#516]
    1448:	e5d82000 	ldrb	r2, [r8]
    144c:	e3833080 	orr	r3, r3, #128	; 0x80
    1450:	e50b3204 	str	r3, [fp, -#516]
    1454:	eaffff62 	b	11e4 <_vfprintf_r+0x174>
    1458:	e3a05000 	mov	r5, #0	; 0x0
    145c:	e0852105 	add	r2, r5, r5, lsl #2
    1460:	e0892082 	add	r2, r9, r2, lsl #1
    1464:	e4d89001 	ldrb	r9, [r8], #1
    1468:	e2493030 	sub	r3, r9, #48	; 0x30
    146c:	e3530009 	cmp	r3, #9	; 0x9
    1470:	e2425030 	sub	r5, r2, #48	; 0x30
    1474:	850b520c 	strhi	r5, [fp, -#524]
    1478:	9afffff7 	bls	145c <_vfprintf_r+0x3ec>
    147c:	eaffff5a 	b	11ec <_vfprintf_r+0x17c>
    1480:	e51be204 	ldr	lr, [fp, -#516]
    1484:	e38ee010 	orr	lr, lr, #16	; 0x10
    1488:	e50be204 	str	lr, [fp, -#516]
    148c:	e51b0204 	ldr	r0, [fp, -#516]
    1490:	e3100010 	tst	r0, #16	; 0x10
    1494:	0a000367 	beq	2238 <_vfprintf_r+0x11c8>
    1498:	e51b3200 	ldr	r3, [fp, -#512]
    149c:	e5932000 	ldr	r2, [r3]
    14a0:	e2831004 	add	r1, r3, #4	; 0x4
    14a4:	e1a05002 	mov	r5, r2
    14a8:	e1a06fc5 	mov	r6, r5, asr #31
    14ac:	e50b1200 	str	r1, [fp, -#512]
    14b0:	e3550000 	cmp	r5, #0	; 0x0
    14b4:	ba00035a 	blt	2224 <_vfprintf_r+0x11b4>
    14b8:	e3a02001 	mov	r2, #1	; 0x1
    14bc:	e3540000 	cmp	r4, #0	; 0x0
    14c0:	a51bc204 	ldrge	ip, [fp, -#516]
    14c4:	e50b4220 	str	r4, [fp, -#544]
    14c8:	a3ccc080 	bicge	ip, ip, #128	; 0x80
    14cc:	a50bc204 	strge	ip, [fp, -#516]
    14d0:	e51b0220 	ldr	r0, [fp, -#544]
    14d4:	e195e006 	orrs	lr, r5, r6
    14d8:	03a03000 	moveq	r3, #0	; 0x0
    14dc:	13a03001 	movne	r3, #1	; 0x1
    14e0:	e3500000 	cmp	r0, #0	; 0x0
    14e4:	13833001 	orrne	r3, r3, #1	; 0x1
    14e8:	e3530000 	cmp	r3, #0	; 0x0
    14ec:	e24ba080 	sub	sl, fp, #128	; 0x80
    14f0:	0a000343 	beq	2204 <_vfprintf_r+0x1194>
    14f4:	e3520001 	cmp	r2, #1	; 0x1
    14f8:	0a000326 	beq	2198 <_vfprintf_r+0x1128>
    14fc:	ca000317 	bgt	2160 <_vfprintf_r+0x10f0>
    1500:	e3520000 	cmp	r2, #0	; 0x0
    1504:	0a0002ff 	beq	2108 <_vfprintf_r+0x1098>
    1508:	e59fa6cc 	ldr	sl, [pc, #1740]	; 1bdc <_vfprintf_r+0xb6c>
    150c:	e1a0000a 	mov	r0, sl
    1510:	eb001513 	bl	6964 <strlen>
    1514:	e1a06000 	mov	r6, r0
    1518:	e55b3029 	ldrb	r3, [fp, -#41]
    151c:	e51b2220 	ldr	r2, [fp, -#544]
    1520:	e1560002 	cmp	r6, r2
    1524:	a1a02006 	movge	r2, r6
    1528:	e3530000 	cmp	r3, #0	; 0x0
    152c:	e50b2224 	str	r2, [fp, -#548]
    1530:	12822001 	addne	r2, r2, #1	; 0x1
    1534:	150b2224 	strne	r2, [fp, -#548]
    1538:	1a000004 	bne	1550 <_vfprintf_r+0x4e0>
    153c:	e51bc204 	ldr	ip, [fp, -#516]
    1540:	e31c0002 	tst	ip, #2	; 0x2
    1544:	151be224 	ldrne	lr, [fp, -#548]
    1548:	128ee002 	addne	lr, lr, #2	; 0x2
    154c:	150be224 	strne	lr, [fp, -#548]
    1550:	e51b0204 	ldr	r0, [fp, -#516]
    1554:	e2104084 	ands	r4, r0, #132	; 0x84
    1558:	1a000025 	bne	15f4 <_vfprintf_r+0x584>
    155c:	e51b120c 	ldr	r1, [fp, -#524]
    1560:	e51b2224 	ldr	r2, [fp, -#548]
    1564:	e0625001 	rsb	r5, r2, r1
    1568:	e3550000 	cmp	r5, #0	; 0x0
    156c:	da000020 	ble	15f4 <_vfprintf_r+0x584>
    1570:	e3550010 	cmp	r5, #16	; 0x10
    1574:	da000011 	ble	15c0 <_vfprintf_r+0x550>
    1578:	e51b303c 	ldr	r3, [fp, -#60]
    157c:	e51b2038 	ldr	r2, [fp, -#56]
    1580:	e3a0c010 	mov	ip, #16	; 0x10
    1584:	e2833001 	add	r3, r3, #1	; 0x1
    1588:	e587c004 	str	ip, [r7, #4]
    158c:	e59fc64c 	ldr	ip, [pc, #1612]	; 1be0 <_vfprintf_r+0xb70>
    1590:	e2822010 	add	r2, r2, #16	; 0x10
    1594:	e3530007 	cmp	r3, #7	; 0x7
    1598:	e587c000 	str	ip, [r7]
    159c:	e2455010 	sub	r5, r5, #16	; 0x10
    15a0:	e51b01fc 	ldr	r0, [fp, -#508]
    15a4:	e24b1040 	sub	r1, fp, #64	; 0x40
    15a8:	e50b2038 	str	r2, [fp, -#56]
    15ac:	e50b303c 	str	r3, [fp, -#60]
    15b0:	e2877008 	add	r7, r7, #8	; 0x8
    15b4:	ca0002ce 	bgt	20f4 <_vfprintf_r+0x1084>
    15b8:	e3550010 	cmp	r5, #16	; 0x10
    15bc:	caffffed 	bgt	1578 <_vfprintf_r+0x508>
    15c0:	e24b203c 	sub	r2, fp, #60	; 0x3c
    15c4:	e892000c 	ldmia	r2, {r2, r3}
    15c8:	e2822001 	add	r2, r2, #1	; 0x1
    15cc:	e59fe60c 	ldr	lr, [pc, #1548]	; 1be0 <_vfprintf_r+0xb70>
    15d0:	e0833005 	add	r3, r3, r5
    15d4:	e3520007 	cmp	r2, #7	; 0x7
    15d8:	e587e000 	str	lr, [r7]
    15dc:	e50b3038 	str	r3, [fp, -#56]
    15e0:	e5875004 	str	r5, [r7, #4]
    15e4:	e50b203c 	str	r2, [fp, -#60]
    15e8:	e2877008 	add	r7, r7, #8	; 0x8
    15ec:	d55b3029 	ldrleb	r3, [fp, -#41]
    15f0:	ca0002b7 	bgt	20d4 <_vfprintf_r+0x1064>
    15f4:	e3530000 	cmp	r3, #0	; 0x0
    15f8:	0a00029d 	beq	2074 <_vfprintf_r+0x1004>
    15fc:	e24b003c 	sub	r0, fp, #60	; 0x3c
    1600:	e8900003 	ldmia	r0, {r0, r1}
    1604:	e2800001 	add	r0, r0, #1	; 0x1
    1608:	e2811001 	add	r1, r1, #1	; 0x1
    160c:	e24b3029 	sub	r3, fp, #41	; 0x29
    1610:	e3a02001 	mov	r2, #1	; 0x1
    1614:	e3500007 	cmp	r0, #7	; 0x7
    1618:	e5873000 	str	r3, [r7]
    161c:	e5872004 	str	r2, [r7, #4]
    1620:	e50b1038 	str	r1, [fp, -#56]
    1624:	e50b003c 	str	r0, [fp, -#60]
    1628:	e2877008 	add	r7, r7, #8	; 0x8
    162c:	ca000289 	bgt	2058 <_vfprintf_r+0xfe8>
    1630:	e3540080 	cmp	r4, #128	; 0x80
    1634:	0a000257 	beq	1f98 <_vfprintf_r+0xf28>
    1638:	e51bc220 	ldr	ip, [fp, -#544]
    163c:	e066500c 	rsb	r5, r6, ip
    1640:	e3550000 	cmp	r5, #0	; 0x0
    1644:	da00001c 	ble	16bc <_vfprintf_r+0x64c>
    1648:	e3550010 	cmp	r5, #16	; 0x10
    164c:	da00024f 	ble	1f90 <_vfprintf_r+0xf20>
    1650:	e59f4594 	ldr	r4, [pc, #1428]	; 1bec <_vfprintf_r+0xb7c>
    1654:	e51b303c 	ldr	r3, [fp, -#60]
    1658:	e51b2038 	ldr	r2, [fp, -#56]
    165c:	e2833001 	add	r3, r3, #1	; 0x1
    1660:	e2822010 	add	r2, r2, #16	; 0x10
    1664:	e3a0c010 	mov	ip, #16	; 0x10
    1668:	e3530007 	cmp	r3, #7	; 0x7
    166c:	e8871010 	stmia	r7, {r4, ip}
    1670:	e2455010 	sub	r5, r5, #16	; 0x10
    1674:	e51b01fc 	ldr	r0, [fp, -#508]
    1678:	e24b1040 	sub	r1, fp, #64	; 0x40
    167c:	e50b2038 	str	r2, [fp, -#56]
    1680:	e50b303c 	str	r3, [fp, -#60]
    1684:	e2877008 	add	r7, r7, #8	; 0x8
    1688:	ca00023b 	bgt	1f7c <_vfprintf_r+0xf0c>
    168c:	e3550010 	cmp	r5, #16	; 0x10
    1690:	caffffef 	bgt	1654 <_vfprintf_r+0x5e4>
    1694:	e24b203c 	sub	r2, fp, #60	; 0x3c
    1698:	e892000c 	ldmia	r2, {r2, r3}
    169c:	e2822001 	add	r2, r2, #1	; 0x1
    16a0:	e0833005 	add	r3, r3, r5
    16a4:	e3520007 	cmp	r2, #7	; 0x7
    16a8:	e8870030 	stmia	r7, {r4, r5}
    16ac:	e50b3038 	str	r3, [fp, -#56]
    16b0:	e50b203c 	str	r2, [fp, -#60]
    16b4:	e2877008 	add	r7, r7, #8	; 0x8
    16b8:	ca000228 	bgt	1f60 <_vfprintf_r+0xef0>
    16bc:	e51be204 	ldr	lr, [fp, -#516]
    16c0:	e31e0c01 	tst	lr, #256	; 0x100
    16c4:	1a00005c 	bne	183c <_vfprintf_r+0x7cc>
    16c8:	e24b203c 	sub	r2, fp, #60	; 0x3c
    16cc:	e892000c 	ldmia	r2, {r2, r3}
    16d0:	e2822001 	add	r2, r2, #1	; 0x1
    16d4:	e0833006 	add	r3, r3, r6
    16d8:	e3520007 	cmp	r2, #7	; 0x7
    16dc:	e587a000 	str	sl, [r7]
    16e0:	e50b3038 	str	r3, [fp, -#56]
    16e4:	e5876004 	str	r6, [r7, #4]
    16e8:	e50b203c 	str	r2, [fp, -#60]
    16ec:	e2877008 	add	r7, r7, #8	; 0x8
    16f0:	ca00004a 	bgt	1820 <_vfprintf_r+0x7b0>
    16f4:	e51b0204 	ldr	r0, [fp, -#516]
    16f8:	e3100004 	tst	r0, #4	; 0x4
    16fc:	0a000023 	beq	1790 <_vfprintf_r+0x720>
    1700:	e51b120c 	ldr	r1, [fp, -#524]
    1704:	e51b2224 	ldr	r2, [fp, -#548]
    1708:	e0625001 	rsb	r5, r2, r1
    170c:	e3550000 	cmp	r5, #0	; 0x0
    1710:	da00001e 	ble	1790 <_vfprintf_r+0x720>
    1714:	e3550010 	cmp	r5, #16	; 0x10
    1718:	da000011 	ble	1764 <_vfprintf_r+0x6f4>
    171c:	e51b303c 	ldr	r3, [fp, -#60]
    1720:	e51b2038 	ldr	r2, [fp, -#56]
    1724:	e3a0c010 	mov	ip, #16	; 0x10
    1728:	e2833001 	add	r3, r3, #1	; 0x1
    172c:	e587c004 	str	ip, [r7, #4]
    1730:	e59fc4a8 	ldr	ip, [pc, #1192]	; 1be0 <_vfprintf_r+0xb70>
    1734:	e2822010 	add	r2, r2, #16	; 0x10
    1738:	e3530007 	cmp	r3, #7	; 0x7
    173c:	e587c000 	str	ip, [r7]
    1740:	e2455010 	sub	r5, r5, #16	; 0x10
    1744:	e51b01fc 	ldr	r0, [fp, -#508]
    1748:	e24b1040 	sub	r1, fp, #64	; 0x40
    174c:	e50b2038 	str	r2, [fp, -#56]
    1750:	e50b303c 	str	r3, [fp, -#60]
    1754:	e2877008 	add	r7, r7, #8	; 0x8
    1758:	ca00002b 	bgt	180c <_vfprintf_r+0x79c>
    175c:	e3550010 	cmp	r5, #16	; 0x10
    1760:	caffffed 	bgt	171c <_vfprintf_r+0x6ac>
    1764:	e24b203c 	sub	r2, fp, #60	; 0x3c
    1768:	e892000c 	ldmia	r2, {r2, r3}
    176c:	e2822001 	add	r2, r2, #1	; 0x1
    1770:	e59fe468 	ldr	lr, [pc, #1128]	; 1be0 <_vfprintf_r+0xb70>
    1774:	e0833005 	add	r3, r3, r5
    1778:	e3520007 	cmp	r2, #7	; 0x7
    177c:	e587e000 	str	lr, [r7]
    1780:	e5875004 	str	r5, [r7, #4]
    1784:	e50b3038 	str	r3, [fp, -#56]
    1788:	e50b203c 	str	r2, [fp, -#60]
    178c:	ca000018 	bgt	17f4 <_vfprintf_r+0x784>
    1790:	e51b0208 	ldr	r0, [fp, -#520]
    1794:	e51b1224 	ldr	r1, [fp, -#548]
    1798:	e51b220c 	ldr	r2, [fp, -#524]
    179c:	e51b3038 	ldr	r3, [fp, -#56]
    17a0:	e1510002 	cmp	r1, r2
    17a4:	a0800001 	addge	r0, r0, r1
    17a8:	b0800002 	addlt	r0, r0, r2
    17ac:	e3530000 	cmp	r3, #0	; 0x0
    17b0:	e50b0208 	str	r0, [fp, -#520]
    17b4:	1a000003 	bne	17c8 <_vfprintf_r+0x758>
    17b8:	e3a03000 	mov	r3, #0	; 0x0
    17bc:	e24b7080 	sub	r7, fp, #128	; 0x80
    17c0:	e50b303c 	str	r3, [fp, -#60]
    17c4:	eafffe59 	b	1130 <_vfprintf_r+0xc0>
    17c8:	e51b01fc 	ldr	r0, [fp, -#508]
    17cc:	e24b1040 	sub	r1, fp, #64	; 0x40
    17d0:	ebfffdd0 	bl	f18 <__sprint>
    17d4:	e3500000 	cmp	r0, #0	; 0x0
    17d8:	0afffff6 	beq	17b8 <_vfprintf_r+0x748>
    17dc:	e51bc1fc 	ldr	ip, [fp, -#508]
    17e0:	e1dc30bc 	ldrh	r3, [ip, #12]
    17e4:	e51b0208 	ldr	r0, [fp, -#520]
    17e8:	e3130040 	tst	r3, #64	; 0x40
    17ec:	13e00000 	mvnne	r0, #0	; 0x0
    17f0:	e91baff0 	ldmdb	fp, {r4, r5, r6, r7, r8, r9, sl, fp, sp, pc}
    17f4:	e51b01fc 	ldr	r0, [fp, -#508]
    17f8:	e24b1040 	sub	r1, fp, #64	; 0x40
    17fc:	ebfffdc5 	bl	f18 <__sprint>
    1800:	e3500000 	cmp	r0, #0	; 0x0
    1804:	0affffe1 	beq	1790 <_vfprintf_r+0x720>
    1808:	eafffff3 	b	17dc <_vfprintf_r+0x76c>
    180c:	ebfffdc1 	bl	f18 <__sprint>
    1810:	e3500000 	cmp	r0, #0	; 0x0
    1814:	e24b7080 	sub	r7, fp, #128	; 0x80
    1818:	0affffcf 	beq	175c <_vfprintf_r+0x6ec>
    181c:	eaffffee 	b	17dc <_vfprintf_r+0x76c>
    1820:	e51b01fc 	ldr	r0, [fp, -#508]
    1824:	e24b1040 	sub	r1, fp, #64	; 0x40
    1828:	ebfffdba 	bl	f18 <__sprint>
    182c:	e3500000 	cmp	r0, #0	; 0x0
    1830:	1affffe9 	bne	17dc <_vfprintf_r+0x76c>
    1834:	e24b7080 	sub	r7, fp, #128	; 0x80
    1838:	eaffffad 	b	16f4 <_vfprintf_r+0x684>
    183c:	e3590065 	cmp	r9, #101	; 0x65
    1840:	da000149 	ble	1d6c <_vfprintf_r+0xcfc>
    1844:	e24bce21 	sub	ip, fp, #528	; 0x210
    1848:	e28f2fe9 	add	r2, pc, #932	; 0x3a4
    184c:	e892000c 	ldmia	r2, {r2, r3}
    1850:	e91c0003 	ldmdb	ip, {r0, r1}
    1854:	eb001cc4 	bl	8b6c <__eqdf2>
    1858:	e3500000 	cmp	r0, #0	; 0x0
    185c:	1a000052 	bne	19ac <_vfprintf_r+0x93c>
    1860:	e24b103c 	sub	r1, fp, #60	; 0x3c
    1864:	e8910006 	ldmia	r1, {r1, r2}
    1868:	e2811001 	add	r1, r1, #1	; 0x1
    186c:	e59f3374 	ldr	r3, [pc, #884]	; 1be8 <_vfprintf_r+0xb78>
    1870:	e2822001 	add	r2, r2, #1	; 0x1
    1874:	e3a04001 	mov	r4, #1	; 0x1
    1878:	e3510007 	cmp	r1, #7	; 0x7
    187c:	e8870018 	stmia	r7, {r3, r4}
    1880:	e50b2038 	str	r2, [fp, -#56]
    1884:	e50b103c 	str	r1, [fp, -#60]
    1888:	e2877008 	add	r7, r7, #8	; 0x8
    188c:	ca00003f 	bgt	1990 <_vfprintf_r+0x920>
    1890:	e51b51f4 	ldr	r5, [fp, -#500]
    1894:	e51b31f0 	ldr	r3, [fp, -#496]
    1898:	e1530005 	cmp	r3, r5
    189c:	ba000002 	blt	18ac <_vfprintf_r+0x83c>
    18a0:	e51be204 	ldr	lr, [fp, -#516]
    18a4:	e31e0001 	tst	lr, #1	; 0x1
    18a8:	0affff91 	beq	16f4 <_vfprintf_r+0x684>
    18ac:	e24b203c 	sub	r2, fp, #60	; 0x3c
    18b0:	e892000c 	ldmia	r2, {r2, r3}
    18b4:	e2822001 	add	r2, r2, #1	; 0x1
    18b8:	e51b0210 	ldr	r0, [fp, -#528]
    18bc:	e2833001 	add	r3, r3, #1	; 0x1
    18c0:	e3520007 	cmp	r2, #7	; 0x7
    18c4:	e8870011 	stmia	r7, {r0, r4}
    18c8:	e50b3038 	str	r3, [fp, -#56]
    18cc:	e50b203c 	str	r2, [fp, -#60]
    18d0:	e2877008 	add	r7, r7, #8	; 0x8
    18d4:	ca000025 	bgt	1970 <_vfprintf_r+0x900>
    18d8:	e2455001 	sub	r5, r5, #1	; 0x1
    18dc:	e3550000 	cmp	r5, #0	; 0x0
    18e0:	daffff83 	ble	16f4 <_vfprintf_r+0x684>
    18e4:	e3550010 	cmp	r5, #16	; 0x10
    18e8:	da00001e 	ble	1968 <_vfprintf_r+0x8f8>
    18ec:	e59f42f8 	ldr	r4, [pc, #760]	; 1bec <_vfprintf_r+0xb7c>
    18f0:	e51b303c 	ldr	r3, [fp, -#60]
    18f4:	e51b2038 	ldr	r2, [fp, -#56]
    18f8:	e2833001 	add	r3, r3, #1	; 0x1
    18fc:	e2822010 	add	r2, r2, #16	; 0x10
    1900:	e3a0c010 	mov	ip, #16	; 0x10
    1904:	e3530007 	cmp	r3, #7	; 0x7
    1908:	e8871010 	stmia	r7, {r4, ip}
    190c:	e2455010 	sub	r5, r5, #16	; 0x10
    1910:	e51b01fc 	ldr	r0, [fp, -#508]
    1914:	e24b1040 	sub	r1, fp, #64	; 0x40
    1918:	e50b2038 	str	r2, [fp, -#56]
    191c:	e50b303c 	str	r3, [fp, -#60]
    1920:	e2877008 	add	r7, r7, #8	; 0x8
    1924:	ca00000a 	bgt	1954 <_vfprintf_r+0x8e4>
    1928:	e3550010 	cmp	r5, #16	; 0x10
    192c:	caffffef 	bgt	18f0 <_vfprintf_r+0x880>
    1930:	e24b203c 	sub	r2, fp, #60	; 0x3c
    1934:	e892000c 	ldmia	r2, {r2, r3}
    1938:	e0833005 	add	r3, r3, r5
    193c:	e2822001 	add	r2, r2, #1	; 0x1
    1940:	e5874000 	str	r4, [r7]
    1944:	e50b3038 	str	r3, [fp, -#56]
    1948:	e5875004 	str	r5, [r7, #4]
    194c:	e3520007 	cmp	r2, #7	; 0x7
    1950:	eaffff64 	b	16e8 <_vfprintf_r+0x678>
    1954:	ebfffd6f 	bl	f18 <__sprint>
    1958:	e3500000 	cmp	r0, #0	; 0x0
    195c:	e24b7080 	sub	r7, fp, #128	; 0x80
    1960:	0afffff0 	beq	1928 <_vfprintf_r+0x8b8>
    1964:	eaffff9c 	b	17dc <_vfprintf_r+0x76c>
    1968:	e59f427c 	ldr	r4, [pc, #636]	; 1bec <_vfprintf_r+0xb7c>
    196c:	eaffffef 	b	1930 <_vfprintf_r+0x8c0>
    1970:	e51b01fc 	ldr	r0, [fp, -#508]
    1974:	e24b1040 	sub	r1, fp, #64	; 0x40
    1978:	ebfffd66 	bl	f18 <__sprint>
    197c:	e3500000 	cmp	r0, #0	; 0x0
    1980:	1affff95 	bne	17dc <_vfprintf_r+0x76c>
    1984:	e51b51f4 	ldr	r5, [fp, -#500]
    1988:	e24b7080 	sub	r7, fp, #128	; 0x80
    198c:	eaffffd1 	b	18d8 <_vfprintf_r+0x868>
    1990:	e51b01fc 	ldr	r0, [fp, -#508]
    1994:	e24b1040 	sub	r1, fp, #64	; 0x40
    1998:	ebfffd5e 	bl	f18 <__sprint>
    199c:	e3500000 	cmp	r0, #0	; 0x0
    19a0:	1affff8d 	bne	17dc <_vfprintf_r+0x76c>
    19a4:	e24b7080 	sub	r7, fp, #128	; 0x80
    19a8:	eaffffb8 	b	1890 <_vfprintf_r+0x820>
    19ac:	e51bc1f0 	ldr	ip, [fp, -#496]
    19b0:	e35c0000 	cmp	ip, #0	; 0x0
    19b4:	da000090 	ble	1bfc <_vfprintf_r+0xb8c>
    19b8:	e51b51f4 	ldr	r5, [fp, -#500]
    19bc:	e15c0005 	cmp	ip, r5
    19c0:	ba000050 	blt	1b08 <_vfprintf_r+0xa98>
    19c4:	e24b203c 	sub	r2, fp, #60	; 0x3c
    19c8:	e892000c 	ldmia	r2, {r2, r3}
    19cc:	e2822001 	add	r2, r2, #1	; 0x1
    19d0:	e0833005 	add	r3, r3, r5
    19d4:	e3520007 	cmp	r2, #7	; 0x7
    19d8:	e587a000 	str	sl, [r7]
    19dc:	e5875004 	str	r5, [r7, #4]
    19e0:	e50b3038 	str	r3, [fp, -#56]
    19e4:	e50b203c 	str	r2, [fp, -#60]
    19e8:	e2877008 	add	r7, r7, #8	; 0x8
    19ec:	ca00003c 	bgt	1ae4 <_vfprintf_r+0xa74>
    19f0:	e065500c 	rsb	r5, r5, ip
    19f4:	e3550000 	cmp	r5, #0	; 0x0
    19f8:	da00001c 	ble	1a70 <_vfprintf_r+0xa00>
    19fc:	e3550010 	cmp	r5, #16	; 0x10
    1a00:	da000035 	ble	1adc <_vfprintf_r+0xa6c>
    1a04:	e59f41e0 	ldr	r4, [pc, #480]	; 1bec <_vfprintf_r+0xb7c>
    1a08:	e51b303c 	ldr	r3, [fp, -#60]
    1a0c:	e51b2038 	ldr	r2, [fp, -#56]
    1a10:	e2833001 	add	r3, r3, #1	; 0x1
    1a14:	e2822010 	add	r2, r2, #16	; 0x10
    1a18:	e3a0c010 	mov	ip, #16	; 0x10
    1a1c:	e3530007 	cmp	r3, #7	; 0x7
    1a20:	e8871010 	stmia	r7, {r4, ip}
    1a24:	e2455010 	sub	r5, r5, #16	; 0x10
    1a28:	e51b01fc 	ldr	r0, [fp, -#508]
    1a2c:	e24b1040 	sub	r1, fp, #64	; 0x40
    1a30:	e50b2038 	str	r2, [fp, -#56]
    1a34:	e50b303c 	str	r3, [fp, -#60]
    1a38:	e2877008 	add	r7, r7, #8	; 0x8
    1a3c:	ca000021 	bgt	1ac8 <_vfprintf_r+0xa58>
    1a40:	e3550010 	cmp	r5, #16	; 0x10
    1a44:	caffffef 	bgt	1a08 <_vfprintf_r+0x998>
    1a48:	e24b203c 	sub	r2, fp, #60	; 0x3c
    1a4c:	e892000c 	ldmia	r2, {r2, r3}
    1a50:	e2822001 	add	r2, r2, #1	; 0x1
    1a54:	e0833005 	add	r3, r3, r5
    1a58:	e3520007 	cmp	r2, #7	; 0x7
    1a5c:	e8870030 	stmia	r7, {r4, r5}
    1a60:	e50b3038 	str	r3, [fp, -#56]
    1a64:	e50b203c 	str	r2, [fp, -#60]
    1a68:	e2877008 	add	r7, r7, #8	; 0x8
    1a6c:	ca00000e 	bgt	1aac <_vfprintf_r+0xa3c>
    1a70:	e51b2204 	ldr	r2, [fp, -#516]
    1a74:	e3120001 	tst	r2, #1	; 0x1
    1a78:	0affff1d 	beq	16f4 <_vfprintf_r+0x684>
    1a7c:	e24b003c 	sub	r0, fp, #60	; 0x3c
    1a80:	e8900003 	ldmia	r0, {r0, r1}
    1a84:	e2800001 	add	r0, r0, #1	; 0x1
    1a88:	e59f3154 	ldr	r3, [pc, #340]	; 1be4 <_vfprintf_r+0xb74>
    1a8c:	e2811001 	add	r1, r1, #1	; 0x1
    1a90:	e3a02001 	mov	r2, #1	; 0x1
    1a94:	e3500007 	cmp	r0, #7	; 0x7
    1a98:	e5873000 	str	r3, [r7]
    1a9c:	e5872004 	str	r2, [r7, #4]
    1aa0:	e50b1038 	str	r1, [fp, -#56]
    1aa4:	e50b003c 	str	r0, [fp, -#60]
    1aa8:	eaffff0f 	b	16ec <_vfprintf_r+0x67c>
    1aac:	e51b01fc 	ldr	r0, [fp, -#508]
    1ab0:	e24b1040 	sub	r1, fp, #64	; 0x40
    1ab4:	ebfffd17 	bl	f18 <__sprint>
    1ab8:	e3500000 	cmp	r0, #0	; 0x0
    1abc:	1affff46 	bne	17dc <_vfprintf_r+0x76c>
    1ac0:	e24b7080 	sub	r7, fp, #128	; 0x80
    1ac4:	eaffffe9 	b	1a70 <_vfprintf_r+0xa00>
    1ac8:	ebfffd12 	bl	f18 <__sprint>
    1acc:	e3500000 	cmp	r0, #0	; 0x0
    1ad0:	e24b7080 	sub	r7, fp, #128	; 0x80
    1ad4:	0affffd9 	beq	1a40 <_vfprintf_r+0x9d0>
    1ad8:	eaffff3f 	b	17dc <_vfprintf_r+0x76c>
    1adc:	e59f4108 	ldr	r4, [pc, #264]	; 1bec <_vfprintf_r+0xb7c>
    1ae0:	eaffffd8 	b	1a48 <_vfprintf_r+0x9d8>
    1ae4:	e51b01fc 	ldr	r0, [fp, -#508]
    1ae8:	e24b1040 	sub	r1, fp, #64	; 0x40
    1aec:	ebfffd09 	bl	f18 <__sprint>
    1af0:	e3500000 	cmp	r0, #0	; 0x0
    1af4:	1affff38 	bne	17dc <_vfprintf_r+0x76c>
    1af8:	e24b5f7d 	sub	r5, fp, #500	; 0x1f4
    1afc:	e8951020 	ldmia	r5, {r5, ip}
    1b00:	e24b7080 	sub	r7, fp, #128	; 0x80
    1b04:	eaffffb9 	b	19f0 <_vfprintf_r+0x980>
    1b08:	e24b203c 	sub	r2, fp, #60	; 0x3c
    1b0c:	e892000c 	ldmia	r2, {r2, r3}
    1b10:	e2822001 	add	r2, r2, #1	; 0x1
    1b14:	e083300c 	add	r3, r3, ip
    1b18:	e3520007 	cmp	r2, #7	; 0x7
    1b1c:	e8871400 	stmia	r7, {sl, ip}
    1b20:	e50b3038 	str	r3, [fp, -#56]
    1b24:	e50b203c 	str	r2, [fp, -#60]
    1b28:	e2877008 	add	r7, r7, #8	; 0x8
    1b2c:	ca000020 	bgt	1bb4 <_vfprintf_r+0xb44>
    1b30:	e24b003c 	sub	r0, fp, #60	; 0x3c
    1b34:	e8900003 	ldmia	r0, {r0, r1}
    1b38:	e2800001 	add	r0, r0, #1	; 0x1
    1b3c:	e59f30a0 	ldr	r3, [pc, #160]	; 1be4 <_vfprintf_r+0xb74>
    1b40:	e2811001 	add	r1, r1, #1	; 0x1
    1b44:	e3a02001 	mov	r2, #1	; 0x1
    1b48:	e3500007 	cmp	r0, #7	; 0x7
    1b4c:	e5873000 	str	r3, [r7]
    1b50:	e5872004 	str	r2, [r7, #4]
    1b54:	e50b1038 	str	r1, [fp, -#56]
    1b58:	e50b003c 	str	r0, [fp, -#60]
    1b5c:	e08aa00c 	add	sl, sl, ip
    1b60:	e2877008 	add	r7, r7, #8	; 0x8
    1b64:	ca00000a 	bgt	1b94 <_vfprintf_r+0xb24>
    1b68:	e51b11f4 	ldr	r1, [fp, -#500]
    1b6c:	e06c1001 	rsb	r1, ip, r1
    1b70:	e24b203c 	sub	r2, fp, #60	; 0x3c
    1b74:	e892000c 	ldmia	r2, {r2, r3}
    1b78:	e2822001 	add	r2, r2, #1	; 0x1
    1b7c:	e0833001 	add	r3, r3, r1
    1b80:	e3520007 	cmp	r2, #7	; 0x7
    1b84:	e587a000 	str	sl, [r7]
    1b88:	e50b3038 	str	r3, [fp, -#56]
    1b8c:	e5871004 	str	r1, [r7, #4]
    1b90:	eafffed4 	b	16e8 <_vfprintf_r+0x678>
    1b94:	e51b01fc 	ldr	r0, [fp, -#508]
    1b98:	e24b1040 	sub	r1, fp, #64	; 0x40
    1b9c:	ebfffcdd 	bl	f18 <__sprint>
    1ba0:	e3500000 	cmp	r0, #0	; 0x0
    1ba4:	1affff0c 	bne	17dc <_vfprintf_r+0x76c>
    1ba8:	e51bc1f0 	ldr	ip, [fp, -#496]
    1bac:	e24b7080 	sub	r7, fp, #128	; 0x80
    1bb0:	eaffffec 	b	1b68 <_vfprintf_r+0xaf8>
    1bb4:	e51b01fc 	ldr	r0, [fp, -#508]
    1bb8:	e24b1040 	sub	r1, fp, #64	; 0x40
    1bbc:	ebfffcd5 	bl	f18 <__sprint>
    1bc0:	e3500000 	cmp	r0, #0	; 0x0
    1bc4:	1affff04 	bne	17dc <_vfprintf_r+0x76c>
    1bc8:	e51bc1f0 	ldr	ip, [fp, -#496]
    1bcc:	e24b7080 	sub	r7, fp, #128	; 0x80
    1bd0:	eaffffd6 	b	1b30 <_vfprintf_r+0xac0>
    1bd4:	4000039c 	mulmi	r0, ip, r3
    1bd8:	400003a0 	andmi	r0, r0, r0, lsr #7
    1bdc:	00009a54 	andeq	r9, r0, r4, asr sl
    1be0:	0000977c 	andeq	r9, r0, ip, ror r7
    1be4:	00009a70 	andeq	r9, r0, r0, ror sl
    1be8:	00009a74 	andeq	r9, r0, r4, ror sl
    1bec:	0000978c 	andeq	r9, r0, ip, lsl #15
    1bf0:	00009a78 	andeq	r9, r0, r8, ror sl
	...
    1bfc:	e24b103c 	sub	r1, fp, #60	; 0x3c
    1c00:	e8910006 	ldmia	r1, {r1, r2}
    1c04:	e2811001 	add	r1, r1, #1	; 0x1
    1c08:	e51f3028 	ldr	r3, [pc, #-40]	; 1be8 <_vfprintf_r+0xb78>
    1c0c:	e2822001 	add	r2, r2, #1	; 0x1
    1c10:	e3a04001 	mov	r4, #1	; 0x1
    1c14:	e3510007 	cmp	r1, #7	; 0x7
    1c18:	e8870018 	stmia	r7, {r3, r4}
    1c1c:	e50b2038 	str	r2, [fp, -#56]
    1c20:	e50b103c 	str	r1, [fp, -#60]
    1c24:	e2877008 	add	r7, r7, #8	; 0x8
    1c28:	ca000047 	bgt	1d4c <_vfprintf_r+0xcdc>
    1c2c:	e35c0000 	cmp	ip, #0	; 0x0
    1c30:	1a000002 	bne	1c40 <_vfprintf_r+0xbd0>
    1c34:	e51b31f4 	ldr	r3, [fp, -#500]
    1c38:	e3530000 	cmp	r3, #0	; 0x0
    1c3c:	0afffeac 	beq	16f4 <_vfprintf_r+0x684>
    1c40:	e24b203c 	sub	r2, fp, #60	; 0x3c
    1c44:	e892000c 	ldmia	r2, {r2, r3}
    1c48:	e2822001 	add	r2, r2, #1	; 0x1
    1c4c:	e51b1210 	ldr	r1, [fp, -#528]
    1c50:	e2833001 	add	r3, r3, #1	; 0x1
    1c54:	e3520007 	cmp	r2, #7	; 0x7
    1c58:	e8870012 	stmia	r7, {r1, r4}
    1c5c:	e50b3038 	str	r3, [fp, -#56]
    1c60:	e50b203c 	str	r2, [fp, -#60]
    1c64:	e2877008 	add	r7, r7, #8	; 0x8
    1c68:	ca00002f 	bgt	1d2c <_vfprintf_r+0xcbc>
    1c6c:	e26c5000 	rsb	r5, ip, #0	; 0x0
    1c70:	e3550000 	cmp	r5, #0	; 0x0
    1c74:	da00001c 	ble	1cec <_vfprintf_r+0xc7c>
    1c78:	e3550010 	cmp	r5, #16	; 0x10
    1c7c:	da000028 	ble	1d24 <_vfprintf_r+0xcb4>
    1c80:	e51f409c 	ldr	r4, [pc, #-156]	; 1bec <_vfprintf_r+0xb7c>
    1c84:	e51b303c 	ldr	r3, [fp, -#60]
    1c88:	e51b2038 	ldr	r2, [fp, -#56]
    1c8c:	e2833001 	add	r3, r3, #1	; 0x1
    1c90:	e2822010 	add	r2, r2, #16	; 0x10
    1c94:	e3a0c010 	mov	ip, #16	; 0x10
    1c98:	e3530007 	cmp	r3, #7	; 0x7
    1c9c:	e8871010 	stmia	r7, {r4, ip}
    1ca0:	e2455010 	sub	r5, r5, #16	; 0x10
    1ca4:	e51b01fc 	ldr	r0, [fp, -#508]
    1ca8:	e24b1040 	sub	r1, fp, #64	; 0x40
    1cac:	e50b2038 	str	r2, [fp, -#56]
    1cb0:	e50b303c 	str	r3, [fp, -#60]
    1cb4:	e2877008 	add	r7, r7, #8	; 0x8
    1cb8:	ca000014 	bgt	1d10 <_vfprintf_r+0xca0>
    1cbc:	e3550010 	cmp	r5, #16	; 0x10
    1cc0:	caffffef 	bgt	1c84 <_vfprintf_r+0xc14>
    1cc4:	e24b203c 	sub	r2, fp, #60	; 0x3c
    1cc8:	e892000c 	ldmia	r2, {r2, r3}
    1ccc:	e2822001 	add	r2, r2, #1	; 0x1
    1cd0:	e0833005 	add	r3, r3, r5
    1cd4:	e3520007 	cmp	r2, #7	; 0x7
    1cd8:	e8870030 	stmia	r7, {r4, r5}
    1cdc:	e50b3038 	str	r3, [fp, -#56]
    1ce0:	e50b203c 	str	r2, [fp, -#60]
    1ce4:	e2877008 	add	r7, r7, #8	; 0x8
    1ce8:	ca000001 	bgt	1cf4 <_vfprintf_r+0xc84>
    1cec:	e51b11f4 	ldr	r1, [fp, -#500]
    1cf0:	eaffff9e 	b	1b70 <_vfprintf_r+0xb00>
    1cf4:	e51b01fc 	ldr	r0, [fp, -#508]
    1cf8:	e24b1040 	sub	r1, fp, #64	; 0x40
    1cfc:	ebfffc85 	bl	f18 <__sprint>
    1d00:	e3500000 	cmp	r0, #0	; 0x0
    1d04:	1afffeb4 	bne	17dc <_vfprintf_r+0x76c>
    1d08:	e24b7080 	sub	r7, fp, #128	; 0x80
    1d0c:	eafffff6 	b	1cec <_vfprintf_r+0xc7c>
    1d10:	ebfffc80 	bl	f18 <__sprint>
    1d14:	e3500000 	cmp	r0, #0	; 0x0
    1d18:	e24b7080 	sub	r7, fp, #128	; 0x80
    1d1c:	0affffe6 	beq	1cbc <_vfprintf_r+0xc4c>
    1d20:	eafffead 	b	17dc <_vfprintf_r+0x76c>
    1d24:	e51f4140 	ldr	r4, [pc, #-320]	; 1bec <_vfprintf_r+0xb7c>
    1d28:	eaffffe5 	b	1cc4 <_vfprintf_r+0xc54>
    1d2c:	e51b01fc 	ldr	r0, [fp, -#508]
    1d30:	e24b1040 	sub	r1, fp, #64	; 0x40
    1d34:	ebfffc77 	bl	f18 <__sprint>
    1d38:	e3500000 	cmp	r0, #0	; 0x0
    1d3c:	1afffea6 	bne	17dc <_vfprintf_r+0x76c>
    1d40:	e51bc1f0 	ldr	ip, [fp, -#496]
    1d44:	e24b7080 	sub	r7, fp, #128	; 0x80
    1d48:	eaffffc7 	b	1c6c <_vfprintf_r+0xbfc>
    1d4c:	e51b01fc 	ldr	r0, [fp, -#508]
    1d50:	e24b1040 	sub	r1, fp, #64	; 0x40
    1d54:	ebfffc6f 	bl	f18 <__sprint>
    1d58:	e3500000 	cmp	r0, #0	; 0x0
    1d5c:	1afffe9e 	bne	17dc <_vfprintf_r+0x76c>
    1d60:	e51bc1f0 	ldr	ip, [fp, -#496]
    1d64:	e24b7080 	sub	r7, fp, #128	; 0x80
    1d68:	eaffffaf 	b	1c2c <_vfprintf_r+0xbbc>
    1d6c:	e51b51f4 	ldr	r5, [fp, -#500]
    1d70:	e3550001 	cmp	r5, #1	; 0x1
    1d74:	da00006b 	ble	1f28 <_vfprintf_r+0xeb8>
    1d78:	e4dae001 	ldrb	lr, [sl], #1
    1d7c:	e51bc03c 	ldr	ip, [fp, -#60]
    1d80:	e51b2038 	ldr	r2, [fp, -#56]
    1d84:	e3a01492 	mov	r1, #-1845493760	; 0x92000000
    1d88:	e24b3028 	sub	r3, fp, #40	; 0x28
    1d8c:	e3e00f6d 	mvn	r0, #436	; 0x1b4
    1d90:	e1a01b41 	mov	r1, r1, asr #22
    1d94:	e7c3e001 	strb	lr, [r3, r1]
    1d98:	e28cc001 	add	ip, ip, #1	; 0x1
    1d9c:	e2822002 	add	r2, r2, #2	; 0x2
    1da0:	e3a0302e 	mov	r3, #46	; 0x2e
    1da4:	e2400002 	sub	r0, r0, #2	; 0x2
    1da8:	e24be028 	sub	lr, fp, #40	; 0x28
    1dac:	e7ce3000 	strb	r3, [lr, r0]
    1db0:	e50b2038 	str	r2, [fp, -#56]
    1db4:	e24b3e1e 	sub	r3, fp, #480	; 0x1e0
    1db8:	e3a02002 	mov	r2, #2	; 0x2
    1dbc:	e35c0007 	cmp	ip, #7	; 0x7
    1dc0:	e5873000 	str	r3, [r7]
    1dc4:	e5872004 	str	r2, [r7, #4]
    1dc8:	e50bc03c 	str	ip, [fp, -#60]
    1dcc:	e2877008 	add	r7, r7, #8	; 0x8
    1dd0:	ca00004c 	bgt	1f08 <_vfprintf_r+0xe98>
    1dd4:	e24bce21 	sub	ip, fp, #528	; 0x210
    1dd8:	e24f2f7b 	sub	r2, pc, #492	; 0x1ec
    1ddc:	e892000c 	ldmia	r2, {r2, r3}
    1de0:	e91c0003 	ldmdb	ip, {r0, r1}
    1de4:	eb001b87 	bl	8c08 <__nedf2>
    1de8:	e3500000 	cmp	r0, #0	; 0x0
    1dec:	0a00001f 	beq	1e70 <_vfprintf_r+0xe00>
    1df0:	e24b203c 	sub	r2, fp, #60	; 0x3c
    1df4:	e892000c 	ldmia	r2, {r2, r3}
    1df8:	e0833005 	add	r3, r3, r5
    1dfc:	e2822001 	add	r2, r2, #1	; 0x1
    1e00:	e2433001 	sub	r3, r3, #1	; 0x1
    1e04:	e2451001 	sub	r1, r5, #1	; 0x1
    1e08:	e3520007 	cmp	r2, #7	; 0x7
    1e0c:	e587a000 	str	sl, [r7]
    1e10:	e5871004 	str	r1, [r7, #4]
    1e14:	e50b3038 	str	r3, [fp, -#56]
    1e18:	e50b203c 	str	r2, [fp, -#60]
    1e1c:	e2877008 	add	r7, r7, #8	; 0x8
    1e20:	ca00000b 	bgt	1e54 <_vfprintf_r+0xde4>
    1e24:	e51b303c 	ldr	r3, [fp, -#60]
    1e28:	e51b2038 	ldr	r2, [fp, -#56]
    1e2c:	e51be21c 	ldr	lr, [fp, -#540]
    1e30:	e2833001 	add	r3, r3, #1	; 0x1
    1e34:	e082200e 	add	r2, r2, lr
    1e38:	e24b1034 	sub	r1, fp, #52	; 0x34
    1e3c:	e5871000 	str	r1, [r7]
    1e40:	e50b2038 	str	r2, [fp, -#56]
    1e44:	e587e004 	str	lr, [r7, #4]
    1e48:	e50b303c 	str	r3, [fp, -#60]
    1e4c:	e3530007 	cmp	r3, #7	; 0x7
    1e50:	eafffe25 	b	16ec <_vfprintf_r+0x67c>
    1e54:	e51b01fc 	ldr	r0, [fp, -#508]
    1e58:	e24b1040 	sub	r1, fp, #64	; 0x40
    1e5c:	ebfffc2d 	bl	f18 <__sprint>
    1e60:	e3500000 	cmp	r0, #0	; 0x0
    1e64:	1afffe5c 	bne	17dc <_vfprintf_r+0x76c>
    1e68:	e24b7080 	sub	r7, fp, #128	; 0x80
    1e6c:	eaffffec 	b	1e24 <_vfprintf_r+0xdb4>
    1e70:	e2455001 	sub	r5, r5, #1	; 0x1
    1e74:	e3550000 	cmp	r5, #0	; 0x0
    1e78:	daffffe9 	ble	1e24 <_vfprintf_r+0xdb4>
    1e7c:	e3550010 	cmp	r5, #16	; 0x10
    1e80:	da00001e 	ble	1f00 <_vfprintf_r+0xe90>
    1e84:	e51f42a0 	ldr	r4, [pc, #-672]	; 1bec <_vfprintf_r+0xb7c>
    1e88:	e51b303c 	ldr	r3, [fp, -#60]
    1e8c:	e51b2038 	ldr	r2, [fp, -#56]
    1e90:	e2833001 	add	r3, r3, #1	; 0x1
    1e94:	e2822010 	add	r2, r2, #16	; 0x10
    1e98:	e3a0c010 	mov	ip, #16	; 0x10
    1e9c:	e3530007 	cmp	r3, #7	; 0x7
    1ea0:	e8871010 	stmia	r7, {r4, ip}
    1ea4:	e2455010 	sub	r5, r5, #16	; 0x10
    1ea8:	e51b01fc 	ldr	r0, [fp, -#508]
    1eac:	e24b1040 	sub	r1, fp, #64	; 0x40
    1eb0:	e50b2038 	str	r2, [fp, -#56]
    1eb4:	e50b303c 	str	r3, [fp, -#60]
    1eb8:	e2877008 	add	r7, r7, #8	; 0x8
    1ebc:	ca00000a 	bgt	1eec <_vfprintf_r+0xe7c>
    1ec0:	e3550010 	cmp	r5, #16	; 0x10
    1ec4:	caffffef 	bgt	1e88 <_vfprintf_r+0xe18>
    1ec8:	e24b203c 	sub	r2, fp, #60	; 0x3c
    1ecc:	e892000c 	ldmia	r2, {r2, r3}
    1ed0:	e0833005 	add	r3, r3, r5
    1ed4:	e2822001 	add	r2, r2, #1	; 0x1
    1ed8:	e5874000 	str	r4, [r7]
    1edc:	e50b3038 	str	r3, [fp, -#56]
    1ee0:	e5875004 	str	r5, [r7, #4]
    1ee4:	e3520007 	cmp	r2, #7	; 0x7
    1ee8:	eaffffca 	b	1e18 <_vfprintf_r+0xda8>
    1eec:	ebfffc09 	bl	f18 <__sprint>
    1ef0:	e3500000 	cmp	r0, #0	; 0x0
    1ef4:	e24b7080 	sub	r7, fp, #128	; 0x80
    1ef8:	0afffff0 	beq	1ec0 <_vfprintf_r+0xe50>
    1efc:	eafffe36 	b	17dc <_vfprintf_r+0x76c>
    1f00:	e51f431c 	ldr	r4, [pc, #-796]	; 1bec <_vfprintf_r+0xb7c>
    1f04:	eaffffef 	b	1ec8 <_vfprintf_r+0xe58>
    1f08:	e51b01fc 	ldr	r0, [fp, -#508]
    1f0c:	e24b1040 	sub	r1, fp, #64	; 0x40
    1f10:	ebfffc00 	bl	f18 <__sprint>
    1f14:	e3500000 	cmp	r0, #0	; 0x0
    1f18:	1afffe2f 	bne	17dc <_vfprintf_r+0x76c>
    1f1c:	e51b51f4 	ldr	r5, [fp, -#500]
    1f20:	e24b7080 	sub	r7, fp, #128	; 0x80
    1f24:	eaffffaa 	b	1dd4 <_vfprintf_r+0xd64>
    1f28:	e51b3204 	ldr	r3, [fp, -#516]
    1f2c:	e3130001 	tst	r3, #1	; 0x1
    1f30:	1affff90 	bne	1d78 <_vfprintf_r+0xd08>
    1f34:	e24b103c 	sub	r1, fp, #60	; 0x3c
    1f38:	e8910006 	ldmia	r1, {r1, r2}
    1f3c:	e2811001 	add	r1, r1, #1	; 0x1
    1f40:	e2822001 	add	r2, r2, #1	; 0x1
    1f44:	e3a03001 	mov	r3, #1	; 0x1
    1f48:	e587a000 	str	sl, [r7]
    1f4c:	e5873004 	str	r3, [r7, #4]
    1f50:	e50b2038 	str	r2, [fp, -#56]
    1f54:	e50b103c 	str	r1, [fp, -#60]
    1f58:	e3510007 	cmp	r1, #7	; 0x7
    1f5c:	eaffffae 	b	1e1c <_vfprintf_r+0xdac>
    1f60:	e51b01fc 	ldr	r0, [fp, -#508]
    1f64:	e24b1040 	sub	r1, fp, #64	; 0x40
    1f68:	ebfffbea 	bl	f18 <__sprint>
    1f6c:	e3500000 	cmp	r0, #0	; 0x0
    1f70:	1afffe19 	bne	17dc <_vfprintf_r+0x76c>
    1f74:	e24b7080 	sub	r7, fp, #128	; 0x80
    1f78:	eafffdcf 	b	16bc <_vfprintf_r+0x64c>
    1f7c:	ebfffbe5 	bl	f18 <__sprint>
    1f80:	e3500000 	cmp	r0, #0	; 0x0
    1f84:	e24b7080 	sub	r7, fp, #128	; 0x80
    1f88:	0afffdbf 	beq	168c <_vfprintf_r+0x61c>
    1f8c:	eafffe12 	b	17dc <_vfprintf_r+0x76c>
    1f90:	e51f43ac 	ldr	r4, [pc, #-940]	; 1bec <_vfprintf_r+0xb7c>
    1f94:	eafffdbe 	b	1694 <_vfprintf_r+0x624>
    1f98:	e51b220c 	ldr	r2, [fp, -#524]
    1f9c:	e51b3224 	ldr	r3, [fp, -#548]
    1fa0:	e0635002 	rsb	r5, r3, r2
    1fa4:	e3550000 	cmp	r5, #0	; 0x0
    1fa8:	dafffda2 	ble	1638 <_vfprintf_r+0x5c8>
    1fac:	e3550010 	cmp	r5, #16	; 0x10
    1fb0:	da000026 	ble	2050 <_vfprintf_r+0xfe0>
    1fb4:	e51f43d0 	ldr	r4, [pc, #-976]	; 1bec <_vfprintf_r+0xb7c>
    1fb8:	e51b303c 	ldr	r3, [fp, -#60]
    1fbc:	e51b2038 	ldr	r2, [fp, -#56]
    1fc0:	e2833001 	add	r3, r3, #1	; 0x1
    1fc4:	e2822010 	add	r2, r2, #16	; 0x10
    1fc8:	e3a0c010 	mov	ip, #16	; 0x10
    1fcc:	e3530007 	cmp	r3, #7	; 0x7
    1fd0:	e8871010 	stmia	r7, {r4, ip}
    1fd4:	e2455010 	sub	r5, r5, #16	; 0x10
    1fd8:	e51b01fc 	ldr	r0, [fp, -#508]
    1fdc:	e24b1040 	sub	r1, fp, #64	; 0x40
    1fe0:	e50b2038 	str	r2, [fp, -#56]
    1fe4:	e50b303c 	str	r3, [fp, -#60]
    1fe8:	e2877008 	add	r7, r7, #8	; 0x8
    1fec:	ca000012 	bgt	203c <_vfprintf_r+0xfcc>
    1ff0:	e3550010 	cmp	r5, #16	; 0x10
    1ff4:	caffffef 	bgt	1fb8 <_vfprintf_r+0xf48>
    1ff8:	e24b203c 	sub	r2, fp, #60	; 0x3c
    1ffc:	e892000c 	ldmia	r2, {r2, r3}
    2000:	e2822001 	add	r2, r2, #1	; 0x1
    2004:	e0833005 	add	r3, r3, r5
    2008:	e3520007 	cmp	r2, #7	; 0x7
    200c:	e8870030 	stmia	r7, {r4, r5}
    2010:	e50b3038 	str	r3, [fp, -#56]
    2014:	e50b203c 	str	r2, [fp, -#60]
    2018:	e2877008 	add	r7, r7, #8	; 0x8
    201c:	dafffd85 	ble	1638 <_vfprintf_r+0x5c8>
    2020:	e51b01fc 	ldr	r0, [fp, -#508]
    2024:	e24b1040 	sub	r1, fp, #64	; 0x40
    2028:	ebfffbba 	bl	f18 <__sprint>
    202c:	e3500000 	cmp	r0, #0	; 0x0
    2030:	1afffde9 	bne	17dc <_vfprintf_r+0x76c>
    2034:	e24b7080 	sub	r7, fp, #128	; 0x80
    2038:	eafffd7e 	b	1638 <_vfprintf_r+0x5c8>
    203c:	ebfffbb5 	bl	f18 <__sprint>
    2040:	e3500000 	cmp	r0, #0	; 0x0
    2044:	e24b7080 	sub	r7, fp, #128	; 0x80
    2048:	0affffe8 	beq	1ff0 <_vfprintf_r+0xf80>
    204c:	eafffde2 	b	17dc <_vfprintf_r+0x76c>
    2050:	e51f446c 	ldr	r4, [pc, #-1132]	; 1bec <_vfprintf_r+0xb7c>
    2054:	eaffffe7 	b	1ff8 <_vfprintf_r+0xf88>
    2058:	e51b01fc 	ldr	r0, [fp, -#508]
    205c:	e24b1040 	sub	r1, fp, #64	; 0x40
    2060:	ebfffbac 	bl	f18 <__sprint>
    2064:	e3500000 	cmp	r0, #0	; 0x0
    2068:	1afffddb 	bne	17dc <_vfprintf_r+0x76c>
    206c:	e24b7080 	sub	r7, fp, #128	; 0x80
    2070:	eafffd6e 	b	1630 <_vfprintf_r+0x5c0>
    2074:	e51b0204 	ldr	r0, [fp, -#516]
    2078:	e3100002 	tst	r0, #2	; 0x2
    207c:	0afffd6b 	beq	1630 <_vfprintf_r+0x5c0>
    2080:	e51b2038 	ldr	r2, [fp, -#56]
    2084:	e51bc03c 	ldr	ip, [fp, -#60]
    2088:	e3a01492 	mov	r1, #-1845493760	; 0x92000000
    208c:	e2822002 	add	r2, r2, #2	; 0x2
    2090:	e1a01b41 	mov	r1, r1, asr #22
    2094:	e3a03030 	mov	r3, #48	; 0x30
    2098:	e3e00f6d 	mvn	r0, #436	; 0x1b4
    209c:	e24be028 	sub	lr, fp, #40	; 0x28
    20a0:	e7ce3001 	strb	r3, [lr, r1]
    20a4:	e28cc001 	add	ip, ip, #1	; 0x1
    20a8:	e2400002 	sub	r0, r0, #2	; 0x2
    20ac:	e24b1028 	sub	r1, fp, #40	; 0x28
    20b0:	e50b2038 	str	r2, [fp, -#56]
    20b4:	e24b3e1e 	sub	r3, fp, #480	; 0x1e0
    20b8:	e3a02002 	mov	r2, #2	; 0x2
    20bc:	e7c19000 	strb	r9, [r1, r0]
    20c0:	e50bc03c 	str	ip, [fp, -#60]
    20c4:	e5873000 	str	r3, [r7]
    20c8:	e5872004 	str	r2, [r7, #4]
    20cc:	e35c0007 	cmp	ip, #7	; 0x7
    20d0:	eafffd54 	b	1628 <_vfprintf_r+0x5b8>
    20d4:	e51b01fc 	ldr	r0, [fp, -#508]
    20d8:	e24b1040 	sub	r1, fp, #64	; 0x40
    20dc:	ebfffb8d 	bl	f18 <__sprint>
    20e0:	e3500000 	cmp	r0, #0	; 0x0
    20e4:	055b3029 	ldreqb	r3, [fp, -#41]
    20e8:	024b7080 	subeq	r7, fp, #128	; 0x80
    20ec:	0afffd40 	beq	15f4 <_vfprintf_r+0x584>
    20f0:	eafffdb9 	b	17dc <_vfprintf_r+0x76c>
    20f4:	ebfffb87 	bl	f18 <__sprint>
    20f8:	e3500000 	cmp	r0, #0	; 0x0
    20fc:	e24b7080 	sub	r7, fp, #128	; 0x80
    2100:	0afffd2c 	beq	15b8 <_vfprintf_r+0x548>
    2104:	eafffdb4 	b	17dc <_vfprintf_r+0x76c>
    2108:	e1a031a5 	mov	r3, r5, lsr #3
    210c:	e1831e86 	orr	r1, r3, r6, lsl #29
    2110:	e1a021a6 	mov	r2, r6, lsr #3
    2114:	e2050007 	and	r0, r5, #7	; 0x7
    2118:	e1a06002 	mov	r6, r2
    211c:	e1a05001 	mov	r5, r1
    2120:	e2800030 	add	r0, r0, #48	; 0x30
    2124:	e1951006 	orrs	r1, r5, r6
    2128:	e56a0001 	strb	r0, [sl, -#1]!
    212c:	1afffff5 	bne	2108 <_vfprintf_r+0x1098>
    2130:	e51b2204 	ldr	r2, [fp, -#516]
    2134:	e3120001 	tst	r2, #1	; 0x1
    2138:	0a000004 	beq	2150 <_vfprintf_r+0x10e0>
    213c:	e5da3000 	ldrb	r3, [sl]
    2140:	e3530030 	cmp	r3, #48	; 0x30
    2144:	13a03030 	movne	r3, #48	; 0x30
    2148:	0a000000 	beq	2150 <_vfprintf_r+0x10e0>
    214c:	e56a3001 	strb	r3, [sl, -#1]!
    2150:	e24b1028 	sub	r1, fp, #40	; 0x28
    2154:	e06a3001 	rsb	r3, sl, r1
    2158:	e2436058 	sub	r6, r3, #88	; 0x58
    215c:	eafffced 	b	1518 <_vfprintf_r+0x4a8>
    2160:	e3520002 	cmp	r2, #2	; 0x2
    2164:	1afffce7 	bne	1508 <_vfprintf_r+0x498>
    2168:	e1a01225 	mov	r1, r5, lsr #4
    216c:	e51bc228 	ldr	ip, [fp, -#552]
    2170:	e205200f 	and	r2, r5, #15	; 0xf
    2174:	e1813e06 	orr	r3, r1, r6, lsl #28
    2178:	e1a04226 	mov	r4, r6, lsr #4
    217c:	e7dc0002 	ldrb	r0, [ip, r2]
    2180:	e1a06004 	mov	r6, r4
    2184:	e1a05003 	mov	r5, r3
    2188:	e195e006 	orrs	lr, r5, r6
    218c:	e56a0001 	strb	r0, [sl, -#1]!
    2190:	1afffff4 	bne	2168 <_vfprintf_r+0x10f8>
    2194:	eaffffed 	b	2150 <_vfprintf_r+0x10e0>
    2198:	e3560000 	cmp	r6, #0	; 0x0
    219c:	9a000014 	bls	21f4 <_vfprintf_r+0x1184>
    21a0:	e1a01006 	mov	r1, r6
    21a4:	e1a00005 	mov	r0, r5
    21a8:	e3a03000 	mov	r3, #0	; 0x0
    21ac:	e3a0200a 	mov	r2, #10	; 0xa
    21b0:	eb00164a 	bl	7ae0 <__umoddi3>
    21b4:	e2800030 	add	r0, r0, #48	; 0x30
    21b8:	e56a0001 	strb	r0, [sl, -#1]!
    21bc:	e3a03000 	mov	r3, #0	; 0x0
    21c0:	e3a0200a 	mov	r2, #10	; 0xa
    21c4:	e1a01006 	mov	r1, r6
    21c8:	e1a00005 	mov	r0, r5
    21cc:	eb001507 	bl	75f0 <__udivdi3>
    21d0:	e1a06001 	mov	r6, r1
    21d4:	e1a05000 	mov	r5, r0
    21d8:	e3560000 	cmp	r6, #0	; 0x0
    21dc:	8affffef 	bhi	21a0 <_vfprintf_r+0x1130>
    21e0:	1a000001 	bne	21ec <_vfprintf_r+0x117c>
    21e4:	e3500009 	cmp	r0, #9	; 0x9
    21e8:	8affffec 	bhi	21a0 <_vfprintf_r+0x1130>
    21ec:	e2853030 	add	r3, r5, #48	; 0x30
    21f0:	eaffffd5 	b	214c <_vfprintf_r+0x10dc>
    21f4:	1afffffc 	bne	21ec <_vfprintf_r+0x117c>
    21f8:	e3550009 	cmp	r5, #9	; 0x9
    21fc:	8affffe7 	bhi	21a0 <_vfprintf_r+0x1130>
    2200:	eafffff9 	b	21ec <_vfprintf_r+0x117c>
    2204:	e3520000 	cmp	r2, #0	; 0x0
    2208:	1affffd0 	bne	2150 <_vfprintf_r+0x10e0>
    220c:	e51b0204 	ldr	r0, [fp, -#516]
    2210:	e3100001 	tst	r0, #1	; 0x1
    2214:	13a03030 	movne	r3, #48	; 0x30
    2218:	154b3081 	strneb	r3, [fp, -#129]
    221c:	124ba081 	subne	sl, fp, #129	; 0x81
    2220:	eaffffca 	b	2150 <_vfprintf_r+0x10e0>
    2224:	e3a0302d 	mov	r3, #45	; 0x2d
    2228:	e54b3029 	strb	r3, [fp, -#41]
    222c:	e2755000 	rsbs	r5, r5, #0	; 0x0
    2230:	e2e66000 	rsc	r6, r6, #0	; 0x0
    2234:	eafffc9f 	b	14b8 <_vfprintf_r+0x448>
    2238:	e51b2204 	ldr	r2, [fp, -#516]
    223c:	e3120040 	tst	r2, #64	; 0x40
    2240:	151b3200 	ldrne	r3, [fp, -#512]
    2244:	051b3200 	ldreq	r3, [fp, -#512]
    2248:	1283c004 	addne	ip, r3, #4	; 0x4
    224c:	11d350f0 	ldrnesh	r5, [r3]
    2250:	05932000 	ldreq	r2, [r3]
    2254:	0283e004 	addeq	lr, r3, #4	; 0x4
    2258:	150bc200 	strne	ip, [fp, -#512]
    225c:	050be200 	streq	lr, [fp, -#512]
    2260:	11a06fc5 	movne	r6, r5, asr #31
    2264:	01a05002 	moveq	r5, r2
    2268:	01a06fc5 	moveq	r6, r5, asr #31
    226c:	eafffc8f 	b	14b0 <_vfprintf_r+0x440>
    2270:	e51bc204 	ldr	ip, [fp, -#516]
    2274:	e5d82000 	ldrb	r2, [r8]
    2278:	e38cc008 	orr	ip, ip, #8	; 0x8
    227c:	eafffc42 	b	138c <_vfprintf_r+0x31c>
    2280:	e51b0204 	ldr	r0, [fp, -#516]
    2284:	e3800010 	orr	r0, r0, #16	; 0x10
    2288:	e50b0204 	str	r0, [fp, -#516]
    228c:	e51b1204 	ldr	r1, [fp, -#516]
    2290:	e3110010 	tst	r1, #16	; 0x10
    2294:	0a000009 	beq	22c0 <_vfprintf_r+0x1250>
    2298:	e51b3200 	ldr	r3, [fp, -#512]
    229c:	e5932000 	ldr	r2, [r3]
    22a0:	e1a05002 	mov	r5, r2
    22a4:	e3a06000 	mov	r6, #0	; 0x0
    22a8:	e2832004 	add	r2, r3, #4	; 0x4
    22ac:	e50b2200 	str	r2, [fp, -#512]
    22b0:	e3a02000 	mov	r2, #0	; 0x0
    22b4:	e3a03000 	mov	r3, #0	; 0x0
    22b8:	e54b3029 	strb	r3, [fp, -#41]
    22bc:	eafffc7e 	b	14bc <_vfprintf_r+0x44c>
    22c0:	e51b3204 	ldr	r3, [fp, -#516]
    22c4:	e3130040 	tst	r3, #64	; 0x40
    22c8:	151b3200 	ldrne	r3, [fp, -#512]
    22cc:	051b3200 	ldreq	r3, [fp, -#512]
    22d0:	1283c004 	addne	ip, r3, #4	; 0x4
    22d4:	11d350b0 	ldrneh	r5, [r3]
    22d8:	05932000 	ldreq	r2, [r3]
    22dc:	0283e004 	addeq	lr, r3, #4	; 0x4
    22e0:	150bc200 	strne	ip, [fp, -#512]
    22e4:	050be200 	streq	lr, [fp, -#512]
    22e8:	13a06000 	movne	r6, #0	; 0x0
    22ec:	01a05002 	moveq	r5, r2
    22f0:	03a06000 	moveq	r6, #0	; 0x0
    22f4:	eaffffed 	b	22b0 <_vfprintf_r+0x1240>
    22f8:	e51be204 	ldr	lr, [fp, -#516]
    22fc:	e38ee010 	orr	lr, lr, #16	; 0x10
    2300:	e50be204 	str	lr, [fp, -#516]
    2304:	e51b0204 	ldr	r0, [fp, -#516]
    2308:	e3100010 	tst	r0, #16	; 0x10
    230c:	0a000007 	beq	2330 <_vfprintf_r+0x12c0>
    2310:	e51b3200 	ldr	r3, [fp, -#512]
    2314:	e5932000 	ldr	r2, [r3]
    2318:	e2831004 	add	r1, r3, #4	; 0x4
    231c:	e1a05002 	mov	r5, r2
    2320:	e3a06000 	mov	r6, #0	; 0x0
    2324:	e50b1200 	str	r1, [fp, -#512]
    2328:	e3a02001 	mov	r2, #1	; 0x1
    232c:	eaffffe0 	b	22b4 <_vfprintf_r+0x1244>
    2330:	e51b2204 	ldr	r2, [fp, -#516]
    2334:	e3120040 	tst	r2, #64	; 0x40
    2338:	151b3200 	ldrne	r3, [fp, -#512]
    233c:	051b3200 	ldreq	r3, [fp, -#512]
    2340:	1283c004 	addne	ip, r3, #4	; 0x4
    2344:	11d350b0 	ldrneh	r5, [r3]
    2348:	05932000 	ldreq	r2, [r3]
    234c:	0283e004 	addeq	lr, r3, #4	; 0x4
    2350:	150bc200 	strne	ip, [fp, -#512]
    2354:	050be200 	streq	lr, [fp, -#512]
    2358:	13a06000 	movne	r6, #0	; 0x0
    235c:	01a05002 	moveq	r5, r2
    2360:	03a06000 	moveq	r6, #0	; 0x0
    2364:	eaffffef 	b	2328 <_vfprintf_r+0x12b8>
    2368:	e51f0780 	ldr	r0, [pc, #-1920]	; 1bf0 <_vfprintf_r+0xb80>
    236c:	e50b0228 	str	r0, [fp, -#552]
    2370:	e51b2204 	ldr	r2, [fp, -#516]
    2374:	e3120010 	tst	r2, #16	; 0x10
    2378:	0a00000f 	beq	23bc <_vfprintf_r+0x134c>
    237c:	e51b3200 	ldr	r3, [fp, -#512]
    2380:	e4932004 	ldr	r2, [r3], #4
    2384:	e1a05002 	mov	r5, r2
    2388:	e3a06000 	mov	r6, #0	; 0x0
    238c:	e50b3200 	str	r3, [fp, -#512]
    2390:	e51b2204 	ldr	r2, [fp, -#516]
    2394:	e1951006 	orrs	r1, r5, r6
    2398:	e2023001 	and	r3, r2, #1	; 0x1
    239c:	03a03000 	moveq	r3, #0	; 0x0
    23a0:	12033001 	andne	r3, r3, #1	; 0x1
    23a4:	e3530000 	cmp	r3, #0	; 0x0
    23a8:	151b3204 	ldrne	r3, [fp, -#516]
    23ac:	e3a02002 	mov	r2, #2	; 0x2
    23b0:	11833002 	orrne	r3, r3, r2
    23b4:	150b3204 	strne	r3, [fp, -#516]
    23b8:	eaffffbd 	b	22b4 <_vfprintf_r+0x1244>
    23bc:	e51bc204 	ldr	ip, [fp, -#516]
    23c0:	e31c0040 	tst	ip, #64	; 0x40
    23c4:	151b3200 	ldrne	r3, [fp, -#512]
    23c8:	051b3200 	ldreq	r3, [fp, -#512]
    23cc:	1283e004 	addne	lr, r3, #4	; 0x4
    23d0:	11d350b0 	ldrneh	r5, [r3]
    23d4:	05932000 	ldreq	r2, [r3]
    23d8:	02830004 	addeq	r0, r3, #4	; 0x4
    23dc:	150be200 	strne	lr, [fp, -#512]
    23e0:	050b0200 	streq	r0, [fp, -#512]
    23e4:	13a06000 	movne	r6, #0	; 0x0
    23e8:	01a05002 	moveq	r5, r2
    23ec:	03a06000 	moveq	r6, #0	; 0x0
    23f0:	eaffffe6 	b	2390 <_vfprintf_r+0x1320>
    23f4:	e51b3200 	ldr	r3, [fp, -#512]
    23f8:	e5d32000 	ldrb	r2, [r3]
    23fc:	e24baf77 	sub	sl, fp, #476	; 0x1dc
    2400:	e283c004 	add	ip, r3, #4	; 0x4
    2404:	e3a06001 	mov	r6, #1	; 0x1
    2408:	e50bc200 	str	ip, [fp, -#512]
    240c:	e5ca2000 	strb	r2, [sl]
    2410:	e3a03000 	mov	r3, #0	; 0x0
    2414:	e54b3029 	strb	r3, [fp, -#41]
    2418:	eafffc3e 	b	1518 <_vfprintf_r+0x4a8>
    241c:	e3740001 	cmn	r4, #1	; 0x1
    2420:	03a04006 	moveq	r4, #6	; 0x6
    2424:	0a000004 	beq	243c <_vfprintf_r+0x13cc>
    2428:	e3590047 	cmp	r9, #71	; 0x47
    242c:	13590067 	cmpne	r9, #103	; 0x67
    2430:	1a000001 	bne	243c <_vfprintf_r+0x13cc>
    2434:	e3540000 	cmp	r4, #0	; 0x0
    2438:	03a04001 	moveq	r4, #1	; 0x1
    243c:	e51b0204 	ldr	r0, [fp, -#516]
    2440:	e3100008 	tst	r0, #8	; 0x8
    2444:	0a00006c 	beq	25fc <_vfprintf_r+0x158c>
    2448:	e51b3200 	ldr	r3, [fp, -#512]
    244c:	e8930006 	ldmia	r3, {r1, r2}
    2450:	e24bce21 	sub	ip, fp, #528	; 0x210
    2454:	e283e008 	add	lr, r3, #8	; 0x8
    2458:	e90c0006 	stmdb	ip, {r1, r2}
    245c:	e50be200 	str	lr, [fp, -#512]
    2460:	e24bce21 	sub	ip, fp, #528	; 0x210
    2464:	e91c0003 	ldmdb	ip, {r0, r1}
    2468:	eb0010b9 	bl	6754 <isinf>
    246c:	e3500000 	cmp	r0, #0	; 0x0
    2470:	0a00000a 	beq	24a0 <_vfprintf_r+0x1430>
    2474:	e24bee21 	sub	lr, fp, #528	; 0x210
    2478:	e28f2fda 	add	r2, pc, #872	; 0x368
    247c:	e892000c 	ldmia	r2, {r2, r3}
    2480:	e91e0003 	ldmdb	lr, {r0, r1}
    2484:	eb001a54 	bl	8ddc <__ltdf2>
    2488:	e59fa360 	ldr	sl, [pc, #864]	; 27f0 <_vfprintf_r+0x1780>
    248c:	e3500000 	cmp	r0, #0	; 0x0
    2490:	b3a0302d 	movlt	r3, #45	; 0x2d
    2494:	b54b3029 	strltb	r3, [fp, -#41]
    2498:	e3a06003 	mov	r6, #3	; 0x3
    249c:	eafffc1d 	b	1518 <_vfprintf_r+0x4a8>
    24a0:	e24b2e21 	sub	r2, fp, #528	; 0x210
    24a4:	e9120003 	ldmdb	r2, {r0, r1}
    24a8:	eb0010b4 	bl	6780 <isnan>
    24ac:	e3500000 	cmp	r0, #0	; 0x0
    24b0:	159fa33c 	ldrne	sl, [pc, #828]	; 27f4 <_vfprintf_r+0x1784>
    24b4:	1afffff7 	bne	2498 <_vfprintf_r+0x1428>
    24b8:	e51b3204 	ldr	r3, [fp, -#516]
    24bc:	e3833c01 	orr	r3, r3, #256	; 0x100
    24c0:	e50b3204 	str	r3, [fp, -#516]
    24c4:	e24bce21 	sub	ip, fp, #528	; 0x210
    24c8:	e24bee1f 	sub	lr, fp, #496	; 0x1f0
    24cc:	e91c0006 	ldmdb	ip, {r1, r2}
    24d0:	e24bc02a 	sub	ip, fp, #42	; 0x2a
    24d4:	e58de008 	str	lr, [sp, #8]
    24d8:	e51be204 	ldr	lr, [fp, -#516]
    24dc:	e58dc004 	str	ip, [sp, #4]
    24e0:	e51b01f8 	ldr	r0, [fp, -#504]
    24e4:	e24bcf7d 	sub	ip, fp, #500	; 0x1f4
    24e8:	e1a03004 	mov	r3, r4
    24ec:	e58dc010 	str	ip, [sp, #16]
    24f0:	e58de000 	str	lr, [sp]
    24f4:	e58d900c 	str	r9, [sp, #12]
    24f8:	eb0000c0 	bl	2800 <cvt>
    24fc:	e3590047 	cmp	r9, #71	; 0x47
    2500:	13590067 	cmpne	r9, #103	; 0x67
    2504:	e1a0a000 	mov	sl, r0
    2508:	151bc1f0 	ldrne	ip, [fp, -#496]
    250c:	1a000008 	bne	2534 <_vfprintf_r+0x14c4>
    2510:	e51bc1f0 	ldr	ip, [fp, -#496]
    2514:	e37c0004 	cmn	ip, #4	; 0x4
    2518:	da000002 	ble	2528 <_vfprintf_r+0x14b8>
    251c:	e15c0004 	cmp	ip, r4
    2520:	d3a09067 	movle	r9, #103	; 0x67
    2524:	da000006 	ble	2544 <_vfprintf_r+0x14d4>
    2528:	e3590067 	cmp	r9, #103	; 0x67
    252c:	13a09045 	movne	r9, #69	; 0x45
    2530:	03a09065 	moveq	r9, #101	; 0x65
    2534:	e3590065 	cmp	r9, #101	; 0x65
    2538:	da00001e 	ble	25b8 <_vfprintf_r+0x1548>
    253c:	e3590066 	cmp	r9, #102	; 0x66
    2540:	0a000010 	beq	2588 <_vfprintf_r+0x1518>
    2544:	e51b01f4 	ldr	r0, [fp, -#500]
    2548:	e15c0000 	cmp	ip, r0
    254c:	ba000008 	blt	2574 <_vfprintf_r+0x1504>
    2550:	e51b2204 	ldr	r2, [fp, -#516]
    2554:	e3120001 	tst	r2, #1	; 0x1
    2558:	e1a0600c 	mov	r6, ip
    255c:	128c6001 	addne	r6, ip, #1	; 0x1
    2560:	e55b302a 	ldrb	r3, [fp, -#42]
    2564:	e3530000 	cmp	r3, #0	; 0x0
    2568:	13a0302d 	movne	r3, #45	; 0x2d
    256c:	1affffa8 	bne	2414 <_vfprintf_r+0x13a4>
    2570:	eafffbe8 	b	1518 <_vfprintf_r+0x4a8>
    2574:	e35c0000 	cmp	ip, #0	; 0x0
    2578:	d06c3000 	rsble	r3, ip, r0
    257c:	d2836002 	addle	r6, r3, #2	; 0x2
    2580:	c2806001 	addgt	r6, r0, #1	; 0x1
    2584:	eafffff5 	b	2560 <_vfprintf_r+0x14f0>
    2588:	e35c0000 	cmp	ip, #0	; 0x0
    258c:	d2846002 	addle	r6, r4, #2	; 0x2
    2590:	dafffff2 	ble	2560 <_vfprintf_r+0x14f0>
    2594:	e3540000 	cmp	r4, #0	; 0x0
    2598:	e1a0600c 	mov	r6, ip
    259c:	1a000002 	bne	25ac <_vfprintf_r+0x153c>
    25a0:	e51b1204 	ldr	r1, [fp, -#516]
    25a4:	e3110001 	tst	r1, #1	; 0x1
    25a8:	0affffec 	beq	2560 <_vfprintf_r+0x14f0>
    25ac:	e08c3004 	add	r3, ip, r4
    25b0:	e2836001 	add	r6, r3, #1	; 0x1
    25b4:	eaffffe9 	b	2560 <_vfprintf_r+0x14f0>
    25b8:	e24cc001 	sub	ip, ip, #1	; 0x1
    25bc:	e1a0100c 	mov	r1, ip
    25c0:	e24b0034 	sub	r0, fp, #52	; 0x34
    25c4:	e1a02009 	mov	r2, r9
    25c8:	e50bc1f0 	str	ip, [fp, -#496]
    25cc:	eb0000eb 	bl	2980 <exponent>
    25d0:	e51b31f4 	ldr	r3, [fp, -#500]
    25d4:	e3530001 	cmp	r3, #1	; 0x1
    25d8:	e50b021c 	str	r0, [fp, -#540]
    25dc:	e0806003 	add	r6, r0, r3
    25e0:	da000001 	ble	25ec <_vfprintf_r+0x157c>
    25e4:	e2866001 	add	r6, r6, #1	; 0x1
    25e8:	eaffffdc 	b	2560 <_vfprintf_r+0x14f0>
    25ec:	e51b0204 	ldr	r0, [fp, -#516]
    25f0:	e3100001 	tst	r0, #1	; 0x1
    25f4:	0affffd9 	beq	2560 <_vfprintf_r+0x14f0>
    25f8:	eafffff9 	b	25e4 <_vfprintf_r+0x1574>
    25fc:	e51b3200 	ldr	r3, [fp, -#512]
    2600:	e8930003 	ldmia	r3, {r0, r1}
    2604:	e24b2e21 	sub	r2, fp, #528	; 0x210
    2608:	e2833008 	add	r3, r3, #8	; 0x8
    260c:	e9020003 	stmdb	r2, {r0, r1}
    2610:	e50b3200 	str	r3, [fp, -#512]
    2614:	eaffff91 	b	2460 <_vfprintf_r+0x13f0>
    2618:	e51be204 	ldr	lr, [fp, -#516]
    261c:	e5d82000 	ldrb	r2, [r8]
    2620:	e38ee040 	orr	lr, lr, #64	; 0x40
    2624:	e50be204 	str	lr, [fp, -#516]
    2628:	eafffaed 	b	11e4 <_vfprintf_r+0x174>
    262c:	e5d82000 	ldrb	r2, [r8]
    2630:	e352006c 	cmp	r2, #108	; 0x6c
    2634:	151b1204 	ldrne	r1, [fp, -#516]
    2638:	13811010 	orrne	r1, r1, #16	; 0x10
    263c:	150b1204 	strne	r1, [fp, -#516]
    2640:	1afffae7 	bne	11e4 <_vfprintf_r+0x174>
    2644:	e51b0204 	ldr	r0, [fp, -#516]
    2648:	e5f82001 	ldrb	r2, [r8, #1]!
    264c:	e3800010 	orr	r0, r0, #16	; 0x10
    2650:	eafffb5c 	b	13c8 <_vfprintf_r+0x358>
    2654:	e51b3204 	ldr	r3, [fp, -#516]
    2658:	e3130010 	tst	r3, #16	; 0x10
    265c:	1a00000a 	bne	268c <_vfprintf_r+0x161c>
    2660:	e51b0204 	ldr	r0, [fp, -#516]
    2664:	e3100040 	tst	r0, #64	; 0x40
    2668:	0a000007 	beq	268c <_vfprintf_r+0x161c>
    266c:	e51b3200 	ldr	r3, [fp, -#512]
    2670:	e5932000 	ldr	r2, [r3]
    2674:	e2831004 	add	r1, r3, #4	; 0x4
    2678:	e24b3c02 	sub	r3, fp, #512	; 0x200
    267c:	e15330b8 	ldrh	r3, [r3, -#8]
    2680:	e50b1200 	str	r1, [fp, -#512]
    2684:	e1c230b0 	strh	r3, [r2]
    2688:	eafffaa8 	b	1130 <_vfprintf_r+0xc0>
    268c:	e51b3200 	ldr	r3, [fp, -#512]
    2690:	e51be208 	ldr	lr, [fp, -#520]
    2694:	e5932000 	ldr	r2, [r3]
    2698:	e283c004 	add	ip, r3, #4	; 0x4
    269c:	e50bc200 	str	ip, [fp, -#512]
    26a0:	e582e000 	str	lr, [r2]
    26a4:	eafffaa1 	b	1130 <_vfprintf_r+0xc0>
    26a8:	e51b3200 	ldr	r3, [fp, -#512]
    26ac:	e5932000 	ldr	r2, [r3]
    26b0:	e2831004 	add	r1, r3, #4	; 0x4
    26b4:	e51b3204 	ldr	r3, [fp, -#516]
    26b8:	e59f0138 	ldr	r0, [pc, #312]	; 27f8 <_vfprintf_r+0x1788>
    26bc:	e1a05002 	mov	r5, r2
    26c0:	e3a06000 	mov	r6, #0	; 0x0
    26c4:	e3a02002 	mov	r2, #2	; 0x2
    26c8:	e1833002 	orr	r3, r3, r2
    26cc:	e3a09078 	mov	r9, #120	; 0x78
    26d0:	e50b0228 	str	r0, [fp, -#552]
    26d4:	e50b1200 	str	r1, [fp, -#512]
    26d8:	e50b3204 	str	r3, [fp, -#516]
    26dc:	eafffef4 	b	22b4 <_vfprintf_r+0x1244>
    26e0:	e51b3204 	ldr	r3, [fp, -#516]
    26e4:	e5d82000 	ldrb	r2, [r8]
    26e8:	e3833010 	orr	r3, r3, #16	; 0x10
    26ec:	eafffb57 	b	1450 <_vfprintf_r+0x3e0>
    26f0:	e51b3200 	ldr	r3, [fp, -#512]
    26f4:	e593a000 	ldr	sl, [r3]
    26f8:	e59f20fc 	ldr	r2, [pc, #252]	; 27fc <_vfprintf_r+0x178c>
    26fc:	e35a0000 	cmp	sl, #0	; 0x0
    2700:	01a0a002 	moveq	sl, r2
    2704:	e283c004 	add	ip, r3, #4	; 0x4
    2708:	e3540000 	cmp	r4, #0	; 0x0
    270c:	e50bc200 	str	ip, [fp, -#512]
    2710:	ba00000a 	blt	2740 <_vfprintf_r+0x16d0>
    2714:	e1a0000a 	mov	r0, sl
    2718:	e3a01000 	mov	r1, #0	; 0x0
    271c:	e1a02004 	mov	r2, r4
    2720:	eb000b35 	bl	53fc <memchr>
    2724:	e3500000 	cmp	r0, #0	; 0x0
    2728:	0a000002 	beq	2738 <_vfprintf_r+0x16c8>
    272c:	e06a6000 	rsb	r6, sl, r0
    2730:	e1560004 	cmp	r6, r4
    2734:	daffff35 	ble	2410 <_vfprintf_r+0x13a0>
    2738:	e1a06004 	mov	r6, r4
    273c:	eaffff33 	b	2410 <_vfprintf_r+0x13a0>
    2740:	e1a0000a 	mov	r0, sl
    2744:	eb001086 	bl	6964 <strlen>
    2748:	e1a06000 	mov	r6, r0
    274c:	eaffff2f 	b	2410 <_vfprintf_r+0x13a0>
    2750:	e3590000 	cmp	r9, #0	; 0x0
    2754:	0a000005 	beq	2770 <_vfprintf_r+0x1700>
    2758:	e24baf77 	sub	sl, fp, #476	; 0x1dc
    275c:	e3a03000 	mov	r3, #0	; 0x0
    2760:	e5ca9000 	strb	r9, [sl]
    2764:	e54b3029 	strb	r3, [fp, -#41]
    2768:	e3a06001 	mov	r6, #1	; 0x1
    276c:	eafffb69 	b	1518 <_vfprintf_r+0x4a8>
    2770:	e51b3038 	ldr	r3, [fp, -#56]
    2774:	e3530000 	cmp	r3, #0	; 0x0
    2778:	1a000002 	bne	2788 <_vfprintf_r+0x1718>
    277c:	e3a03000 	mov	r3, #0	; 0x0
    2780:	e50b303c 	str	r3, [fp, -#60]
    2784:	eafffc14 	b	17dc <_vfprintf_r+0x76c>
    2788:	e24b1040 	sub	r1, fp, #64	; 0x40
    278c:	e51b01fc 	ldr	r0, [fp, -#508]
    2790:	ebfff9e0 	bl	f18 <__sprint>
    2794:	e3500000 	cmp	r0, #0	; 0x0
    2798:	0afffff7 	beq	277c <_vfprintf_r+0x170c>
    279c:	eafffc0e 	b	17dc <_vfprintf_r+0x76c>
    27a0:	e59f1050 	ldr	r1, [pc, #80]	; 27f8 <_vfprintf_r+0x1788>
    27a4:	e50b1228 	str	r1, [fp, -#552]
    27a8:	eafffef0 	b	2370 <_vfprintf_r+0x1300>
    27ac:	e51b01fc 	ldr	r0, [fp, -#508]
    27b0:	e24b1040 	sub	r1, fp, #64	; 0x40
    27b4:	ebfff9d7 	bl	f18 <__sprint>
    27b8:	e3500000 	cmp	r0, #0	; 0x0
    27bc:	1afffc06 	bne	17dc <_vfprintf_r+0x76c>
    27c0:	e24b7080 	sub	r7, fp, #128	; 0x80
    27c4:	eafffa78 	b	11ac <_vfprintf_r+0x13c>
    27c8:	e51b01fc 	ldr	r0, [fp, -#508]
    27cc:	e1d030fe 	ldrsh	r3, [r0, #14]
    27d0:	e3530000 	cmp	r3, #0	; 0x0
    27d4:	bafffa4e 	blt	1114 <_vfprintf_r+0xa4>
    27d8:	e1a01004 	mov	r1, r4
    27dc:	e51b2200 	ldr	r2, [fp, -#512]
    27e0:	ebfff9dd 	bl	f5c <__sbprintf>
    27e4:	e91baff0 	ldmdb	fp, {r4, r5, r6, r7, r8, r9, sl, fp, sp, pc}
	...
    27f0:	00009a8c 	andeq	r9, r0, ip, lsl #21
    27f4:	00009a90 	muleq	r0, r0, sl
    27f8:	00009a94 	muleq	r0, r4, sl
    27fc:	00009aa8 	andeq	r9, r0, r8, lsr #21

00002800 <cvt>:
    2800:	e1a0c00d 	mov	ip, sp
    2804:	e92ddff0 	stmdb	sp!, {r4, r5, r6, r7, r8, r9, sl, fp, ip, lr, pc}
    2808:	e24cb004 	sub	fp, ip, #4	; 0x4
    280c:	e24dd018 	sub	sp, sp, #24	; 0x18
    2810:	e59b8010 	ldr	r8, [fp, #16]
    2814:	e3580066 	cmp	r8, #102	; 0x66
    2818:	e1a07000 	mov	r7, r0
    281c:	e1a06002 	mov	r6, r2
    2820:	e1a05001 	mov	r5, r1
    2824:	e1a0a003 	mov	sl, r3
    2828:	03a09003 	moveq	r9, #3	; 0x3
    282c:	0a000003 	beq	2840 <cvt+0x40>
    2830:	e3580045 	cmp	r8, #69	; 0x45
    2834:	13580065 	cmpne	r8, #101	; 0x65
    2838:	0283a001 	addeq	sl, r3, #1	; 0x1
    283c:	e3a09002 	mov	r9, #2	; 0x2
    2840:	e3550000 	cmp	r5, #0	; 0x0
    2844:	a59bc008 	ldrge	ip, [fp, #8]
    2848:	e1a04006 	mov	r4, r6
    284c:	e1a03005 	mov	r3, r5
    2850:	a3a03000 	movge	r3, #0	; 0x0
    2854:	a5cc3000 	strgeb	r3, [ip]
    2858:	ba00003d 	blt	2954 <cvt+0x154>
    285c:	e24bc02c 	sub	ip, fp, #44	; 0x2c
    2860:	e58dc008 	str	ip, [sp, #8]
    2864:	e59bc00c 	ldr	ip, [fp, #12]
    2868:	e1a00007 	mov	r0, r7
    286c:	e24be030 	sub	lr, fp, #48	; 0x30
    2870:	e1a03009 	mov	r3, r9
    2874:	e1a02006 	mov	r2, r6
    2878:	e1a01005 	mov	r1, r5
    287c:	e58de00c 	str	lr, [sp, #12]
    2880:	e88d1400 	stmia	sp, {sl, ip}
    2884:	eb00012b 	bl	2d38 <_dtoa_r>
    2888:	e3580067 	cmp	r8, #103	; 0x67
    288c:	13580047 	cmpne	r8, #71	; 0x47
    2890:	e1a07000 	mov	r7, r0
    2894:	1a000003 	bne	28a8 <cvt+0xa8>
    2898:	e59b3004 	ldr	r3, [fp, #4]
    289c:	e3130001 	tst	r3, #1	; 0x1
    28a0:	051b2030 	ldreq	r2, [fp, -#48]
    28a4:	0a000014 	beq	28fc <cvt+0xfc>
    28a8:	e3580066 	cmp	r8, #102	; 0x66
    28ac:	e087400a 	add	r4, r7, sl
    28b0:	0a000016 	beq	2910 <cvt+0x110>
    28b4:	e28f20bc 	add	r2, pc, #188	; 0xbc
    28b8:	e892000c 	ldmia	r2, {r2, r3}
    28bc:	e1a01006 	mov	r1, r6
    28c0:	e1a00005 	mov	r0, r5
    28c4:	eb0018a8 	bl	8b6c <__eqdf2>
    28c8:	e3500000 	cmp	r0, #0	; 0x0
    28cc:	050b4030 	streq	r4, [fp, -#48]
    28d0:	e51b2030 	ldr	r2, [fp, -#48]
    28d4:	e1520004 	cmp	r2, r4
    28d8:	2a000007 	bcs	28fc <cvt+0xfc>
    28dc:	e2823001 	add	r3, r2, #1	; 0x1
    28e0:	e3a01030 	mov	r1, #48	; 0x30
    28e4:	e1530004 	cmp	r3, r4
    28e8:	e5431001 	strb	r1, [r3, -#1]
    28ec:	e1a02003 	mov	r2, r3
    28f0:	e50b3030 	str	r3, [fp, -#48]
    28f4:	e2833001 	add	r3, r3, #1	; 0x1
    28f8:	3afffff9 	bcc	28e4 <cvt+0xe4>
    28fc:	e59b3014 	ldr	r3, [fp, #20]
    2900:	e0672002 	rsb	r2, r7, r2
    2904:	e1a00007 	mov	r0, r7
    2908:	e5832000 	str	r2, [r3]
    290c:	e91baff0 	ldmdb	fp, {r4, r5, r6, r7, r8, r9, sl, fp, sp, pc}
    2910:	e5d73000 	ldrb	r3, [r7]
    2914:	e3530030 	cmp	r3, #48	; 0x30
    2918:	0a000003 	beq	292c <cvt+0x12c>
    291c:	e59bc00c 	ldr	ip, [fp, #12]
    2920:	e59c3000 	ldr	r3, [ip]
    2924:	e0844003 	add	r4, r4, r3
    2928:	eaffffe1 	b	28b4 <cvt+0xb4>
    292c:	e28f2044 	add	r2, pc, #68	; 0x44
    2930:	e892000c 	ldmia	r2, {r2, r3}
    2934:	e1a01006 	mov	r1, r6
    2938:	e1a00005 	mov	r0, r5
    293c:	eb0018b1 	bl	8c08 <__nedf2>
    2940:	e3500000 	cmp	r0, #0	; 0x0
    2944:	159b200c 	ldrne	r2, [fp, #12]
    2948:	126a3001 	rsbne	r3, sl, #1	; 0x1
    294c:	15823000 	strne	r3, [r2]
    2950:	eafffff1 	b	291c <cvt+0x11c>
    2954:	e1a01006 	mov	r1, r6
    2958:	e1a00005 	mov	r0, r5
    295c:	eb0019b1 	bl	9028 <__negdf2>
    2960:	e59b2008 	ldr	r2, [fp, #8]
    2964:	e3a0302d 	mov	r3, #45	; 0x2d
    2968:	e1a06001 	mov	r6, r1
    296c:	e1a05000 	mov	r5, r0
    2970:	e5c23000 	strb	r3, [r2]
    2974:	eaffffb8 	b	285c <cvt+0x5c>
	...

00002980 <exponent>:
    2980:	e92d4030 	stmdb	sp!, {r4, r5, lr}
    2984:	e3510000 	cmp	r1, #0	; 0x0
    2988:	e1a05000 	mov	r5, r0
    298c:	e4c02001 	strb	r2, [r0], #1
    2990:	b3a0302d 	movlt	r3, #45	; 0x2d
    2994:	a3a0302b 	movge	r3, #43	; 0x2b
    2998:	e1a0c001 	mov	ip, r1
    299c:	b261c000 	rsblt	ip, r1, #0	; 0x0
    29a0:	b5c53001 	strltb	r3, [r5, #1]
    29a4:	a5c53001 	strgeb	r3, [r5, #1]
    29a8:	b2800001 	addlt	r0, r0, #1	; 0x1
    29ac:	a2800001 	addge	r0, r0, #1	; 0x1
    29b0:	e35c0009 	cmp	ip, #9	; 0x9
    29b4:	d3a03030 	movle	r3, #48	; 0x30
    29b8:	d4c03001 	strleb	r3, [r0], #1
    29bc:	e24dd028 	sub	sp, sp, #40	; 0x28
    29c0:	d08c2003 	addle	r2, ip, r3
    29c4:	e28de028 	add	lr, sp, #40	; 0x28
    29c8:	d4c02001 	strleb	r2, [r0], #1
    29cc:	da000014 	ble	2a24 <exponent+0xa4>
    29d0:	e59f4058 	ldr	r4, [pc, #88]	; 2a30 <exponent+0xb0>
    29d4:	e0c32c94 	smull	r2, r3, r4, ip
    29d8:	e1a02fcc 	mov	r2, ip, asr #31
    29dc:	e0622143 	rsb	r2, r2, r3, asr #2
    29e0:	e0821102 	add	r1, r2, r2, lsl #2
    29e4:	e04c1081 	sub	r1, ip, r1, lsl #1
    29e8:	e2811030 	add	r1, r1, #48	; 0x30
    29ec:	e3520009 	cmp	r2, #9	; 0x9
    29f0:	e1a0c002 	mov	ip, r2
    29f4:	e56e1001 	strb	r1, [lr, -#1]!
    29f8:	cafffff5 	bgt	29d4 <exponent+0x54>
    29fc:	e2823030 	add	r3, r2, #48	; 0x30
    2a00:	e56e3001 	strb	r3, [lr, -#1]!
    2a04:	e28d3028 	add	r3, sp, #40	; 0x28
    2a08:	e15e0003 	cmp	lr, r3
    2a0c:	2a000004 	bcs	2a24 <exponent+0xa4>
    2a10:	e4de3001 	ldrb	r3, [lr], #1
    2a14:	e28d2028 	add	r2, sp, #40	; 0x28
    2a18:	e15e0002 	cmp	lr, r2
    2a1c:	e4c03001 	strb	r3, [r0], #1
    2a20:	3afffffa 	bcc	2a10 <exponent+0x90>
    2a24:	e0650000 	rsb	r0, r5, r0
    2a28:	e28dd028 	add	sp, sp, #40	; 0x28
    2a2c:	e8bd8030 	ldmia	sp!, {r4, r5, pc}
    2a30:	66666667 	strvsbt	r6, [r6], -r7, ror #12

00002a34 <__swsetup>:
    2a34:	e1a0c00d 	mov	ip, sp
    2a38:	e92dd830 	stmdb	sp!, {r4, r5, fp, ip, lr, pc}
    2a3c:	e1a04000 	mov	r4, r0
    2a40:	e5900054 	ldr	r0, [r0, #84]
    2a44:	e3500000 	cmp	r0, #0	; 0x0
    2a48:	059f30e0 	ldreq	r3, [pc, #224]	; 2b30 <__swsetup+0xfc>
    2a4c:	05932000 	ldreq	r2, [r3]
    2a50:	01a00002 	moveq	r0, r2
    2a54:	e5903038 	ldr	r3, [r0, #56]
    2a58:	05842054 	streq	r2, [r4, #84]
    2a5c:	e3530000 	cmp	r3, #0	; 0x0
    2a60:	e24cb004 	sub	fp, ip, #4	; 0x4
    2a64:	0a00002f 	beq	2b28 <__swsetup+0xf4>
    2a68:	e1d400bc 	ldrh	r0, [r4, #12]
    2a6c:	e2105008 	ands	r5, r0, #8	; 0x8
    2a70:	15942010 	ldrne	r2, [r4, #16]
    2a74:	1a000017 	bne	2ad8 <__swsetup+0xa4>
    2a78:	e3100010 	tst	r0, #16	; 0x10
    2a7c:	03e00000 	mvneq	r0, #0	; 0x0
    2a80:	091ba830 	ldmeqdb	fp, {r4, r5, fp, sp, pc}
    2a84:	e3100004 	tst	r0, #4	; 0x4
    2a88:	05942010 	ldreq	r2, [r4, #16]
    2a8c:	0a00000f 	beq	2ad0 <__swsetup+0x9c>
    2a90:	e5941030 	ldr	r1, [r4, #48]
    2a94:	e3510000 	cmp	r1, #0	; 0x0
    2a98:	0a000006 	beq	2ab8 <__swsetup+0x84>
    2a9c:	e2843040 	add	r3, r4, #64	; 0x40
    2aa0:	e1510003 	cmp	r1, r3
    2aa4:	0a000002 	beq	2ab4 <__swsetup+0x80>
    2aa8:	e5940054 	ldr	r0, [r4, #84]
    2aac:	eb00064a 	bl	43dc <_free_r>
    2ab0:	e1d400bc 	ldrh	r0, [r4, #12]
    2ab4:	e5845030 	str	r5, [r4, #48]
    2ab8:	e3c03024 	bic	r3, r0, #36	; 0x24
    2abc:	e1c430bc 	strh	r3, [r4, #12]
    2ac0:	e5942010 	ldr	r2, [r4, #16]
    2ac4:	e1d400bc 	ldrh	r0, [r4, #12]
    2ac8:	e3a03000 	mov	r3, #0	; 0x0
    2acc:	e884000c 	stmia	r4, {r2, r3}
    2ad0:	e3803008 	orr	r3, r0, #8	; 0x8
    2ad4:	e1c430bc 	strh	r3, [r4, #12]
    2ad8:	e3520000 	cmp	r2, #0	; 0x0
    2adc:	0a00000e 	beq	2b1c <__swsetup+0xe8>
    2ae0:	e1d430bc 	ldrh	r3, [r4, #12]
    2ae4:	e2132001 	ands	r2, r3, #1	; 0x1
    2ae8:	0a000006 	beq	2b08 <__swsetup+0xd4>
    2aec:	e5943014 	ldr	r3, [r4, #20]
    2af0:	e3a02000 	mov	r2, #0	; 0x0
    2af4:	e2633000 	rsb	r3, r3, #0	; 0x0
    2af8:	e5843018 	str	r3, [r4, #24]
    2afc:	e5842008 	str	r2, [r4, #8]
    2b00:	e3a00000 	mov	r0, #0	; 0x0
    2b04:	e91ba830 	ldmdb	fp, {r4, r5, fp, sp, pc}
    2b08:	e3130002 	tst	r3, #2	; 0x2
    2b0c:	05943014 	ldreq	r3, [r4, #20]
    2b10:	11a03002 	movne	r3, r2
    2b14:	e5843008 	str	r3, [r4, #8]
    2b18:	eafffff8 	b	2b00 <__swsetup+0xcc>
    2b1c:	e1a00004 	mov	r0, r4
    2b20:	eb000834 	bl	4bf8 <__smakebuf>
    2b24:	eaffffed 	b	2ae0 <__swsetup+0xac>
    2b28:	eb00060c 	bl	4360 <__sinit>
    2b2c:	eaffffcd 	b	2a68 <__swsetup+0x34>
    2b30:	4000039c 	mulmi	r0, ip, r3

00002b34 <quorem>:
    2b34:	e1a0c00d 	mov	ip, sp
    2b38:	e92ddff0 	stmdb	sp!, {r4, r5, r6, r7, r8, r9, sl, fp, ip, lr, pc}
    2b3c:	e24cb004 	sub	fp, ip, #4	; 0x4
    2b40:	e24dd00c 	sub	sp, sp, #12	; 0xc
    2b44:	e5903010 	ldr	r3, [r0, #16]
    2b48:	e5918010 	ldr	r8, [r1, #16]
    2b4c:	e1530008 	cmp	r3, r8
    2b50:	e50b002c 	str	r0, [fp, -#44]
    2b54:	e50b1030 	str	r1, [fp, -#48]
    2b58:	b3a00000 	movlt	r0, #0	; 0x0
    2b5c:	b91baff0 	ldmltdb	fp, {r4, r5, r6, r7, r8, r9, sl, fp, sp, pc}
    2b60:	e51b2030 	ldr	r2, [fp, -#48]
    2b64:	e2488001 	sub	r8, r8, #1	; 0x1
    2b68:	e1a03108 	mov	r3, r8, lsl #2
    2b6c:	e2824014 	add	r4, r2, #20	; 0x14
    2b70:	e51b202c 	ldr	r2, [fp, -#44]
    2b74:	e7941003 	ldr	r1, [r4, r3]
    2b78:	e282a014 	add	sl, r2, #20	; 0x14
    2b7c:	e79a0003 	ldr	r0, [sl, r3]
    2b80:	e2811001 	add	r1, r1, #1	; 0x1
    2b84:	e0849003 	add	r9, r4, r3
    2b88:	e08a6003 	add	r6, sl, r3
    2b8c:	eb001270 	bl	7554 <__udivsi3>
    2b90:	e3500000 	cmp	r0, #0	; 0x0
    2b94:	e1a07000 	mov	r7, r0
    2b98:	e50b4034 	str	r4, [fp, -#52]
    2b9c:	e1a0c00a 	mov	ip, sl
    2ba0:	0a00002c 	beq	2c58 <quorem+0x124>
    2ba4:	e3a05000 	mov	r5, #0	; 0x0
    2ba8:	e1a01005 	mov	r1, r5
    2bac:	e4942004 	ldr	r2, [r4], #4
    2bb0:	e1a03802 	mov	r3, r2, lsl #16
    2bb4:	e1a03823 	mov	r3, r3, lsr #16
    2bb8:	e0211397 	mla	r1, r7, r3, r1
    2bbc:	e1a02822 	mov	r2, r2, lsr #16
    2bc0:	e1a03821 	mov	r3, r1, lsr #16
    2bc4:	e02e3297 	mla	lr, r7, r2, r3
    2bc8:	e59c0000 	ldr	r0, [ip]
    2bcc:	e1a01801 	mov	r1, r1, lsl #16
    2bd0:	e1a03800 	mov	r3, r0, lsl #16
    2bd4:	e1a01821 	mov	r1, r1, lsr #16
    2bd8:	e1a0280e 	mov	r2, lr, lsl #16
    2bdc:	e1a03823 	mov	r3, r3, lsr #16
    2be0:	e0613003 	rsb	r3, r1, r3
    2be4:	e1a02822 	mov	r2, r2, lsr #16
    2be8:	e0831005 	add	r1, r3, r5
    2bec:	e0622820 	rsb	r2, r2, r0, lsr #16
    2bf0:	e0822841 	add	r2, r2, r1, asr #16
    2bf4:	e1540009 	cmp	r4, r9
    2bf8:	e1cc10b0 	strh	r1, [ip]
    2bfc:	e1cc20b2 	strh	r2, [ip, #2]
    2c00:	e1a0182e 	mov	r1, lr, lsr #16
    2c04:	e1a05842 	mov	r5, r2, asr #16
    2c08:	e28cc004 	add	ip, ip, #4	; 0x4
    2c0c:	9affffe6 	bls	2bac <quorem+0x78>
    2c10:	e5963000 	ldr	r3, [r6]
    2c14:	e3530000 	cmp	r3, #0	; 0x0
    2c18:	1a00000e 	bne	2c58 <quorem+0x124>
    2c1c:	e2466004 	sub	r6, r6, #4	; 0x4
    2c20:	e156000a 	cmp	r6, sl
    2c24:	9a000009 	bls	2c50 <quorem+0x11c>
    2c28:	e5963000 	ldr	r3, [r6]
    2c2c:	e3530000 	cmp	r3, #0	; 0x0
    2c30:	1a000006 	bne	2c50 <quorem+0x11c>
    2c34:	e2466004 	sub	r6, r6, #4	; 0x4
    2c38:	e156000a 	cmp	r6, sl
    2c3c:	e2488001 	sub	r8, r8, #1	; 0x1
    2c40:	9a000002 	bls	2c50 <quorem+0x11c>
    2c44:	e5963000 	ldr	r3, [r6]
    2c48:	e3530000 	cmp	r3, #0	; 0x0
    2c4c:	0afffff8 	beq	2c34 <quorem+0x100>
    2c50:	e51b302c 	ldr	r3, [fp, -#44]
    2c54:	e5838010 	str	r8, [r3, #16]
    2c58:	e51b1030 	ldr	r1, [fp, -#48]
    2c5c:	e51b002c 	ldr	r0, [fp, -#44]
    2c60:	eb000c6a 	bl	5e10 <__mcmp>
    2c64:	e3500000 	cmp	r0, #0	; 0x0
    2c68:	ba000030 	blt	2d30 <quorem+0x1fc>
    2c6c:	e3a05000 	mov	r5, #0	; 0x0
    2c70:	e51b4034 	ldr	r4, [fp, -#52]
    2c74:	e2877001 	add	r7, r7, #1	; 0x1
    2c78:	e1a01005 	mov	r1, r5
    2c7c:	e1a0c00a 	mov	ip, sl
    2c80:	e4942004 	ldr	r2, [r4], #4
    2c84:	e1a03802 	mov	r3, r2, lsl #16
    2c88:	e1a03823 	mov	r3, r3, lsr #16
    2c8c:	e59c0000 	ldr	r0, [ip]
    2c90:	e0831001 	add	r1, r3, r1
    2c94:	e1a03821 	mov	r3, r1, lsr #16
    2c98:	e083e822 	add	lr, r3, r2, lsr #16
    2c9c:	e1a01801 	mov	r1, r1, lsl #16
    2ca0:	e1a03800 	mov	r3, r0, lsl #16
    2ca4:	e1a01821 	mov	r1, r1, lsr #16
    2ca8:	e1a0280e 	mov	r2, lr, lsl #16
    2cac:	e1a03823 	mov	r3, r3, lsr #16
    2cb0:	e0613003 	rsb	r3, r1, r3
    2cb4:	e1a02822 	mov	r2, r2, lsr #16
    2cb8:	e0831005 	add	r1, r3, r5
    2cbc:	e0622820 	rsb	r2, r2, r0, lsr #16
    2cc0:	e0822841 	add	r2, r2, r1, asr #16
    2cc4:	e1540009 	cmp	r4, r9
    2cc8:	e1cc10b0 	strh	r1, [ip]
    2ccc:	e1cc20b2 	strh	r2, [ip, #2]
    2cd0:	e1a0182e 	mov	r1, lr, lsr #16
    2cd4:	e1a05842 	mov	r5, r2, asr #16
    2cd8:	e28cc004 	add	ip, ip, #4	; 0x4
    2cdc:	9affffe7 	bls	2c80 <quorem+0x14c>
    2ce0:	e1a02108 	mov	r2, r8, lsl #2
    2ce4:	e79a3002 	ldr	r3, [sl, r2]
    2ce8:	e3530000 	cmp	r3, #0	; 0x0
    2cec:	e08a6002 	add	r6, sl, r2
    2cf0:	1a00000e 	bne	2d30 <quorem+0x1fc>
    2cf4:	e2466004 	sub	r6, r6, #4	; 0x4
    2cf8:	e156000a 	cmp	r6, sl
    2cfc:	9a000009 	bls	2d28 <quorem+0x1f4>
    2d00:	e5963000 	ldr	r3, [r6]
    2d04:	e3530000 	cmp	r3, #0	; 0x0
    2d08:	1a000006 	bne	2d28 <quorem+0x1f4>
    2d0c:	e2466004 	sub	r6, r6, #4	; 0x4
    2d10:	e156000a 	cmp	r6, sl
    2d14:	e2488001 	sub	r8, r8, #1	; 0x1
    2d18:	9a000002 	bls	2d28 <quorem+0x1f4>
    2d1c:	e5963000 	ldr	r3, [r6]
    2d20:	e3530000 	cmp	r3, #0	; 0x0
    2d24:	0afffff8 	beq	2d0c <quorem+0x1d8>
    2d28:	e51b202c 	ldr	r2, [fp, -#44]
    2d2c:	e5828010 	str	r8, [r2, #16]
    2d30:	e1a00007 	mov	r0, r7
    2d34:	e91baff0 	ldmdb	fp, {r4, r5, r6, r7, r8, r9, sl, fp, sp, pc}

00002d38 <_dtoa_r>:
    2d38:	e1a0c00d 	mov	ip, sp
    2d3c:	e92ddff0 	stmdb	sp!, {r4, r5, r6, r7, r8, r9, sl, fp, ip, lr, pc}
    2d40:	e24cb004 	sub	fp, ip, #4	; 0x4
    2d44:	e24dd06c 	sub	sp, sp, #108	; 0x6c
    2d48:	e590c040 	ldr	ip, [r0, #64]
    2d4c:	e1a07002 	mov	r7, r2
    2d50:	e1a06001 	mov	r6, r1
    2d54:	e35c0000 	cmp	ip, #0	; 0x0
    2d58:	e3a01000 	mov	r1, #0	; 0x0
    2d5c:	e50b0034 	str	r0, [fp, -#52]
    2d60:	e50b3038 	str	r3, [fp, -#56]
    2d64:	e59b400c 	ldr	r4, [fp, #12]
    2d68:	e50b107c 	str	r1, [fp, -#124]
    2d6c:	1a0004cc 	bne	40a4 <_dtoa_r+0x136c>
    2d70:	e3560000 	cmp	r6, #0	; 0x0
    2d74:	b3a03001 	movlt	r3, #1	; 0x1
    2d78:	b3c66102 	biclt	r6, r6, #-2147483648	; 0x80000000
    2d7c:	b5843000 	strlt	r3, [r4]
    2d80:	e3c63102 	bic	r3, r6, #-2147483648	; 0x80000000
    2d84:	a51b107c 	ldrge	r1, [fp, -#124]
    2d88:	e3a0247f 	mov	r2, #2130706432	; 0x7f000000
    2d8c:	e1a03a23 	mov	r3, r3, lsr #20
    2d90:	e282260f 	add	r2, r2, #15728640	; 0xf00000
    2d94:	e1a03a03 	mov	r3, r3, lsl #20
    2d98:	a5841000 	strge	r1, [r4]
    2d9c:	e1530002 	cmp	r3, r2
    2da0:	0a0004a5 	beq	403c <_dtoa_r+0x1304>
    2da4:	e28f2f89 	add	r2, pc, #548	; 0x224
    2da8:	e892000c 	ldmia	r2, {r2, r3}
    2dac:	e1a01007 	mov	r1, r7
    2db0:	e1a00006 	mov	r0, r6
    2db4:	eb00176c 	bl	8b6c <__eqdf2>
    2db8:	e3500000 	cmp	r0, #0	; 0x0
    2dbc:	1a00000a 	bne	2dec <_dtoa_r+0xb4>
    2dc0:	e59be010 	ldr	lr, [fp, #16]
    2dc4:	e59f222c 	ldr	r2, [pc, #556]	; 2ff8 <_dtoa_r+0x2c0>
    2dc8:	e59b1008 	ldr	r1, [fp, #8]
    2dcc:	e3a03001 	mov	r3, #1	; 0x1
    2dd0:	e35e0000 	cmp	lr, #0	; 0x0
    2dd4:	e5813000 	str	r3, [r1]
    2dd8:	10823003 	addne	r3, r2, r3
    2ddc:	e50b2088 	str	r2, [fp, -#136]
    2de0:	158e3000 	strne	r3, [lr]
    2de4:	e51b0088 	ldr	r0, [fp, -#136]
    2de8:	e91baff0 	ldmdb	fp, {r4, r5, r6, r7, r8, r9, sl, fp, sp, pc}
    2dec:	e24b302c 	sub	r3, fp, #44	; 0x2c
    2df0:	e24bc030 	sub	ip, fp, #48	; 0x30
    2df4:	e51b0034 	ldr	r0, [fp, -#52]
    2df8:	e1a02007 	mov	r2, r7
    2dfc:	e1a01006 	mov	r1, r6
    2e00:	e58dc000 	str	ip, [sp]
    2e04:	eb000cae 	bl	60c4 <_d2b>
    2e08:	e1a03a26 	mov	r3, r6, lsr #20
    2e0c:	e1a08a83 	mov	r8, r3, lsl #21
    2e10:	e1a08aa8 	mov	r8, r8, lsr #21
    2e14:	e3580000 	cmp	r8, #0	; 0x0
    2e18:	e50b0078 	str	r0, [fp, -#120]
    2e1c:	0a00045b 	beq	3f90 <_dtoa_r+0x1258>
    2e20:	e24b3070 	sub	r3, fp, #112	; 0x70
    2e24:	e98300c0 	stmib	r3, {r6, r7}
    2e28:	e51bc06c 	ldr	ip, [fp, -#108]
    2e2c:	e3ccc4ff 	bic	ip, ip, #-16777216	; 0xff000000
    2e30:	e3cce60f 	bic	lr, ip, #15728640	; 0xf00000
    2e34:	e38e15ff 	orr	r1, lr, #1069547520	; 0x3fc00000
    2e38:	e2488fff 	sub	r8, r8, #1020	; 0x3fc
    2e3c:	e51b2030 	ldr	r2, [fp, -#48]
    2e40:	e3813603 	orr	r3, r1, #3145728	; 0x300000
    2e44:	e2488003 	sub	r8, r8, #3	; 0x3
    2e48:	e3a0c000 	mov	ip, #0	; 0x0
    2e4c:	e50b2090 	str	r2, [fp, -#144]
    2e50:	e50b306c 	str	r3, [fp, -#108]
    2e54:	e24be070 	sub	lr, fp, #112	; 0x70
    2e58:	e99e0003 	ldmib	lr, {r0, r1}
    2e5c:	e28f2f5d 	add	r2, pc, #372	; 0x174
    2e60:	e892000c 	ldmia	r2, {r2, r3}
    2e64:	e50bc074 	str	ip, [fp, -#116]
    2e68:	eb00155c 	bl	83e0 <__subdf3>
    2e6c:	e28f2f5b 	add	r2, pc, #364	; 0x16c
    2e70:	e892000c 	ldmia	r2, {r2, r3}
    2e74:	eb001586 	bl	8494 <__muldf3>
    2e78:	e28f2f5a 	add	r2, pc, #360	; 0x168
    2e7c:	e892000c 	ldmia	r2, {r2, r3}
    2e80:	eb00153e 	bl	8380 <__adddf3>
    2e84:	e1a05001 	mov	r5, r1
    2e88:	e1a04000 	mov	r4, r0
    2e8c:	e1a00008 	mov	r0, r8
    2e90:	eb0017f8 	bl	8e78 <__floatsidf>
    2e94:	e28f2f55 	add	r2, pc, #340	; 0x154
    2e98:	e892000c 	ldmia	r2, {r2, r3}
    2e9c:	eb00157c 	bl	8494 <__muldf3>
    2ea0:	e1a03001 	mov	r3, r1
    2ea4:	e1a02000 	mov	r2, r0
    2ea8:	e1a01005 	mov	r1, r5
    2eac:	e1a00004 	mov	r0, r4
    2eb0:	eb001532 	bl	8380 <__adddf3>
    2eb4:	e1a0a001 	mov	sl, r1
    2eb8:	e1a09000 	mov	r9, r0
    2ebc:	eb00181d 	bl	8f38 <__fixdfsi>
    2ec0:	e28f2f42 	add	r2, pc, #264	; 0x108
    2ec4:	e892000c 	ldmia	r2, {r2, r3}
    2ec8:	e50b0050 	str	r0, [fp, -#80]
    2ecc:	e1a0100a 	mov	r1, sl
    2ed0:	e1a00009 	mov	r0, r9
    2ed4:	eb0017c0 	bl	8ddc <__ltdf2>
    2ed8:	e3500000 	cmp	r0, #0	; 0x0
    2edc:	ba00041f 	blt	3f60 <_dtoa_r+0x1228>
    2ee0:	e51b2050 	ldr	r2, [fp, -#80]
    2ee4:	e3a03001 	mov	r3, #1	; 0x1
    2ee8:	e3520016 	cmp	r2, #22	; 0x16
    2eec:	e50b3058 	str	r3, [fp, -#88]
    2ef0:	8a00000b 	bhi	2f24 <_dtoa_r+0x1ec>
    2ef4:	e59f3108 	ldr	r3, [pc, #264]	; 3004 <_dtoa_r+0x2cc>
    2ef8:	e0833182 	add	r3, r3, r2, lsl #3
    2efc:	e8930003 	ldmia	r3, {r0, r1}
    2f00:	e1a03007 	mov	r3, r7
    2f04:	e1a02006 	mov	r2, r6
    2f08:	eb001765 	bl	8ca4 <__gtdf2>
    2f0c:	e3500000 	cmp	r0, #0	; 0x0
    2f10:	c51bc050 	ldrgt	ip, [fp, -#80]
    2f14:	e3a0e000 	mov	lr, #0	; 0x0
    2f18:	c24cc001 	subgt	ip, ip, #1	; 0x1
    2f1c:	c50bc050 	strgt	ip, [fp, -#80]
    2f20:	e50be058 	str	lr, [fp, -#88]
    2f24:	e51b1090 	ldr	r1, [fp, -#144]
    2f28:	e0683001 	rsb	r3, r8, r1
    2f2c:	e2534001 	subs	r4, r3, #1	; 0x1
    2f30:	e51bc050 	ldr	ip, [fp, -#80]
    2f34:	53a02000 	movpl	r2, #0	; 0x0
    2f38:	42644000 	rsbmi	r4, r4, #0	; 0x0
    2f3c:	43a03000 	movmi	r3, #0	; 0x0
    2f40:	550b4060 	strpl	r4, [fp, -#96]
    2f44:	550b203c 	strpl	r2, [fp, -#60]
    2f48:	450b403c 	strmi	r4, [fp, -#60]
    2f4c:	450b3060 	strmi	r3, [fp, -#96]
    2f50:	e35c0000 	cmp	ip, #0	; 0x0
    2f54:	ba0003f8 	blt	3f3c <_dtoa_r+0x1204>
    2f58:	e51b1060 	ldr	r1, [fp, -#96]
    2f5c:	e3a0e000 	mov	lr, #0	; 0x0
    2f60:	e081100c 	add	r1, r1, ip
    2f64:	e50be040 	str	lr, [fp, -#64]
    2f68:	e50bc064 	str	ip, [fp, -#100]
    2f6c:	e50b1060 	str	r1, [fp, -#96]
    2f70:	e51b1038 	ldr	r1, [fp, -#56]
    2f74:	e3510009 	cmp	r1, #9	; 0x9
    2f78:	83a01000 	movhi	r1, #0	; 0x0
    2f7c:	e3510005 	cmp	r1, #5	; 0x5
    2f80:	e50b1038 	str	r1, [fp, -#56]
    2f84:	c2411004 	subgt	r1, r1, #4	; 0x4
    2f88:	c50b1038 	strgt	r1, [fp, -#56]
    2f8c:	e51be038 	ldr	lr, [fp, -#56]
    2f90:	e3e03000 	mvn	r3, #0	; 0x0
    2f94:	e3a0c001 	mov	ip, #1	; 0x1
    2f98:	e3a05001 	mov	r5, #1	; 0x1
    2f9c:	e50b3044 	str	r3, [fp, -#68]
    2fa0:	c3a05000 	movgt	r5, #0	; 0x0
    2fa4:	e50bc05c 	str	ip, [fp, -#92]
    2fa8:	e50b304c 	str	r3, [fp, -#76]
    2fac:	e35e0005 	cmp	lr, #5	; 0x5
    2fb0:	979ff10e 	ldrls	pc, [pc, lr, lsl #2]
    2fb4:	ea00001e 	b	3034 <_dtoa_r+0x2fc>
    2fb8:	00003028 	andeq	r3, r0, r8, lsr #32
    2fbc:	00003028 	andeq	r3, r0, r8, lsr #32
    2fc0:	00003ee8 	andeq	r3, r0, r8, ror #29
    2fc4:	00003f10 	andeq	r3, r0, r0, lsl pc
    2fc8:	00003ef0 	streqd	r3, [r0], -r0
    2fcc:	00003f18 	andeq	r3, r0, r8, lsl pc
	...
    2fd8:	3ff80000 	swicc	0x00f80000
    2fdc:	00000000 	andeq	r0, r0, r0
    2fe0:	3fd287a7 	swicc	0x00d287a7
    2fe4:	636f4361 	cmnvs	pc, #-2080374783	; 0x84000001
    2fe8:	3fc68a28 	swicc	0x00c68a28
    2fec:	8b60c8b3 	blhi	18352c0 <_etext+0x182b7ec>
    2ff0:	3fd34413 	swicc	0x00d34413
    2ff4:	509f79fb 	ldrplsh	r7, [pc], fp
    2ff8:	00009a74 	andeq	r9, r0, r4, ror sl
    2ffc:	000098c0 	andeq	r9, r0, r0, asr #17
    3000:	000098a0 	andeq	r9, r0, r0, lsr #17
    3004:	000097d8 	ldreqd	r9, [r0], -r8
    3008:	3ff00000 	swicc	0x00f00000	; IMB
    300c:	00000000 	andeq	r0, r0, r0
    3010:	40240000 	eormi	r0, r4, r0
    3014:	00000000 	andeq	r0, r0, r0
    3018:	401c0000 	andmis	r0, ip, r0
    301c:	00000000 	andeq	r0, r0, r0
    3020:	40140000 	andmis	r0, r4, r0
    3024:	00000000 	andeq	r0, r0, r0
    3028:	e3a01000 	mov	r1, #0	; 0x0
    302c:	e3a08012 	mov	r8, #18	; 0x12
    3030:	e58b1004 	str	r1, [fp, #4]
    3034:	e51b2034 	ldr	r2, [fp, -#52]
    3038:	e3a03000 	mov	r3, #0	; 0x0
    303c:	e3580017 	cmp	r8, #23	; 0x17
    3040:	e5823044 	str	r3, [r2, #68]
    3044:	e3a04004 	mov	r4, #4	; 0x4
    3048:	9a000007 	bls	306c <_dtoa_r+0x334>
    304c:	e1a02003 	mov	r2, r3
    3050:	e1a04084 	mov	r4, r4, lsl #1
    3054:	e2843014 	add	r3, r4, #20	; 0x14
    3058:	e1530008 	cmp	r3, r8
    305c:	e2822001 	add	r2, r2, #1	; 0x1
    3060:	9afffffa 	bls	3050 <_dtoa_r+0x318>
    3064:	e51b3034 	ldr	r3, [fp, -#52]
    3068:	e5832044 	str	r2, [r3, #68]
    306c:	e51bc034 	ldr	ip, [fp, -#52]
    3070:	e59c1044 	ldr	r1, [ip, #68]
    3074:	e1a0000c 	mov	r0, ip
    3078:	eb000991 	bl	56c4 <_Balloc>
    307c:	e51be044 	ldr	lr, [fp, -#68]
    3080:	e51b1034 	ldr	r1, [fp, -#52]
    3084:	e35e000e 	cmp	lr, #14	; 0xe
    3088:	83a03000 	movhi	r3, #0	; 0x0
    308c:	92053001 	andls	r3, r5, #1	; 0x1
    3090:	e3530000 	cmp	r3, #0	; 0x0
    3094:	e50b008c 	str	r0, [fp, -#140]
    3098:	e5810040 	str	r0, [r1, #64]
    309c:	e50b0088 	str	r0, [fp, -#136]
    30a0:	0a0000a5 	beq	333c <_dtoa_r+0x604>
    30a4:	e51b3050 	ldr	r3, [fp, -#80]
    30a8:	e24bc070 	sub	ip, fp, #112	; 0x70
    30ac:	e3530000 	cmp	r3, #0	; 0x0
    30b0:	e98c00c0 	stmib	ip, {r6, r7}
    30b4:	e50b3054 	str	r3, [fp, -#84]
    30b8:	e50be048 	str	lr, [fp, -#72]
    30bc:	e3a08002 	mov	r8, #2	; 0x2
    30c0:	da00036b 	ble	3e74 <_dtoa_r+0x113c>
    30c4:	e203200f 	and	r2, r3, #15	; 0xf
    30c8:	e1a04243 	mov	r4, r3, asr #4
    30cc:	e51f30d0 	ldr	r3, [pc, #-208]	; 3004 <_dtoa_r+0x2cc>
    30d0:	e3140010 	tst	r4, #16	; 0x10
    30d4:	e0833182 	add	r3, r3, r2, lsl #3
    30d8:	e8930600 	ldmia	r3, {r9, sl}
    30dc:	0a000008 	beq	3104 <_dtoa_r+0x3cc>
    30e0:	e51f10ec 	ldr	r1, [pc, #-236]	; 2ffc <_dtoa_r+0x2c4>
    30e4:	e891000c 	ldmia	r1, {r2, r3}
    30e8:	e1a01007 	mov	r1, r7
    30ec:	e1a00006 	mov	r0, r6
    30f0:	eb0015ea 	bl	88a0 <__divdf3>
    30f4:	e204400f 	and	r4, r4, #15	; 0xf
    30f8:	e1a07001 	mov	r7, r1
    30fc:	e1a06000 	mov	r6, r0
    3100:	e3a08003 	mov	r8, #3	; 0x3
    3104:	e3540000 	cmp	r4, #0	; 0x0
    3108:	0a00000c 	beq	3140 <_dtoa_r+0x408>
    310c:	e51f5114 	ldr	r5, [pc, #-276]	; 3000 <_dtoa_r+0x2c8>
    3110:	e3140001 	tst	r4, #1	; 0x1
    3114:	e1a0100a 	mov	r1, sl
    3118:	e1a00009 	mov	r0, r9
    311c:	0a000004 	beq	3134 <_dtoa_r+0x3fc>
    3120:	e895000c 	ldmia	r5, {r2, r3}
    3124:	eb0014da 	bl	8494 <__muldf3>
    3128:	e2888001 	add	r8, r8, #1	; 0x1
    312c:	e1a0a001 	mov	sl, r1
    3130:	e1a09000 	mov	r9, r0
    3134:	e1b040c4 	movs	r4, r4, asr #1
    3138:	e2855008 	add	r5, r5, #8	; 0x8
    313c:	1afffff3 	bne	3110 <_dtoa_r+0x3d8>
    3140:	e1a01007 	mov	r1, r7
    3144:	e1a00006 	mov	r0, r6
    3148:	e1a0300a 	mov	r3, sl
    314c:	e1a02009 	mov	r2, r9
    3150:	eb0015d2 	bl	88a0 <__divdf3>
    3154:	e1a07001 	mov	r7, r1
    3158:	e1a06000 	mov	r6, r0
    315c:	e51b2058 	ldr	r2, [fp, -#88]
    3160:	e3520000 	cmp	r2, #0	; 0x0
    3164:	0a00001b 	beq	31d8 <_dtoa_r+0x4a0>
    3168:	e24f2f5a 	sub	r2, pc, #360	; 0x168
    316c:	e892000c 	ldmia	r2, {r2, r3}
    3170:	e1a01007 	mov	r1, r7
    3174:	e1a00006 	mov	r0, r6
    3178:	eb001717 	bl	8ddc <__ltdf2>
    317c:	e51bc044 	ldr	ip, [fp, -#68]
    3180:	e35c0000 	cmp	ip, #0	; 0x0
    3184:	d3a03000 	movle	r3, #0	; 0x0
    3188:	c3a03001 	movgt	r3, #1	; 0x1
    318c:	e0033fa0 	and	r3, r3, r0, lsr #31
    3190:	e3530000 	cmp	r3, #0	; 0x0
    3194:	0a00000f 	beq	31d8 <_dtoa_r+0x4a0>
    3198:	e51be04c 	ldr	lr, [fp, -#76]
    319c:	e35e0000 	cmp	lr, #0	; 0x0
    31a0:	da00005d 	ble	331c <_dtoa_r+0x5e4>
    31a4:	e24f2f67 	sub	r2, pc, #412	; 0x19c
    31a8:	e892000c 	ldmia	r2, {r2, r3}
    31ac:	e1a01007 	mov	r1, r7
    31b0:	e1a00006 	mov	r0, r6
    31b4:	eb0014b6 	bl	8494 <__muldf3>
    31b8:	e51b2050 	ldr	r2, [fp, -#80]
    31bc:	e1a07001 	mov	r7, r1
    31c0:	e1a06000 	mov	r6, r0
    31c4:	e51b104c 	ldr	r1, [fp, -#76]
    31c8:	e2422001 	sub	r2, r2, #1	; 0x1
    31cc:	e50b1044 	str	r1, [fp, -#68]
    31d0:	e50b2050 	str	r2, [fp, -#80]
    31d4:	e2888001 	add	r8, r8, #1	; 0x1
    31d8:	e1a00008 	mov	r0, r8
    31dc:	eb001725 	bl	8e78 <__floatsidf>
    31e0:	e1a03007 	mov	r3, r7
    31e4:	e1a02006 	mov	r2, r6
    31e8:	eb0014a9 	bl	8494 <__muldf3>
    31ec:	e24f2f77 	sub	r2, pc, #476	; 0x1dc
    31f0:	e892000c 	ldmia	r2, {r2, r3}
    31f4:	eb001461 	bl	8380 <__adddf3>
    31f8:	e51b3044 	ldr	r3, [fp, -#68]
    31fc:	e3530000 	cmp	r3, #0	; 0x0
    3200:	e1a05001 	mov	r5, r1
    3204:	e1a04000 	mov	r4, r0
    3208:	e240450d 	sub	r4, r0, #54525952	; 0x3400000
    320c:	1a000294 	bne	3c64 <_dtoa_r+0xf2c>
    3210:	e24f2f7e 	sub	r2, pc, #504	; 0x1f8
    3214:	e892000c 	ldmia	r2, {r2, r3}
    3218:	e1a01007 	mov	r1, r7
    321c:	e1a00006 	mov	r0, r6
    3220:	eb00146e 	bl	83e0 <__subdf3>
    3224:	e1a03005 	mov	r3, r5
    3228:	e1a02004 	mov	r2, r4
    322c:	e1a07001 	mov	r7, r1
    3230:	e1a06000 	mov	r6, r0
    3234:	eb00169a 	bl	8ca4 <__gtdf2>
    3238:	e51bc044 	ldr	ip, [fp, -#68]
    323c:	e3500000 	cmp	r0, #0	; 0x0
    3240:	e50bc080 	str	ip, [fp, -#128]
    3244:	e50bc084 	str	ip, [fp, -#132]
    3248:	da000027 	ble	32ec <_dtoa_r+0x5b4>
    324c:	e51b308c 	ldr	r3, [fp, -#140]
    3250:	e50b3088 	str	r3, [fp, -#136]
    3254:	e51bc088 	ldr	ip, [fp, -#136]
    3258:	e3a03031 	mov	r3, #49	; 0x31
    325c:	e4cc3001 	strb	r3, [ip], #1
    3260:	e51be050 	ldr	lr, [fp, -#80]
    3264:	e28ee001 	add	lr, lr, #1	; 0x1
    3268:	e50bc088 	str	ip, [fp, -#136]
    326c:	e50be050 	str	lr, [fp, -#80]
    3270:	e51b1084 	ldr	r1, [fp, -#132]
    3274:	e51b0034 	ldr	r0, [fp, -#52]
    3278:	eb000936 	bl	5758 <_Bfree>
    327c:	e51be080 	ldr	lr, [fp, -#128]
    3280:	e35e0000 	cmp	lr, #0	; 0x0
    3284:	0a000006 	beq	32a4 <_dtoa_r+0x56c>
    3288:	e51b107c 	ldr	r1, [fp, -#124]
    328c:	e3510000 	cmp	r1, #0	; 0x0
    3290:	1151000e 	cmpne	r1, lr
    3294:	1a000011 	bne	32e0 <_dtoa_r+0x5a8>
    3298:	e51b1080 	ldr	r1, [fp, -#128]
    329c:	e51b0034 	ldr	r0, [fp, -#52]
    32a0:	eb00092c 	bl	5758 <_Bfree>
    32a4:	e51b0034 	ldr	r0, [fp, -#52]
    32a8:	e51b1078 	ldr	r1, [fp, -#120]
    32ac:	eb000929 	bl	5758 <_Bfree>
    32b0:	e51b3050 	ldr	r3, [fp, -#80]
    32b4:	e51be088 	ldr	lr, [fp, -#136]
    32b8:	e2832001 	add	r2, r3, #1	; 0x1
    32bc:	e3a03000 	mov	r3, #0	; 0x0
    32c0:	e59bc010 	ldr	ip, [fp, #16]
    32c4:	e5ce3000 	strb	r3, [lr]
    32c8:	e59b1008 	ldr	r1, [fp, #8]
    32cc:	e51b008c 	ldr	r0, [fp, -#140]
    32d0:	e35c0000 	cmp	ip, #0	; 0x0
    32d4:	e5812000 	str	r2, [r1]
    32d8:	158ce000 	strne	lr, [ip]
    32dc:	e91baff0 	ldmdb	fp, {r4, r5, r6, r7, r8, r9, sl, fp, sp, pc}
    32e0:	e51b0034 	ldr	r0, [fp, -#52]
    32e4:	eb00091b 	bl	5758 <_Bfree>
    32e8:	eaffffea 	b	3298 <_dtoa_r+0x560>
    32ec:	e1a01005 	mov	r1, r5
    32f0:	e1a00004 	mov	r0, r4
    32f4:	eb00174b 	bl	9028 <__negdf2>
    32f8:	e1a03007 	mov	r3, r7
    32fc:	e1a02006 	mov	r2, r6
    3300:	eb001667 	bl	8ca4 <__gtdf2>
    3304:	e3500000 	cmp	r0, #0	; 0x0
    3308:	da000003 	ble	331c <_dtoa_r+0x5e4>
    330c:	e59b2004 	ldr	r2, [fp, #4]
    3310:	e1e02002 	mvn	r2, r2
    3314:	e50b2050 	str	r2, [fp, -#80]
    3318:	eaffffd4 	b	3270 <_dtoa_r+0x538>
    331c:	e51b3054 	ldr	r3, [fp, -#84]
    3320:	e51bc048 	ldr	ip, [fp, -#72]
    3324:	e51be08c 	ldr	lr, [fp, -#140]
    3328:	e24b2070 	sub	r2, fp, #112	; 0x70
    332c:	e99200c0 	ldmib	r2, {r6, r7}
    3330:	e50b3050 	str	r3, [fp, -#80]
    3334:	e50bc044 	str	ip, [fp, -#68]
    3338:	e50be088 	str	lr, [fp, -#136]
    333c:	e51b1050 	ldr	r1, [fp, -#80]
    3340:	e51b202c 	ldr	r2, [fp, -#44]
    3344:	e351000e 	cmp	r1, #14	; 0xe
    3348:	c3a03000 	movgt	r3, #0	; 0x0
    334c:	d3a03001 	movle	r3, #1	; 0x1
    3350:	e3520000 	cmp	r2, #0	; 0x0
    3354:	b3a00000 	movlt	r0, #0	; 0x0
    3358:	a2030001 	andge	r0, r3, #1	; 0x1
    335c:	e3500000 	cmp	r0, #0	; 0x0
    3360:	0a000074 	beq	3538 <_dtoa_r+0x800>
    3364:	e51b3044 	ldr	r3, [fp, -#68]
    3368:	e59bc004 	ldr	ip, [fp, #4]
    336c:	e3530000 	cmp	r3, #0	; 0x0
    3370:	c3a02000 	movgt	r2, #0	; 0x0
    3374:	d3a02001 	movle	r2, #1	; 0x1
    3378:	e51f337c 	ldr	r3, [pc, #-892]	; 3004 <_dtoa_r+0x2cc>
    337c:	e012cfac 	ands	ip, r2, ip, lsr #31
    3380:	e0833181 	add	r3, r3, r1, lsl #3
    3384:	e8930600 	ldmia	r3, {r9, sl}
    3388:	03a08001 	moveq	r8, #1	; 0x1
    338c:	0a000010 	beq	33d4 <_dtoa_r+0x69c>
    3390:	e51be044 	ldr	lr, [fp, -#68]
    3394:	e3a01000 	mov	r1, #0	; 0x0
    3398:	e35e0000 	cmp	lr, #0	; 0x0
    339c:	e50b1080 	str	r1, [fp, -#128]
    33a0:	e50b1084 	str	r1, [fp, -#132]
    33a4:	baffffd8 	blt	330c <_dtoa_r+0x5d4>
    33a8:	e24f2e39 	sub	r2, pc, #912	; 0x390
    33ac:	e892000c 	ldmia	r2, {r2, r3}
    33b0:	e1a0100a 	mov	r1, sl
    33b4:	e1a00009 	mov	r0, r9
    33b8:	eb001435 	bl	8494 <__muldf3>
    33bc:	e1a03007 	mov	r3, r7
    33c0:	e1a02006 	mov	r2, r6
    33c4:	eb00165d 	bl	8d40 <__gedf2>
    33c8:	e3500000 	cmp	r0, #0	; 0x0
    33cc:	aaffffce 	bge	330c <_dtoa_r+0x5d4>
    33d0:	eaffff9d 	b	324c <_dtoa_r+0x514>
    33d4:	e1a0300a 	mov	r3, sl
    33d8:	e1a02009 	mov	r2, r9
    33dc:	e1a01007 	mov	r1, r7
    33e0:	e1a00006 	mov	r0, r6
    33e4:	eb00152d 	bl	88a0 <__divdf3>
    33e8:	eb0016d2 	bl	8f38 <__fixdfsi>
    33ec:	e50b0070 	str	r0, [fp, -#112]
    33f0:	eb0016a0 	bl	8e78 <__floatsidf>
    33f4:	e1a0300a 	mov	r3, sl
    33f8:	e1a02009 	mov	r2, r9
    33fc:	eb001424 	bl	8494 <__muldf3>
    3400:	e1a03001 	mov	r3, r1
    3404:	e1a02000 	mov	r2, r0
    3408:	e1a01007 	mov	r1, r7
    340c:	e1a00006 	mov	r0, r6
    3410:	eb0013f2 	bl	83e0 <__subdf3>
    3414:	e51bc044 	ldr	ip, [fp, -#68]
    3418:	e51be070 	ldr	lr, [fp, -#112]
    341c:	e158000c 	cmp	r8, ip
    3420:	e28ec030 	add	ip, lr, #48	; 0x30
    3424:	e51be088 	ldr	lr, [fp, -#136]
    3428:	e4cec001 	strb	ip, [lr], #1
    342c:	e1a05001 	mov	r5, r1
    3430:	e1a04000 	mov	r4, r0
    3434:	e28f2fd9 	add	r2, pc, #868	; 0x364
    3438:	e892000c 	ldmia	r2, {r2, r3}
    343c:	e2888001 	add	r8, r8, #1	; 0x1
    3440:	e50be088 	str	lr, [fp, -#136]
    3444:	0a00000a 	beq	3474 <_dtoa_r+0x73c>
    3448:	eb001411 	bl	8494 <__muldf3>
    344c:	e1a04001 	mov	r4, r1
    3450:	e1a03000 	mov	r3, r0
    3454:	e28f2fd3 	add	r2, pc, #844	; 0x34c
    3458:	e892000c 	ldmia	r2, {r2, r3}
    345c:	e1a07001 	mov	r7, r1
    3460:	e1a06000 	mov	r6, r0
    3464:	eb0015c0 	bl	8b6c <__eqdf2>
    3468:	e3500000 	cmp	r0, #0	; 0x0
    346c:	1affffd8 	bne	33d4 <_dtoa_r+0x69c>
    3470:	eaffff8b 	b	32a4 <_dtoa_r+0x56c>
    3474:	e1a03001 	mov	r3, r1
    3478:	e1a02000 	mov	r2, r0
    347c:	eb0013bf 	bl	8380 <__adddf3>
    3480:	e1a05001 	mov	r5, r1
    3484:	e1a04000 	mov	r4, r0
    3488:	e1a03005 	mov	r3, r5
    348c:	e1a02004 	mov	r2, r4
    3490:	e1a0100a 	mov	r1, sl
    3494:	e1a00009 	mov	r0, r9
    3498:	eb00164f 	bl	8ddc <__ltdf2>
    349c:	e3500000 	cmp	r0, #0	; 0x0
    34a0:	ba000009 	blt	34cc <_dtoa_r+0x794>
    34a4:	e1a0100a 	mov	r1, sl
    34a8:	e1a00009 	mov	r0, r9
    34ac:	e1a03005 	mov	r3, r5
    34b0:	e1a02004 	mov	r2, r4
    34b4:	eb0015ac 	bl	8b6c <__eqdf2>
    34b8:	e3500000 	cmp	r0, #0	; 0x0
    34bc:	1affff78 	bne	32a4 <_dtoa_r+0x56c>
    34c0:	e51b1070 	ldr	r1, [fp, -#112]
    34c4:	e3110001 	tst	r1, #1	; 0x1
    34c8:	0affff75 	beq	32a4 <_dtoa_r+0x56c>
    34cc:	e51b3088 	ldr	r3, [fp, -#136]
    34d0:	e5732001 	ldrb	r2, [r3, -#1]!
    34d4:	e3520039 	cmp	r2, #57	; 0x39
    34d8:	e50b3088 	str	r3, [fp, -#136]
    34dc:	0a000004 	beq	34f4 <_dtoa_r+0x7bc>
    34e0:	e51b1088 	ldr	r1, [fp, -#136]
    34e4:	e2823001 	add	r3, r2, #1	; 0x1
    34e8:	e4c13001 	strb	r3, [r1], #1
    34ec:	e50b1088 	str	r1, [fp, -#136]
    34f0:	eaffff6b 	b	32a4 <_dtoa_r+0x56c>
    34f4:	e51bc088 	ldr	ip, [fp, -#136]
    34f8:	e51be08c 	ldr	lr, [fp, -#140]
    34fc:	e15c000e 	cmp	ip, lr
    3500:	0a000004 	beq	3518 <_dtoa_r+0x7e0>
    3504:	e57c2001 	ldrb	r2, [ip, -#1]!
    3508:	e3520039 	cmp	r2, #57	; 0x39
    350c:	e50bc088 	str	ip, [fp, -#136]
    3510:	0afffff7 	beq	34f4 <_dtoa_r+0x7bc>
    3514:	eafffff1 	b	34e0 <_dtoa_r+0x7a8>
    3518:	e51bc050 	ldr	ip, [fp, -#80]
    351c:	e3a03030 	mov	r3, #48	; 0x30
    3520:	e51be08c 	ldr	lr, [fp, -#140]
    3524:	e28cc001 	add	ip, ip, #1	; 0x1
    3528:	e1a02003 	mov	r2, r3
    352c:	e50bc050 	str	ip, [fp, -#80]
    3530:	e5ce3000 	strb	r3, [lr]
    3534:	eaffffe9 	b	34e0 <_dtoa_r+0x7a8>
    3538:	e51b105c 	ldr	r1, [fp, -#92]
    353c:	e3510000 	cmp	r1, #0	; 0x0
    3540:	e50b0080 	str	r0, [fp, -#128]
    3544:	e24b5040 	sub	r5, fp, #64	; 0x40
    3548:	e8950420 	ldmia	r5, {r5, sl}
    354c:	e50b007c 	str	r0, [fp, -#124]
    3550:	0a00001e 	beq	35d0 <_dtoa_r+0x898>
    3554:	e51b3038 	ldr	r3, [fp, -#56]
    3558:	e3530001 	cmp	r3, #1	; 0x1
    355c:	da0001b9 	ble	3c48 <_dtoa_r+0xf10>
    3560:	e51be044 	ldr	lr, [fp, -#68]
    3564:	e51b1040 	ldr	r1, [fp, -#64]
    3568:	e24e4001 	sub	r4, lr, #1	; 0x1
    356c:	e1510004 	cmp	r1, r4
    3570:	b51b2040 	ldrlt	r2, [fp, -#64]
    3574:	b51b3064 	ldrlt	r3, [fp, -#100]
    3578:	b0624004 	rsblt	r4, r2, r4
    357c:	e51b8044 	ldr	r8, [fp, -#68]
    3580:	b0822004 	addlt	r2, r2, r4
    3584:	b0833004 	addlt	r3, r3, r4
    3588:	a0645001 	rsbge	r5, r4, r1
    358c:	b50b2040 	strlt	r2, [fp, -#64]
    3590:	b51b5080 	ldrlt	r5, [fp, -#128]
    3594:	b50b3064 	strlt	r3, [fp, -#100]
    3598:	e3580000 	cmp	r8, #0	; 0x0
    359c:	b51bc03c 	ldrlt	ip, [fp, -#60]
    35a0:	b068a00c 	rsblt	sl, r8, ip
    35a4:	b3a08000 	movlt	r8, #0	; 0x0
    35a8:	e51be060 	ldr	lr, [fp, -#96]
    35ac:	e3a01001 	mov	r1, #1	; 0x1
    35b0:	e08ee008 	add	lr, lr, r8
    35b4:	e51b0034 	ldr	r0, [fp, -#52]
    35b8:	e50be060 	str	lr, [fp, -#96]
    35bc:	eb000913 	bl	5a10 <_i2b>
    35c0:	e51b103c 	ldr	r1, [fp, -#60]
    35c4:	e0811008 	add	r1, r1, r8
    35c8:	e50b0080 	str	r0, [fp, -#128]
    35cc:	e50b103c 	str	r1, [fp, -#60]
    35d0:	e51b2060 	ldr	r2, [fp, -#96]
    35d4:	e35a0000 	cmp	sl, #0	; 0x0
    35d8:	c3520000 	cmpgt	r2, #0	; 0x0
    35dc:	da000008 	ble	3604 <_dtoa_r+0x8cc>
    35e0:	e1a08002 	mov	r8, r2
    35e4:	e51b303c 	ldr	r3, [fp, -#60]
    35e8:	e158000a 	cmp	r8, sl
    35ec:	a1a0800a 	movge	r8, sl
    35f0:	e0682002 	rsb	r2, r8, r2
    35f4:	e0683003 	rsb	r3, r8, r3
    35f8:	e50b2060 	str	r2, [fp, -#96]
    35fc:	e50b303c 	str	r3, [fp, -#60]
    3600:	e068a00a 	rsb	sl, r8, sl
    3604:	e51bc040 	ldr	ip, [fp, -#64]
    3608:	e35c0000 	cmp	ip, #0	; 0x0
    360c:	da000017 	ble	3670 <_dtoa_r+0x938>
    3610:	e51be05c 	ldr	lr, [fp, -#92]
    3614:	e35e0000 	cmp	lr, #0	; 0x0
    3618:	0a000187 	beq	3c3c <_dtoa_r+0xf04>
    361c:	e3550000 	cmp	r5, #0	; 0x0
    3620:	da00000d 	ble	365c <_dtoa_r+0x924>
    3624:	e51b1080 	ldr	r1, [fp, -#128]
    3628:	e1a02005 	mov	r2, r5
    362c:	e51b0034 	ldr	r0, [fp, -#52]
    3630:	eb000980 	bl	5c38 <_pow5mult>
    3634:	e50b0080 	str	r0, [fp, -#128]
    3638:	e51b1080 	ldr	r1, [fp, -#128]
    363c:	e51b2078 	ldr	r2, [fp, -#120]
    3640:	e51b0034 	ldr	r0, [fp, -#52]
    3644:	eb0008fb 	bl	5a38 <_multiply>
    3648:	e51b1078 	ldr	r1, [fp, -#120]
    364c:	e1a04000 	mov	r4, r0
    3650:	e51b0034 	ldr	r0, [fp, -#52]
    3654:	eb00083f 	bl	5758 <_Bfree>
    3658:	e50b4078 	str	r4, [fp, -#120]
    365c:	e51b1040 	ldr	r1, [fp, -#64]
    3660:	e0514005 	subs	r4, r1, r5
    3664:	151b1078 	ldrne	r1, [fp, -#120]
    3668:	11a02004 	movne	r2, r4
    366c:	1a00016e 	bne	3c2c <_dtoa_r+0xef4>
    3670:	e51b0034 	ldr	r0, [fp, -#52]
    3674:	e3a01001 	mov	r1, #1	; 0x1
    3678:	eb0008e4 	bl	5a10 <_i2b>
    367c:	e51b2064 	ldr	r2, [fp, -#100]
    3680:	e3520000 	cmp	r2, #0	; 0x0
    3684:	e50b0084 	str	r0, [fp, -#132]
    3688:	da000003 	ble	369c <_dtoa_r+0x964>
    368c:	e1a01000 	mov	r1, r0
    3690:	e51b0034 	ldr	r0, [fp, -#52]
    3694:	eb000967 	bl	5c38 <_pow5mult>
    3698:	e50b0084 	str	r0, [fp, -#132]
    369c:	e51b3038 	ldr	r3, [fp, -#56]
    36a0:	e3530001 	cmp	r3, #1	; 0x1
    36a4:	e3a04000 	mov	r4, #0	; 0x0
    36a8:	da00014c 	ble	3be0 <_dtoa_r+0xea8>
    36ac:	e51b1064 	ldr	r1, [fp, -#100]
    36b0:	e3510000 	cmp	r1, #0	; 0x0
    36b4:	051bc060 	ldreq	ip, [fp, -#96]
    36b8:	028c3001 	addeq	r3, ip, #1	; 0x1
    36bc:	0203801f 	andeq	r8, r3, #31	; 0x1f
    36c0:	1a00013d 	bne	3bbc <_dtoa_r+0xe84>
    36c4:	e3580000 	cmp	r8, #0	; 0x0
    36c8:	12688020 	rsbne	r8, r8, #32	; 0x20
    36cc:	e3580004 	cmp	r8, #4	; 0x4
    36d0:	da00012f 	ble	3b94 <_dtoa_r+0xe5c>
    36d4:	e51be060 	ldr	lr, [fp, -#96]
    36d8:	e51b103c 	ldr	r1, [fp, -#60]
    36dc:	e2488004 	sub	r8, r8, #4	; 0x4
    36e0:	e08ee008 	add	lr, lr, r8
    36e4:	e0811008 	add	r1, r1, r8
    36e8:	e50be060 	str	lr, [fp, -#96]
    36ec:	e50b103c 	str	r1, [fp, -#60]
    36f0:	e08aa008 	add	sl, sl, r8
    36f4:	e51bc03c 	ldr	ip, [fp, -#60]
    36f8:	e35c0000 	cmp	ip, #0	; 0x0
    36fc:	da000004 	ble	3714 <_dtoa_r+0x9dc>
    3700:	e51b1078 	ldr	r1, [fp, -#120]
    3704:	e1a0200c 	mov	r2, ip
    3708:	e51b0034 	ldr	r0, [fp, -#52]
    370c:	eb000984 	bl	5d24 <_lshift>
    3710:	e50b0078 	str	r0, [fp, -#120]
    3714:	e51be060 	ldr	lr, [fp, -#96]
    3718:	e35e0000 	cmp	lr, #0	; 0x0
    371c:	da000004 	ble	3734 <_dtoa_r+0x9fc>
    3720:	e51b1084 	ldr	r1, [fp, -#132]
    3724:	e1a0200e 	mov	r2, lr
    3728:	e51b0034 	ldr	r0, [fp, -#52]
    372c:	eb00097c 	bl	5d24 <_lshift>
    3730:	e50b0084 	str	r0, [fp, -#132]
    3734:	e51b1058 	ldr	r1, [fp, -#88]
    3738:	e3510000 	cmp	r1, #0	; 0x0
    373c:	1a0000f9 	bne	3b28 <_dtoa_r+0xdf0>
    3740:	e51be038 	ldr	lr, [fp, -#56]
    3744:	e51b1044 	ldr	r1, [fp, -#68]
    3748:	e35e0002 	cmp	lr, #2	; 0x2
    374c:	d3a03000 	movle	r3, #0	; 0x0
    3750:	c3a03001 	movgt	r3, #1	; 0x1
    3754:	e3510000 	cmp	r1, #0	; 0x0
    3758:	c3a03000 	movgt	r3, #0	; 0x0
    375c:	d2033001 	andle	r3, r3, #1	; 0x1
    3760:	e3530000 	cmp	r3, #0	; 0x0
    3764:	0a000012 	beq	37b4 <_dtoa_r+0xa7c>
    3768:	e3510000 	cmp	r1, #0	; 0x0
    376c:	bafffee6 	blt	330c <_dtoa_r+0x5d4>
    3770:	e51b1084 	ldr	r1, [fp, -#132]
    3774:	e3a02005 	mov	r2, #5	; 0x5
    3778:	e3a03000 	mov	r3, #0	; 0x0
    377c:	e51b0034 	ldr	r0, [fp, -#52]
    3780:	eb0007fc 	bl	5778 <_multadd>
    3784:	e50b0084 	str	r0, [fp, -#132]
    3788:	e51b1084 	ldr	r1, [fp, -#132]
    378c:	e51b0078 	ldr	r0, [fp, -#120]
    3790:	eb00099e 	bl	5e10 <__mcmp>
    3794:	e3500000 	cmp	r0, #0	; 0x0
    3798:	cafffeab 	bgt	324c <_dtoa_r+0x514>
    379c:	eafffeda 	b	330c <_dtoa_r+0x5d4>
    37a0:	40240000 	eormi	r0, r4, r0
	...
    37b0:	000097d8 	ldreqd	r9, [r0], -r8
    37b4:	e51b105c 	ldr	r1, [fp, -#92]
    37b8:	e3510000 	cmp	r1, #0	; 0x0
    37bc:	03a08001 	moveq	r8, #1	; 0x1
    37c0:	0a0000c3 	beq	3ad4 <_dtoa_r+0xd9c>
    37c4:	e35a0000 	cmp	sl, #0	; 0x0
    37c8:	da000004 	ble	37e0 <_dtoa_r+0xaa8>
    37cc:	e51b1080 	ldr	r1, [fp, -#128]
    37d0:	e1a0200a 	mov	r2, sl
    37d4:	e51b0034 	ldr	r0, [fp, -#52]
    37d8:	eb000951 	bl	5d24 <_lshift>
    37dc:	e50b0080 	str	r0, [fp, -#128]
    37e0:	e51b2080 	ldr	r2, [fp, -#128]
    37e4:	e3540000 	cmp	r4, #0	; 0x0
    37e8:	e50b207c 	str	r2, [fp, -#124]
    37ec:	1a0000a7 	bne	3a90 <_dtoa_r+0xd58>
    37f0:	e3a08001 	mov	r8, #1	; 0x1
    37f4:	e51b1084 	ldr	r1, [fp, -#132]
    37f8:	e51b0078 	ldr	r0, [fp, -#120]
    37fc:	ebfffccc 	bl	2b34 <quorem>
    3800:	e51b107c 	ldr	r1, [fp, -#124]
    3804:	e1a03000 	mov	r3, r0
    3808:	e51b0078 	ldr	r0, [fp, -#120]
    380c:	e2839030 	add	r9, r3, #48	; 0x30
    3810:	eb00097e 	bl	5e10 <__mcmp>
    3814:	e51b1084 	ldr	r1, [fp, -#132]
    3818:	e1a04000 	mov	r4, r0
    381c:	e51b2080 	ldr	r2, [fp, -#128]
    3820:	e51b0034 	ldr	r0, [fp, -#52]
    3824:	eb00098e 	bl	5e64 <__mdiff>
    3828:	e590300c 	ldr	r3, [r0, #12]
    382c:	e3530000 	cmp	r3, #0	; 0x0
    3830:	e1a05000 	mov	r5, r0
    3834:	13a0a001 	movne	sl, #1	; 0x1
    3838:	0a00008f 	beq	3a7c <_dtoa_r+0xd44>
    383c:	e1a01005 	mov	r1, r5
    3840:	e51b0034 	ldr	r0, [fp, -#52]
    3844:	eb0007c3 	bl	5758 <_Bfree>
    3848:	e51bc038 	ldr	ip, [fp, -#56]
    384c:	e19ac00c 	orrs	ip, sl, ip
    3850:	1a000001 	bne	385c <_dtoa_r+0xb24>
    3854:	e3170001 	tst	r7, #1	; 0x1
    3858:	0a000080 	beq	3a60 <_dtoa_r+0xd28>
    385c:	e3540000 	cmp	r4, #0	; 0x0
    3860:	ba000067 	blt	3a04 <_dtoa_r+0xccc>
    3864:	e51b1038 	ldr	r1, [fp, -#56]
    3868:	e1941001 	orrs	r1, r4, r1
    386c:	1a000001 	bne	3878 <_dtoa_r+0xb40>
    3870:	e3170001 	tst	r7, #1	; 0x1
    3874:	0a000062 	beq	3a04 <_dtoa_r+0xccc>
    3878:	e35a0000 	cmp	sl, #0	; 0x0
    387c:	ca000054 	bgt	39d4 <_dtoa_r+0xc9c>
    3880:	e51b2088 	ldr	r2, [fp, -#136]
    3884:	e51b1044 	ldr	r1, [fp, -#68]
    3888:	e4c29001 	strb	r9, [r2], #1
    388c:	e1580001 	cmp	r8, r1
    3890:	e50b2088 	str	r2, [fp, -#136]
    3894:	0a00001f 	beq	3918 <_dtoa_r+0xbe0>
    3898:	e3a03000 	mov	r3, #0	; 0x0
    389c:	e51b1078 	ldr	r1, [fp, -#120]
    38a0:	e51b0034 	ldr	r0, [fp, -#52]
    38a4:	e3a0200a 	mov	r2, #10	; 0xa
    38a8:	eb0007b2 	bl	5778 <_multadd>
    38ac:	e51b307c 	ldr	r3, [fp, -#124]
    38b0:	e51bc080 	ldr	ip, [fp, -#128]
    38b4:	e153000c 	cmp	r3, ip
    38b8:	e50b0078 	str	r0, [fp, -#120]
    38bc:	0a00000d 	beq	38f8 <_dtoa_r+0xbc0>
    38c0:	e51b107c 	ldr	r1, [fp, -#124]
    38c4:	e3a0200a 	mov	r2, #10	; 0xa
    38c8:	e3a03000 	mov	r3, #0	; 0x0
    38cc:	e51b0034 	ldr	r0, [fp, -#52]
    38d0:	eb0007a8 	bl	5778 <_multadd>
    38d4:	e51b1080 	ldr	r1, [fp, -#128]
    38d8:	e50b007c 	str	r0, [fp, -#124]
    38dc:	e3a0200a 	mov	r2, #10	; 0xa
    38e0:	e51b0034 	ldr	r0, [fp, -#52]
    38e4:	e3a03000 	mov	r3, #0	; 0x0
    38e8:	eb0007a2 	bl	5778 <_multadd>
    38ec:	e50b0080 	str	r0, [fp, -#128]
    38f0:	e2888001 	add	r8, r8, #1	; 0x1
    38f4:	eaffffbe 	b	37f4 <_dtoa_r+0xabc>
    38f8:	e1a0100c 	mov	r1, ip
    38fc:	e51b0034 	ldr	r0, [fp, -#52]
    3900:	e3a0200a 	mov	r2, #10	; 0xa
    3904:	e3a03000 	mov	r3, #0	; 0x0
    3908:	eb00079a 	bl	5778 <_multadd>
    390c:	e50b0080 	str	r0, [fp, -#128]
    3910:	e50b007c 	str	r0, [fp, -#124]
    3914:	eafffff5 	b	38f0 <_dtoa_r+0xbb8>
    3918:	e51b1078 	ldr	r1, [fp, -#120]
    391c:	e3a02001 	mov	r2, #1	; 0x1
    3920:	e51b0034 	ldr	r0, [fp, -#52]
    3924:	eb0008fe 	bl	5d24 <_lshift>
    3928:	e51b1084 	ldr	r1, [fp, -#132]
    392c:	e50b0078 	str	r0, [fp, -#120]
    3930:	eb000936 	bl	5e10 <__mcmp>
    3934:	e3500000 	cmp	r0, #0	; 0x0
    3938:	e1a04000 	mov	r4, r0
    393c:	da00001a 	ble	39ac <_dtoa_r+0xc74>
    3940:	e51be088 	ldr	lr, [fp, -#136]
    3944:	e57e2001 	ldrb	r2, [lr, -#1]!
    3948:	e3520039 	cmp	r2, #57	; 0x39
    394c:	e50be088 	str	lr, [fp, -#136]
    3950:	0a000004 	beq	3968 <_dtoa_r+0xc30>
    3954:	e51bc088 	ldr	ip, [fp, -#136]
    3958:	e2823001 	add	r3, r2, #1	; 0x1
    395c:	e4cc3001 	strb	r3, [ip], #1
    3960:	e50bc088 	str	ip, [fp, -#136]
    3964:	eafffe41 	b	3270 <_dtoa_r+0x538>
    3968:	e51b1088 	ldr	r1, [fp, -#136]
    396c:	e51b208c 	ldr	r2, [fp, -#140]
    3970:	e1510002 	cmp	r1, r2
    3974:	0a000004 	beq	398c <_dtoa_r+0xc54>
    3978:	e5712001 	ldrb	r2, [r1, -#1]!
    397c:	e3520039 	cmp	r2, #57	; 0x39
    3980:	e50b1088 	str	r1, [fp, -#136]
    3984:	0afffff7 	beq	3968 <_dtoa_r+0xc30>
    3988:	eafffff1 	b	3954 <_dtoa_r+0xc1c>
    398c:	e51be08c 	ldr	lr, [fp, -#140]
    3990:	e3a03031 	mov	r3, #49	; 0x31
    3994:	e1a0100e 	mov	r1, lr
    3998:	e4c13001 	strb	r3, [r1], #1
    399c:	e51b2050 	ldr	r2, [fp, -#80]
    39a0:	e50b1088 	str	r1, [fp, -#136]
    39a4:	e2822001 	add	r2, r2, #1	; 0x1
    39a8:	eafffe59 	b	3314 <_dtoa_r+0x5dc>
    39ac:	1a000001 	bne	39b8 <_dtoa_r+0xc80>
    39b0:	e3190001 	tst	r9, #1	; 0x1
    39b4:	1affffe1 	bne	3940 <_dtoa_r+0xc08>
    39b8:	e51bc088 	ldr	ip, [fp, -#136]
    39bc:	e57c3001 	ldrb	r3, [ip, -#1]!
    39c0:	e3530030 	cmp	r3, #48	; 0x30
    39c4:	e50bc088 	str	ip, [fp, -#136]
    39c8:	0afffffa 	beq	39b8 <_dtoa_r+0xc80>
    39cc:	e28cc001 	add	ip, ip, #1	; 0x1
    39d0:	eaffffe2 	b	3960 <_dtoa_r+0xc28>
    39d4:	e3590039 	cmp	r9, #57	; 0x39
    39d8:	151be088 	ldrne	lr, [fp, -#136]
    39dc:	12893001 	addne	r3, r9, #1	; 0x1
    39e0:	14ce3001 	strneb	r3, [lr], #1
    39e4:	0a000001 	beq	39f0 <_dtoa_r+0xcb8>
    39e8:	e50be088 	str	lr, [fp, -#136]
    39ec:	eafffe1f 	b	3270 <_dtoa_r+0x538>
    39f0:	e51bc088 	ldr	ip, [fp, -#136]
    39f4:	e3a03039 	mov	r3, #57	; 0x39
    39f8:	e4cc3001 	strb	r3, [ip], #1
    39fc:	e50bc088 	str	ip, [fp, -#136]
    3a00:	eaffffce 	b	3940 <_dtoa_r+0xc08>
    3a04:	e35a0000 	cmp	sl, #0	; 0x0
    3a08:	da00000c 	ble	3a40 <_dtoa_r+0xd08>
    3a0c:	e51b1078 	ldr	r1, [fp, -#120]
    3a10:	e3a02001 	mov	r2, #1	; 0x1
    3a14:	e51b0034 	ldr	r0, [fp, -#52]
    3a18:	eb0008c1 	bl	5d24 <_lshift>
    3a1c:	e51b1084 	ldr	r1, [fp, -#132]
    3a20:	e50b0078 	str	r0, [fp, -#120]
    3a24:	eb0008f9 	bl	5e10 <__mcmp>
    3a28:	e3500000 	cmp	r0, #0	; 0x0
    3a2c:	e1a0a000 	mov	sl, r0
    3a30:	da000006 	ble	3a50 <_dtoa_r+0xd18>
    3a34:	e2899001 	add	r9, r9, #1	; 0x1
    3a38:	e359003a 	cmp	r9, #58	; 0x3a
    3a3c:	0affffeb 	beq	39f0 <_dtoa_r+0xcb8>
    3a40:	e51b2088 	ldr	r2, [fp, -#136]
    3a44:	e4c29001 	strb	r9, [r2], #1
    3a48:	e50b2088 	str	r2, [fp, -#136]
    3a4c:	eafffe07 	b	3270 <_dtoa_r+0x538>
    3a50:	1afffffa 	bne	3a40 <_dtoa_r+0xd08>
    3a54:	e3190001 	tst	r9, #1	; 0x1
    3a58:	0afffff8 	beq	3a40 <_dtoa_r+0xd08>
    3a5c:	eafffff4 	b	3a34 <_dtoa_r+0xcfc>
    3a60:	e3590039 	cmp	r9, #57	; 0x39
    3a64:	0affffe1 	beq	39f0 <_dtoa_r+0xcb8>
    3a68:	e3540000 	cmp	r4, #0	; 0x0
    3a6c:	e51be088 	ldr	lr, [fp, -#136]
    3a70:	c2899001 	addgt	r9, r9, #1	; 0x1
    3a74:	e4ce9001 	strb	r9, [lr], #1
    3a78:	eaffffda 	b	39e8 <_dtoa_r+0xcb0>
    3a7c:	e51b0078 	ldr	r0, [fp, -#120]
    3a80:	e1a01005 	mov	r1, r5
    3a84:	eb0008e1 	bl	5e10 <__mcmp>
    3a88:	e1a0a000 	mov	sl, r0
    3a8c:	eaffff6a 	b	383c <_dtoa_r+0xb04>
    3a90:	e5921004 	ldr	r1, [r2, #4]
    3a94:	e51b0034 	ldr	r0, [fp, -#52]
    3a98:	eb000709 	bl	56c4 <_Balloc>
    3a9c:	e51b307c 	ldr	r3, [fp, -#124]
    3aa0:	e5932010 	ldr	r2, [r3, #16]
    3aa4:	e1a02102 	mov	r2, r2, lsl #2
    3aa8:	e283100c 	add	r1, r3, #12	; 0xc
    3aac:	e50b0080 	str	r0, [fp, -#128]
    3ab0:	e2822008 	add	r2, r2, #8	; 0x8
    3ab4:	e280000c 	add	r0, r0, #12	; 0xc
    3ab8:	eb000685 	bl	54d4 <memcpy>
    3abc:	e51b0034 	ldr	r0, [fp, -#52]
    3ac0:	e51b1080 	ldr	r1, [fp, -#128]
    3ac4:	e3a02001 	mov	r2, #1	; 0x1
    3ac8:	eb000895 	bl	5d24 <_lshift>
    3acc:	e50b0080 	str	r0, [fp, -#128]
    3ad0:	eaffff46 	b	37f0 <_dtoa_r+0xab8>
    3ad4:	e51b1084 	ldr	r1, [fp, -#132]
    3ad8:	e51b0078 	ldr	r0, [fp, -#120]
    3adc:	ebfffc14 	bl	2b34 <quorem>
    3ae0:	e1a0c000 	mov	ip, r0
    3ae4:	e28c9030 	add	r9, ip, #48	; 0x30
    3ae8:	e51bc088 	ldr	ip, [fp, -#136]
    3aec:	e51be044 	ldr	lr, [fp, -#68]
    3af0:	e51b1078 	ldr	r1, [fp, -#120]
    3af4:	e51b0034 	ldr	r0, [fp, -#52]
    3af8:	e5cc9000 	strb	r9, [ip]
    3afc:	e51bc088 	ldr	ip, [fp, -#136]
    3b00:	e158000e 	cmp	r8, lr
    3b04:	e28cc001 	add	ip, ip, #1	; 0x1
    3b08:	e3a0200a 	mov	r2, #10	; 0xa
    3b0c:	e3a03000 	mov	r3, #0	; 0x0
    3b10:	e2888001 	add	r8, r8, #1	; 0x1
    3b14:	e50bc088 	str	ip, [fp, -#136]
    3b18:	aaffff7e 	bge	3918 <_dtoa_r+0xbe0>
    3b1c:	eb000715 	bl	5778 <_multadd>
    3b20:	e50b0078 	str	r0, [fp, -#120]
    3b24:	eaffffea 	b	3ad4 <_dtoa_r+0xd9c>
    3b28:	e51b0078 	ldr	r0, [fp, -#120]
    3b2c:	e51b1084 	ldr	r1, [fp, -#132]
    3b30:	eb0008b6 	bl	5e10 <__mcmp>
    3b34:	e3500000 	cmp	r0, #0	; 0x0
    3b38:	aaffff00 	bge	3740 <_dtoa_r+0xa08>
    3b3c:	e3a0200a 	mov	r2, #10	; 0xa
    3b40:	e3a03000 	mov	r3, #0	; 0x0
    3b44:	e51b1078 	ldr	r1, [fp, -#120]
    3b48:	e51b0034 	ldr	r0, [fp, -#52]
    3b4c:	eb000709 	bl	5778 <_multadd>
    3b50:	e51b3050 	ldr	r3, [fp, -#80]
    3b54:	e51b205c 	ldr	r2, [fp, -#92]
    3b58:	e2433001 	sub	r3, r3, #1	; 0x1
    3b5c:	e3520000 	cmp	r2, #0	; 0x0
    3b60:	e50b0078 	str	r0, [fp, -#120]
    3b64:	e50b3050 	str	r3, [fp, -#80]
    3b68:	1a000002 	bne	3b78 <_dtoa_r+0xe40>
    3b6c:	e51bc04c 	ldr	ip, [fp, -#76]
    3b70:	e50bc044 	str	ip, [fp, -#68]
    3b74:	eafffef1 	b	3740 <_dtoa_r+0xa08>
    3b78:	e51b1080 	ldr	r1, [fp, -#128]
    3b7c:	e51b0034 	ldr	r0, [fp, -#52]
    3b80:	e3a0200a 	mov	r2, #10	; 0xa
    3b84:	e3a03000 	mov	r3, #0	; 0x0
    3b88:	eb0006fa 	bl	5778 <_multadd>
    3b8c:	e50b0080 	str	r0, [fp, -#128]
    3b90:	eafffff5 	b	3b6c <_dtoa_r+0xe34>
    3b94:	e3580003 	cmp	r8, #3	; 0x3
    3b98:	cafffed5 	bgt	36f4 <_dtoa_r+0x9bc>
    3b9c:	e51b2060 	ldr	r2, [fp, -#96]
    3ba0:	e51b303c 	ldr	r3, [fp, -#60]
    3ba4:	e288801c 	add	r8, r8, #28	; 0x1c
    3ba8:	e0822008 	add	r2, r2, r8
    3bac:	e0833008 	add	r3, r3, r8
    3bb0:	e50b2060 	str	r2, [fp, -#96]
    3bb4:	e50b303c 	str	r3, [fp, -#60]
    3bb8:	eafffecc 	b	36f0 <_dtoa_r+0x9b8>
    3bbc:	e51b2084 	ldr	r2, [fp, -#132]
    3bc0:	e5923010 	ldr	r3, [r2, #16]
    3bc4:	e0823103 	add	r3, r2, r3, lsl #2
    3bc8:	e5930010 	ldr	r0, [r3, #16]
    3bcc:	eb000753 	bl	5920 <_hi0bits>
    3bd0:	e51b3060 	ldr	r3, [fp, -#96]
    3bd4:	e0600003 	rsb	r0, r0, r3
    3bd8:	e200801f 	and	r8, r0, #31	; 0x1f
    3bdc:	eafffeb8 	b	36c4 <_dtoa_r+0x98c>
    3be0:	e1570004 	cmp	r7, r4
    3be4:	1afffeb0 	bne	36ac <_dtoa_r+0x974>
    3be8:	e3c634ff 	bic	r3, r6, #-16777216	; 0xff000000
    3bec:	e3c3360f 	bic	r3, r3, #15728640	; 0xf00000
    3bf0:	e1530004 	cmp	r3, r4
    3bf4:	1afffeac 	bne	36ac <_dtoa_r+0x974>
    3bf8:	e3c63102 	bic	r3, r6, #-2147483648	; 0x80000000
    3bfc:	e1a03a23 	mov	r3, r3, lsr #20
    3c00:	e1a03a03 	mov	r3, r3, lsl #20
    3c04:	e1530004 	cmp	r3, r4
    3c08:	0afffea7 	beq	36ac <_dtoa_r+0x974>
    3c0c:	e51bc03c 	ldr	ip, [fp, -#60]
    3c10:	e51be060 	ldr	lr, [fp, -#96]
    3c14:	e28cc001 	add	ip, ip, #1	; 0x1
    3c18:	e28ee001 	add	lr, lr, #1	; 0x1
    3c1c:	e50bc03c 	str	ip, [fp, -#60]
    3c20:	e50be060 	str	lr, [fp, -#96]
    3c24:	e3a04001 	mov	r4, #1	; 0x1
    3c28:	eafffe9f 	b	36ac <_dtoa_r+0x974>
    3c2c:	e51b0034 	ldr	r0, [fp, -#52]
    3c30:	eb000800 	bl	5c38 <_pow5mult>
    3c34:	e50b0078 	str	r0, [fp, -#120]
    3c38:	eafffe8c 	b	3670 <_dtoa_r+0x938>
    3c3c:	e51b1078 	ldr	r1, [fp, -#120]
    3c40:	e51b2040 	ldr	r2, [fp, -#64]
    3c44:	eafffff8 	b	3c2c <_dtoa_r+0xef4>
    3c48:	e51bc074 	ldr	ip, [fp, -#116]
    3c4c:	e35c0000 	cmp	ip, #0	; 0x0
    3c50:	051b3030 	ldreq	r3, [fp, -#48]
    3c54:	12828e43 	addne	r8, r2, #1072	; 0x430
    3c58:	12888003 	addne	r8, r8, #3	; 0x3
    3c5c:	02638036 	rsbeq	r8, r3, #54	; 0x36
    3c60:	eafffe50 	b	35a8 <_dtoa_r+0x870>
    3c64:	e51be05c 	ldr	lr, [fp, -#92]
    3c68:	e35e0000 	cmp	lr, #0	; 0x0
    3c6c:	0a000040 	beq	3d74 <_dtoa_r+0x103c>
    3c70:	e51b2044 	ldr	r2, [fp, -#68]
    3c74:	e51f14cc 	ldr	r1, [pc, #-1228]	; 37b0 <_dtoa_r+0xa78>
    3c78:	e0811182 	add	r1, r1, r2, lsl #3
    3c7c:	e911000c 	ldmdb	r1, {r2, r3}
    3c80:	e28f0fe1 	add	r0, pc, #900	; 0x384
    3c84:	e8900003 	ldmia	r0, {r0, r1}
    3c88:	eb001304 	bl	88a0 <__divdf3>
    3c8c:	e1a03005 	mov	r3, r5
    3c90:	e1a02004 	mov	r2, r4
    3c94:	eb0011d1 	bl	83e0 <__subdf3>
    3c98:	e3a08000 	mov	r8, #0	; 0x0
    3c9c:	e1a05001 	mov	r5, r1
    3ca0:	e1a04000 	mov	r4, r0
    3ca4:	e1a01007 	mov	r1, r7
    3ca8:	e1a00006 	mov	r0, r6
    3cac:	eb0014a1 	bl	8f38 <__fixdfsi>
    3cb0:	e50b0070 	str	r0, [fp, -#112]
    3cb4:	eb00146f 	bl	8e78 <__floatsidf>
    3cb8:	e1a03001 	mov	r3, r1
    3cbc:	e1a02000 	mov	r2, r0
    3cc0:	e1a01007 	mov	r1, r7
    3cc4:	e1a00006 	mov	r0, r6
    3cc8:	eb0011c4 	bl	83e0 <__subdf3>
    3ccc:	e51bc070 	ldr	ip, [fp, -#112]
    3cd0:	e51be088 	ldr	lr, [fp, -#136]
    3cd4:	e28c3030 	add	r3, ip, #48	; 0x30
    3cd8:	e4ce3001 	strb	r3, [lr], #1
    3cdc:	e1a03005 	mov	r3, r5
    3ce0:	e1a02004 	mov	r2, r4
    3ce4:	e1a07001 	mov	r7, r1
    3ce8:	e1a06000 	mov	r6, r0
    3cec:	e50be088 	str	lr, [fp, -#136]
    3cf0:	eb001439 	bl	8ddc <__ltdf2>
    3cf4:	e1a0c000 	mov	ip, r0
    3cf8:	e35c0000 	cmp	ip, #0	; 0x0
    3cfc:	e28f0e31 	add	r0, pc, #784	; 0x310
    3d00:	e8900003 	ldmia	r0, {r0, r1}
    3d04:	e1a03007 	mov	r3, r7
    3d08:	e1a02006 	mov	r2, r6
    3d0c:	e2888001 	add	r8, r8, #1	; 0x1
    3d10:	bafffd63 	blt	32a4 <_dtoa_r+0x56c>
    3d14:	eb0011b1 	bl	83e0 <__subdf3>
    3d18:	e1a03005 	mov	r3, r5
    3d1c:	e1a02004 	mov	r2, r4
    3d20:	eb00142d 	bl	8ddc <__ltdf2>
    3d24:	e3500000 	cmp	r0, #0	; 0x0
    3d28:	e28f2fbb 	add	r2, pc, #748	; 0x2ec
    3d2c:	e892000c 	ldmia	r2, {r2, r3}
    3d30:	bafffde5 	blt	34cc <_dtoa_r+0x794>
    3d34:	e51b1044 	ldr	r1, [fp, -#68]
    3d38:	e1580001 	cmp	r8, r1
    3d3c:	aafffd76 	bge	331c <_dtoa_r+0x5e4>
    3d40:	e1a01005 	mov	r1, r5
    3d44:	e1a00004 	mov	r0, r4
    3d48:	eb0011d1 	bl	8494 <__muldf3>
    3d4c:	e28f2fb2 	add	r2, pc, #712	; 0x2c8
    3d50:	e892000c 	ldmia	r2, {r2, r3}
    3d54:	e1a05001 	mov	r5, r1
    3d58:	e1a04000 	mov	r4, r0
    3d5c:	e1a01007 	mov	r1, r7
    3d60:	e1a00006 	mov	r0, r6
    3d64:	eb0011ca 	bl	8494 <__muldf3>
    3d68:	e1a07001 	mov	r7, r1
    3d6c:	e1a06000 	mov	r6, r0
    3d70:	eaffffcb 	b	3ca4 <_dtoa_r+0xf6c>
    3d74:	e51b2044 	ldr	r2, [fp, -#68]
    3d78:	e59f32ac 	ldr	r3, [pc, #684]	; 402c <_dtoa_r+0x12f4>
    3d7c:	e0833182 	add	r3, r3, r2, lsl #3
    3d80:	e9130003 	ldmdb	r3, {r0, r1}
    3d84:	e1a03005 	mov	r3, r5
    3d88:	e1a02004 	mov	r2, r4
    3d8c:	eb0011c0 	bl	8494 <__muldf3>
    3d90:	e3a08001 	mov	r8, #1	; 0x1
    3d94:	e1a05001 	mov	r5, r1
    3d98:	e1a04000 	mov	r4, r0
    3d9c:	e1a01007 	mov	r1, r7
    3da0:	e1a00006 	mov	r0, r6
    3da4:	eb001463 	bl	8f38 <__fixdfsi>
    3da8:	e50b0070 	str	r0, [fp, -#112]
    3dac:	eb001431 	bl	8e78 <__floatsidf>
    3db0:	e1a03001 	mov	r3, r1
    3db4:	e1a02000 	mov	r2, r0
    3db8:	e1a01007 	mov	r1, r7
    3dbc:	e1a00006 	mov	r0, r6
    3dc0:	eb001186 	bl	83e0 <__subdf3>
    3dc4:	e51bc044 	ldr	ip, [fp, -#68]
    3dc8:	e51be070 	ldr	lr, [fp, -#112]
    3dcc:	e158000c 	cmp	r8, ip
    3dd0:	e28ec030 	add	ip, lr, #48	; 0x30
    3dd4:	e51be088 	ldr	lr, [fp, -#136]
    3dd8:	e4cec001 	strb	ip, [lr], #1
    3ddc:	e1a07001 	mov	r7, r1
    3de0:	e1a06000 	mov	r6, r0
    3de4:	e28f2e23 	add	r2, pc, #560	; 0x230
    3de8:	e892000c 	ldmia	r2, {r2, r3}
    3dec:	e2888001 	add	r8, r8, #1	; 0x1
    3df0:	e50be088 	str	lr, [fp, -#136]
    3df4:	0a000003 	beq	3e08 <_dtoa_r+0x10d0>
    3df8:	eb0011a5 	bl	8494 <__muldf3>
    3dfc:	e1a07001 	mov	r7, r1
    3e00:	e1a06000 	mov	r6, r0
    3e04:	eaffffe4 	b	3d9c <_dtoa_r+0x1064>
    3e08:	e28f2f7f 	add	r2, pc, #508	; 0x1fc
    3e0c:	e892000c 	ldmia	r2, {r2, r3}
    3e10:	e1a01005 	mov	r1, r5
    3e14:	e1a00004 	mov	r0, r4
    3e18:	eb001158 	bl	8380 <__adddf3>
    3e1c:	e1a03007 	mov	r3, r7
    3e20:	e1a02006 	mov	r2, r6
    3e24:	eb0013ec 	bl	8ddc <__ltdf2>
    3e28:	e3500000 	cmp	r0, #0	; 0x0
    3e2c:	bafffda6 	blt	34cc <_dtoa_r+0x794>
    3e30:	e1a03005 	mov	r3, r5
    3e34:	e1a02004 	mov	r2, r4
    3e38:	e28f0f73 	add	r0, pc, #460	; 0x1cc
    3e3c:	e8900003 	ldmia	r0, {r0, r1}
    3e40:	eb001166 	bl	83e0 <__subdf3>
    3e44:	e1a03007 	mov	r3, r7
    3e48:	e1a02006 	mov	r2, r6
    3e4c:	eb001394 	bl	8ca4 <__gtdf2>
    3e50:	e3500000 	cmp	r0, #0	; 0x0
    3e54:	dafffd30 	ble	331c <_dtoa_r+0x5e4>
    3e58:	e51b1088 	ldr	r1, [fp, -#136]
    3e5c:	e5713001 	ldrb	r3, [r1, -#1]!
    3e60:	e3530030 	cmp	r3, #48	; 0x30
    3e64:	e50b1088 	str	r1, [fp, -#136]
    3e68:	12811001 	addne	r1, r1, #1	; 0x1
    3e6c:	0afffff9 	beq	3e58 <_dtoa_r+0x1120>
    3e70:	eafffd9d 	b	34ec <_dtoa_r+0x7b4>
    3e74:	e51b1050 	ldr	r1, [fp, -#80]
    3e78:	e261a000 	rsb	sl, r1, #0	; 0x0
    3e7c:	e35a0000 	cmp	sl, #0	; 0x0
    3e80:	0afffcb5 	beq	315c <_dtoa_r+0x424>
    3e84:	e59f31a0 	ldr	r3, [pc, #416]	; 402c <_dtoa_r+0x12f4>
    3e88:	e20a200f 	and	r2, sl, #15	; 0xf
    3e8c:	e0833182 	add	r3, r3, r2, lsl #3
    3e90:	e8930003 	ldmia	r3, {r0, r1}
    3e94:	e1a03007 	mov	r3, r7
    3e98:	e1a02006 	mov	r2, r6
    3e9c:	eb00117c 	bl	8494 <__muldf3>
    3ea0:	e1b0424a 	movs	r4, sl, asr #4
    3ea4:	e1a07001 	mov	r7, r1
    3ea8:	e1a06000 	mov	r6, r0
    3eac:	0afffcaa 	beq	315c <_dtoa_r+0x424>
    3eb0:	e59f5178 	ldr	r5, [pc, #376]	; 4030 <_dtoa_r+0x12f8>
    3eb4:	e3140001 	tst	r4, #1	; 0x1
    3eb8:	0a000006 	beq	3ed8 <_dtoa_r+0x11a0>
    3ebc:	e1a03007 	mov	r3, r7
    3ec0:	e1a02006 	mov	r2, r6
    3ec4:	e8950003 	ldmia	r5, {r0, r1}
    3ec8:	eb001171 	bl	8494 <__muldf3>
    3ecc:	e2888001 	add	r8, r8, #1	; 0x1
    3ed0:	e1a07001 	mov	r7, r1
    3ed4:	e1a06000 	mov	r6, r0
    3ed8:	e1b040c4 	movs	r4, r4, asr #1
    3edc:	e2855008 	add	r5, r5, #8	; 0x8
    3ee0:	1afffff3 	bne	3eb4 <_dtoa_r+0x117c>
    3ee4:	eafffc9c 	b	315c <_dtoa_r+0x424>
    3ee8:	e3a02000 	mov	r2, #0	; 0x0
    3eec:	e50b205c 	str	r2, [fp, -#92]
    3ef0:	e59b3004 	ldr	r3, [fp, #4]
    3ef4:	e3530001 	cmp	r3, #1	; 0x1
    3ef8:	b3a03001 	movlt	r3, #1	; 0x1
    3efc:	e1a08003 	mov	r8, r3
    3f00:	e58b3004 	str	r3, [fp, #4]
    3f04:	e50b304c 	str	r3, [fp, -#76]
    3f08:	e50b3044 	str	r3, [fp, -#68]
    3f0c:	eafffc48 	b	3034 <_dtoa_r+0x2fc>
    3f10:	e3a0c000 	mov	ip, #0	; 0x0
    3f14:	e50bc05c 	str	ip, [fp, -#92]
    3f18:	e59be004 	ldr	lr, [fp, #4]
    3f1c:	e51b1050 	ldr	r1, [fp, -#80]
    3f20:	e08e3001 	add	r3, lr, r1
    3f24:	e2838001 	add	r8, r3, #1	; 0x1
    3f28:	e50b304c 	str	r3, [fp, -#76]
    3f2c:	e50b8044 	str	r8, [fp, -#68]
    3f30:	e3580001 	cmp	r8, #1	; 0x1
    3f34:	b3a08001 	movlt	r8, #1	; 0x1
    3f38:	eafffc3d 	b	3034 <_dtoa_r+0x2fc>
    3f3c:	e51b203c 	ldr	r2, [fp, -#60]
    3f40:	e51b3050 	ldr	r3, [fp, -#80]
    3f44:	e3a0e000 	mov	lr, #0	; 0x0
    3f48:	e0632002 	rsb	r2, r3, r2
    3f4c:	e263c000 	rsb	ip, r3, #0	; 0x0
    3f50:	e50b203c 	str	r2, [fp, -#60]
    3f54:	e50bc040 	str	ip, [fp, -#64]
    3f58:	e50be064 	str	lr, [fp, -#100]
    3f5c:	eafffc03 	b	2f70 <_dtoa_r+0x238>
    3f60:	e51b0050 	ldr	r0, [fp, -#80]
    3f64:	eb0013c3 	bl	8e78 <__floatsidf>
    3f68:	e1a03001 	mov	r3, r1
    3f6c:	e1a02000 	mov	r2, r0
    3f70:	e1a0100a 	mov	r1, sl
    3f74:	e1a00009 	mov	r0, r9
    3f78:	eb001322 	bl	8c08 <__nedf2>
    3f7c:	e3500000 	cmp	r0, #0	; 0x0
    3f80:	151b1050 	ldrne	r1, [fp, -#80]
    3f84:	12411001 	subne	r1, r1, #1	; 0x1
    3f88:	150b1050 	strne	r1, [fp, -#80]
    3f8c:	eafffbd3 	b	2ee0 <_dtoa_r+0x1a8>
    3f90:	e24be030 	sub	lr, fp, #48	; 0x30
    3f94:	e89e4008 	ldmia	lr, {r3, lr}
    3f98:	e083300e 	add	r3, r3, lr
    3f9c:	e2838e43 	add	r8, r3, #1072	; 0x430
    3fa0:	e2888002 	add	r8, r8, #2	; 0x2
    3fa4:	e3580020 	cmp	r8, #32	; 0x20
    3fa8:	c2483020 	subgt	r3, r8, #32	; 0x20
    3fac:	c1a03337 	movgt	r3, r7, lsr r3
    3fb0:	c2682040 	rsbgt	r2, r8, #64	; 0x40
    3fb4:	d2683020 	rsble	r3, r8, #32	; 0x20
    3fb8:	c1834216 	orrgt	r4, r3, r6, lsl r2
    3fbc:	d1a04317 	movle	r4, r7, lsl r3
    3fc0:	e51b1030 	ldr	r1, [fp, -#48]
    3fc4:	e1a00004 	mov	r0, r4
    3fc8:	e50b1090 	str	r1, [fp, -#144]
    3fcc:	eb0013a9 	bl	8e78 <__floatsidf>
    3fd0:	e3540000 	cmp	r4, #0	; 0x0
    3fd4:	ba000008 	blt	3ffc <_dtoa_r+0x12c4>
    3fd8:	e24b2070 	sub	r2, fp, #112	; 0x70
    3fdc:	e9820003 	stmib	r2, {r0, r1}
    3fe0:	e51b306c 	ldr	r3, [fp, -#108]
    3fe4:	e243361f 	sub	r3, r3, #32505856	; 0x1f00000
    3fe8:	e2488e43 	sub	r8, r8, #1072	; 0x430
    3fec:	e50b306c 	str	r3, [fp, -#108]
    3ff0:	e2488003 	sub	r8, r8, #3	; 0x3
    3ff4:	e3a0c001 	mov	ip, #1	; 0x1
    3ff8:	eafffb95 	b	2e54 <_dtoa_r+0x11c>
    3ffc:	e28f2020 	add	r2, pc, #32	; 0x20
    4000:	e892000c 	ldmia	r2, {r2, r3}
    4004:	eb0010dd 	bl	8380 <__adddf3>
    4008:	eafffff2 	b	3fd8 <_dtoa_r+0x12a0>
    400c:	3fe00000 	swicc	0x00e00000
    4010:	00000000 	andeq	r0, r0, r0
    4014:	3ff00000 	swicc	0x00f00000	; IMB
    4018:	00000000 	andeq	r0, r0, r0
    401c:	40240000 	eormi	r0, r4, r0
    4020:	00000000 	andeq	r0, r0, r0
    4024:	41f00000 	mvnmis	r0, r0
    4028:	00000000 	andeq	r0, r0, r0
    402c:	000097d8 	ldreqd	r9, [r0], -r8
    4030:	000098a0 	andeq	r9, r0, r0, lsr #17
    4034:	00009ab0 	streqh	r9, [r0], -r0
    4038:	00009a90 	muleq	r0, r0, sl
    403c:	e3a03c27 	mov	r3, #9984	; 0x2700
    4040:	e59b2008 	ldr	r2, [fp, #8]
    4044:	e283300f 	add	r3, r3, #15	; 0xf
    4048:	e3570000 	cmp	r7, #0	; 0x0
    404c:	e5823000 	str	r3, [r2]
    4050:	1a000005 	bne	406c <_dtoa_r+0x1334>
    4054:	e3c634ff 	bic	r3, r6, #-16777216	; 0xff000000
    4058:	e3c3360f 	bic	r3, r3, #15728640	; 0xf00000
    405c:	e3530000 	cmp	r3, #0	; 0x0
    4060:	051f3034 	ldreq	r3, [pc, #-52]	; 4034 <_dtoa_r+0x12fc>
    4064:	050b3088 	streq	r3, [fp, -#136]
    4068:	0a000001 	beq	4074 <_dtoa_r+0x133c>
    406c:	e51fc03c 	ldr	ip, [pc, #-60]	; 4038 <_dtoa_r+0x1300>
    4070:	e50bc088 	str	ip, [fp, -#136]
    4074:	e59be010 	ldr	lr, [fp, #16]
    4078:	e35e0000 	cmp	lr, #0	; 0x0
    407c:	0afffb58 	beq	2de4 <_dtoa_r+0xac>
    4080:	e51b1088 	ldr	r1, [fp, -#136]
    4084:	e5d13003 	ldrb	r3, [r1, #3]
    4088:	e3530000 	cmp	r3, #0	; 0x0
    408c:	051b2088 	ldreq	r2, [fp, -#136]
    4090:	e59bc010 	ldr	ip, [fp, #16]
    4094:	12813008 	addne	r3, r1, #8	; 0x8
    4098:	02823003 	addeq	r3, r2, #3	; 0x3
    409c:	e58c3000 	str	r3, [ip]
    40a0:	eafffb4f 	b	2de4 <_dtoa_r+0xac>
    40a4:	e5903044 	ldr	r3, [r0, #68]
    40a8:	e58c3004 	str	r3, [ip, #4]
    40ac:	e5902044 	ldr	r2, [r0, #68]
    40b0:	e3a03001 	mov	r3, #1	; 0x1
    40b4:	e1a03213 	mov	r3, r3, lsl r2
    40b8:	e58c3008 	str	r3, [ip, #8]
    40bc:	e1a0100c 	mov	r1, ip
    40c0:	eb0005a4 	bl	5758 <_Bfree>
    40c4:	e51be07c 	ldr	lr, [fp, -#124]
    40c8:	e51bc034 	ldr	ip, [fp, -#52]
    40cc:	e58ce040 	str	lr, [ip, #64]
    40d0:	eafffb26 	b	2d70 <_dtoa_r+0x38>

000040d4 <fflush>:
    40d4:	e1a0c00d 	mov	ip, sp
    40d8:	e3500000 	cmp	r0, #0	; 0x0
    40dc:	e92dd870 	stmdb	sp!, {r4, r5, r6, fp, ip, lr, pc}
    40e0:	e24cb004 	sub	fp, ip, #4	; 0x4
    40e4:	e1a05000 	mov	r5, r0
    40e8:	0a00002a 	beq	4198 <fflush+0xc4>
    40ec:	e5900054 	ldr	r0, [r0, #84]
    40f0:	e3500000 	cmp	r0, #0	; 0x0
    40f4:	059f30b0 	ldreq	r3, [pc, #176]	; 41ac <fflush+0xd8>
    40f8:	05932000 	ldreq	r2, [r3]
    40fc:	01a00002 	moveq	r0, r2
    4100:	e5903038 	ldr	r3, [r0, #56]
    4104:	05852054 	streq	r2, [r5, #84]
    4108:	e3530000 	cmp	r3, #0	; 0x0
    410c:	0a00001f 	beq	4190 <fflush+0xbc>
    4110:	e1d500fc 	ldrsh	r0, [r5, #12]
    4114:	e3100008 	tst	r0, #8	; 0x8
    4118:	0a00001a 	beq	4188 <fflush+0xb4>
    411c:	e5956010 	ldr	r6, [r5, #16]
    4120:	e3560000 	cmp	r6, #0	; 0x0
    4124:	0a000017 	beq	4188 <fflush+0xb4>
    4128:	e5953000 	ldr	r3, [r5]
    412c:	e3100003 	tst	r0, #3	; 0x3
    4130:	e0664003 	rsb	r4, r6, r3
    4134:	e5856000 	str	r6, [r5]
    4138:	05953014 	ldreq	r3, [r5, #20]
    413c:	13a03000 	movne	r3, #0	; 0x0
    4140:	e3540000 	cmp	r4, #0	; 0x0
    4144:	e5853008 	str	r3, [r5, #8]
    4148:	da00000e 	ble	4188 <fflush+0xb4>
    414c:	e1a01006 	mov	r1, r6
    4150:	e1a02004 	mov	r2, r4
    4154:	e595001c 	ldr	r0, [r5, #28]
    4158:	e1a0e00f 	mov	lr, pc
    415c:	e595f024 	ldr	pc, [r5, #36]
    4160:	e3500000 	cmp	r0, #0	; 0x0
    4164:	d1d530bc 	ldrleh	r3, [r5, #12]
    4168:	d3833040 	orrle	r3, r3, #64	; 0x40
    416c:	e0604004 	rsb	r4, r0, r4
    4170:	e0866000 	add	r6, r6, r0
    4174:	d1c530bc 	strleh	r3, [r5, #12]
    4178:	d3e00000 	mvnle	r0, #0	; 0x0
    417c:	d91ba870 	ldmledb	fp, {r4, r5, r6, fp, sp, pc}
    4180:	e3540000 	cmp	r4, #0	; 0x0
    4184:	cafffff0 	bgt	414c <fflush+0x78>
    4188:	e3a00000 	mov	r0, #0	; 0x0
    418c:	e91ba870 	ldmdb	fp, {r4, r5, r6, fp, sp, pc}
    4190:	eb000072 	bl	4360 <__sinit>
    4194:	eaffffdd 	b	4110 <fflush+0x3c>
    4198:	e59f300c 	ldr	r3, [pc, #12]	; 41ac <fflush+0xd8>
    419c:	e59f100c 	ldr	r1, [pc, #12]	; 41b0 <fflush+0xdc>
    41a0:	e5930000 	ldr	r0, [r3]
    41a4:	e91b6870 	ldmdb	fp, {r4, r5, r6, fp, sp, lr}
    41a8:	ea000246 	b	4ac8 <_fwalk>
    41ac:	4000039c 	mulmi	r0, ip, r3
    41b0:	000040d4 	ldreqd	r4, [r0], -r4

000041b4 <std>:
    41b4:	e5803054 	str	r3, [r0, #84]
    41b8:	e1c020be 	strh	r2, [r0, #14]
    41bc:	e59f3040 	ldr	r3, [pc, #64]	; 4204 <std+0x50>
    41c0:	e59f2040 	ldr	r2, [pc, #64]	; 4208 <std+0x54>
    41c4:	e5803020 	str	r3, [r0, #32]
    41c8:	e5802024 	str	r2, [r0, #36]
    41cc:	e59f3038 	ldr	r3, [pc, #56]	; 420c <std+0x58>
    41d0:	e59f2038 	ldr	r2, [pc, #56]	; 4210 <std+0x5c>
    41d4:	e3a0c000 	mov	ip, #0	; 0x0
    41d8:	e1c010bc 	strh	r1, [r0, #12]
    41dc:	e580c018 	str	ip, [r0, #24]
    41e0:	e5803028 	str	r3, [r0, #40]
    41e4:	e580202c 	str	r2, [r0, #44]
    41e8:	e580c000 	str	ip, [r0]
    41ec:	e580c004 	str	ip, [r0, #4]
    41f0:	e580c008 	str	ip, [r0, #8]
    41f4:	e580c010 	str	ip, [r0, #16]
    41f8:	e580c014 	str	ip, [r0, #20]
    41fc:	e580001c 	str	r0, [r0, #28]
    4200:	e1a0f00e 	mov	pc, lr
    4204:	000067a0 	andeq	r6, r0, r0, lsr #15
    4208:	000067ec 	andeq	r6, r0, ip, ror #15
    420c:	0000684c 	andeq	r6, r0, ip, asr #16
    4210:	00006898 	muleq	r0, r8, r8

00004214 <__sfmoreglue>:
    4214:	e1a0c00d 	mov	ip, sp
    4218:	e92dd870 	stmdb	sp!, {r4, r5, r6, fp, ip, lr, pc}
    421c:	e0814081 	add	r4, r1, r1, lsl #1
    4220:	e0614184 	rsb	r4, r1, r4, lsl #3
    4224:	e1a04104 	mov	r4, r4, lsl #2
    4228:	e24cb004 	sub	fp, ip, #4	; 0x4
    422c:	e1a06001 	mov	r6, r1
    4230:	e284100c 	add	r1, r4, #12	; 0xc
    4234:	eb000334 	bl	4f0c <_malloc_r>
    4238:	e3a0c000 	mov	ip, #0	; 0x0
    423c:	e280300c 	add	r3, r0, #12	; 0xc
    4240:	e150000c 	cmp	r0, ip
    4244:	e1a05000 	mov	r5, r0
    4248:	e1a0e000 	mov	lr, r0
    424c:	e1a0100c 	mov	r1, ip
    4250:	e1a00003 	mov	r0, r3
    4254:	e1a02004 	mov	r2, r4
    4258:	0a000004 	beq	4270 <__sfmoreglue+0x5c>
    425c:	e5856004 	str	r6, [r5, #4]
    4260:	e585c000 	str	ip, [r5]
    4264:	e5853008 	str	r3, [r5, #8]
    4268:	eb0004f4 	bl	5640 <memset>
    426c:	e1a0e005 	mov	lr, r5
    4270:	e1a0000e 	mov	r0, lr
    4274:	e91ba870 	ldmdb	fp, {r4, r5, r6, fp, sp, pc}

00004278 <__sfp>:
    4278:	e1a0c00d 	mov	ip, sp
    427c:	e92dd830 	stmdb	sp!, {r4, r5, fp, ip, lr, pc}
    4280:	e5903038 	ldr	r3, [r0, #56]
    4284:	e3530000 	cmp	r3, #0	; 0x0
    4288:	e24cb004 	sub	fp, ip, #4	; 0x4
    428c:	e1a05000 	mov	r5, r0
    4290:	0a000029 	beq	433c <__sfp+0xc4>
    4294:	e2854f97 	add	r4, r5, #604	; 0x25c
    4298:	e5943004 	ldr	r3, [r4, #4]
    429c:	e2533001 	subs	r3, r3, #1	; 0x1
    42a0:	e5940008 	ldr	r0, [r4, #8]
    42a4:	4a000005 	bmi	42c0 <__sfp+0x48>
    42a8:	e1d020fc 	ldrsh	r2, [r0, #12]
    42ac:	e3520000 	cmp	r2, #0	; 0x0
    42b0:	0a000011 	beq	42fc <__sfp+0x84>
    42b4:	e2533001 	subs	r3, r3, #1	; 0x1
    42b8:	e280005c 	add	r0, r0, #92	; 0x5c
    42bc:	5afffff9 	bpl	42a8 <__sfp+0x30>
    42c0:	e5940000 	ldr	r0, [r4]
    42c4:	e3500000 	cmp	r0, #0	; 0x0
    42c8:	0a000001 	beq	42d4 <__sfp+0x5c>
    42cc:	e1a04000 	mov	r4, r0
    42d0:	eafffff0 	b	4298 <__sfp+0x20>
    42d4:	e1a00005 	mov	r0, r5
    42d8:	e3a01004 	mov	r1, #4	; 0x4
    42dc:	ebffffcc 	bl	4214 <__sfmoreglue>
    42e0:	e3500000 	cmp	r0, #0	; 0x0
    42e4:	03a0300c 	moveq	r3, #12	; 0xc
    42e8:	e5840000 	str	r0, [r4]
    42ec:	05853000 	streq	r3, [r5]
    42f0:	03a00000 	moveq	r0, #0	; 0x0
    42f4:	1afffff4 	bne	42cc <__sfp+0x54>
    42f8:	e91ba830 	ldmdb	fp, {r4, r5, fp, sp, pc}
    42fc:	e3a03001 	mov	r3, #1	; 0x1
    4300:	e1c030bc 	strh	r3, [r0, #12]
    4304:	e3e03000 	mvn	r3, #0	; 0x0
    4308:	e5802048 	str	r2, [r0, #72]
    430c:	e5805054 	str	r5, [r0, #84]
    4310:	e5802000 	str	r2, [r0]
    4314:	e5802008 	str	r2, [r0, #8]
    4318:	e5802004 	str	r2, [r0, #4]
    431c:	e5802010 	str	r2, [r0, #16]
    4320:	e5802014 	str	r2, [r0, #20]
    4324:	e5802018 	str	r2, [r0, #24]
    4328:	e5802030 	str	r2, [r0, #48]
    432c:	e5802034 	str	r2, [r0, #52]
    4330:	e5802044 	str	r2, [r0, #68]
    4334:	e1c030be 	strh	r3, [r0, #14]
    4338:	e91ba830 	ldmdb	fp, {r4, r5, fp, sp, pc}
    433c:	eb000007 	bl	4360 <__sinit>
    4340:	eaffffd3 	b	4294 <__sfp+0x1c>

00004344 <_cleanup_r>:
    4344:	e59f1000 	ldr	r1, [pc, #0]	; 434c <_cleanup_r+0x8>
    4348:	ea0001de 	b	4ac8 <_fwalk>
    434c:	000040d4 	ldreqd	r4, [r0], -r4

00004350 <_cleanup>:
    4350:	e59f3004 	ldr	r3, [pc, #4]	; 435c <_cleanup+0xc>
    4354:	e5930000 	ldr	r0, [r3]
    4358:	eafffff9 	b	4344 <_cleanup_r>
    435c:	4000039c 	mulmi	r0, ip, r3

00004360 <__sinit>:
    4360:	e1a0c00d 	mov	ip, sp
    4364:	e92dd830 	stmdb	sp!, {r4, r5, fp, ip, lr, pc}
    4368:	e59f3068 	ldr	r3, [pc, #104]	; 43d8 <__sinit+0x78>
    436c:	e1a04000 	mov	r4, r0
    4370:	e24cb004 	sub	fp, ip, #4	; 0x4
    4374:	e3a05001 	mov	r5, #1	; 0x1
    4378:	e3a0c000 	mov	ip, #0	; 0x0
    437c:	e2841f9a 	add	r1, r4, #616	; 0x268
    4380:	e3a02003 	mov	r2, #3	; 0x3
    4384:	e584303c 	str	r3, [r4, #60]
    4388:	e5842260 	str	r2, [r4, #608]
    438c:	e5841264 	str	r1, [r4, #612]
    4390:	e1a0200c 	mov	r2, ip
    4394:	e584c25c 	str	ip, [r4, #604]
    4398:	e1a03004 	mov	r3, r4
    439c:	e5900004 	ldr	r0, [r0, #4]
    43a0:	e5845038 	str	r5, [r4, #56]
    43a4:	e3a01004 	mov	r1, #4	; 0x4
    43a8:	ebffff81 	bl	41b4 <std>
    43ac:	e5940008 	ldr	r0, [r4, #8]
    43b0:	e1a02005 	mov	r2, r5
    43b4:	e1a03004 	mov	r3, r4
    43b8:	e3a01009 	mov	r1, #9	; 0x9
    43bc:	ebffff7c 	bl	41b4 <std>
    43c0:	e594000c 	ldr	r0, [r4, #12]
    43c4:	e1a03004 	mov	r3, r4
    43c8:	e3a0100a 	mov	r1, #10	; 0xa
    43cc:	e3a02002 	mov	r2, #2	; 0x2
    43d0:	e91b6830 	ldmdb	fp, {r4, r5, fp, sp, lr}
    43d4:	eaffff76 	b	41b4 <std>
    43d8:	00004344 	andeq	r4, r0, r4, asr #6

000043dc <_free_r>:
    43dc:	e1a0c00d 	mov	ip, sp
    43e0:	e3510000 	cmp	r1, #0	; 0x0
    43e4:	e92ddff0 	stmdb	sp!, {r4, r5, r6, r7, r8, r9, sl, fp, ip, lr, pc}
    43e8:	e24cb004 	sub	fp, ip, #4	; 0x4
    43ec:	e1a04001 	mov	r4, r1
    43f0:	e1a09000 	mov	r9, r0
    43f4:	091baff0 	ldmeqdb	fp, {r4, r5, r6, r7, r8, r9, sl, fp, sp, pc}
    43f8:	e2447008 	sub	r7, r4, #8	; 0x8
    43fc:	eb0004ae 	bl	56bc <__malloc_lock>
    4400:	e5971004 	ldr	r1, [r7, #4]
    4404:	e59fa200 	ldr	sl, [pc, #512]	; 460c <_free_r+0x230>
    4408:	e3c15001 	bic	r5, r1, #1	; 0x1
    440c:	e087c005 	add	ip, r7, r5
    4410:	e59a3008 	ldr	r3, [sl, #8]
    4414:	e59c2004 	ldr	r2, [ip, #4]
    4418:	e15c0003 	cmp	ip, r3
    441c:	e3c26003 	bic	r6, r2, #3	; 0x3
    4420:	0a000063 	beq	45b4 <_free_r+0x1d8>
    4424:	e3110001 	tst	r1, #1	; 0x1
    4428:	e58c6004 	str	r6, [ip, #4]
    442c:	e3a08000 	mov	r8, #0	; 0x0
    4430:	1a000009 	bne	445c <_free_r+0x80>
    4434:	e5141008 	ldr	r1, [r4, -#8]
    4438:	e0617007 	rsb	r7, r1, r7
    443c:	e5972008 	ldr	r2, [r7, #8]
    4440:	e28a3008 	add	r3, sl, #8	; 0x8
    4444:	e1520003 	cmp	r2, r3
    4448:	1597e00c 	ldrne	lr, [r7, #12]
    444c:	158e2008 	strne	r2, [lr, #8]
    4450:	1582e00c 	strne	lr, [r2, #12]
    4454:	e0855001 	add	r5, r5, r1
    4458:	03a08001 	moveq	r8, #1	; 0x1
    445c:	e08c3006 	add	r3, ip, r6
    4460:	e5932004 	ldr	r2, [r3, #4]
    4464:	e3120001 	tst	r2, #1	; 0x1
    4468:	1a00000a 	bne	4498 <_free_r+0xbc>
    446c:	e3580000 	cmp	r8, #0	; 0x0
    4470:	e0855006 	add	r5, r5, r6
    4474:	159c2008 	ldrne	r2, [ip, #8]
    4478:	1a000003 	bne	448c <_free_r+0xb0>
    447c:	e59c2008 	ldr	r2, [ip, #8]
    4480:	e59f3188 	ldr	r3, [pc, #392]	; 4610 <_free_r+0x234>
    4484:	e1520003 	cmp	r2, r3
    4488:	0a000043 	beq	459c <_free_r+0x1c0>
    448c:	e59ce00c 	ldr	lr, [ip, #12]
    4490:	e58e2008 	str	r2, [lr, #8]
    4494:	e582e00c 	str	lr, [r2, #12]
    4498:	e3853001 	orr	r3, r5, #1	; 0x1
    449c:	e3580000 	cmp	r8, #0	; 0x0
    44a0:	e5873004 	str	r3, [r7, #4]
    44a4:	e7875005 	str	r5, [r7, r5]
    44a8:	0a000002 	beq	44b8 <_free_r+0xdc>
    44ac:	e1a00009 	mov	r0, r9
    44b0:	e91b6ff0 	ldmdb	fp, {r4, r5, r6, r7, r8, r9, sl, fp, sp, lr}
    44b4:	ea000481 	b	56c0 <__malloc_unlock>
    44b8:	e3550c02 	cmp	r5, #512	; 0x200
    44bc:	31a011a5 	movcc	r1, r5, lsr #3
    44c0:	308ae181 	addcc	lr, sl, r1, lsl #3
    44c4:	359a3004 	ldrcc	r3, [sl, #4]
    44c8:	359e0008 	ldrcc	r0, [lr, #8]
    44cc:	3a00002d 	bcc	4588 <_free_r+0x1ac>
    44d0:	e1b014a5 	movs	r1, r5, lsr #9
    44d4:	01a011a5 	moveq	r1, r5, lsr #3
    44d8:	0a000014 	beq	4530 <_free_r+0x154>
    44dc:	e3510004 	cmp	r1, #4	; 0x4
    44e0:	91a03325 	movls	r3, r5, lsr #6
    44e4:	92831038 	addls	r1, r3, #56	; 0x38
    44e8:	9a000010 	bls	4530 <_free_r+0x154>
    44ec:	e3510014 	cmp	r1, #20	; 0x14
    44f0:	9281105b 	addls	r1, r1, #91	; 0x5b
    44f4:	9a00000d 	bls	4530 <_free_r+0x154>
    44f8:	e3510054 	cmp	r1, #84	; 0x54
    44fc:	91a03625 	movls	r3, r5, lsr #12
    4500:	9283106e 	addls	r1, r3, #110	; 0x6e
    4504:	9a000009 	bls	4530 <_free_r+0x154>
    4508:	e3510f55 	cmp	r1, #340	; 0x154
    450c:	91a037a5 	movls	r3, r5, lsr #15
    4510:	92831077 	addls	r1, r3, #119	; 0x77
    4514:	9a000005 	bls	4530 <_free_r+0x154>
    4518:	e3a03e55 	mov	r3, #1360	; 0x550
    451c:	e2833004 	add	r3, r3, #4	; 0x4
    4520:	e1510003 	cmp	r1, r3
    4524:	91a03925 	movls	r3, r5, lsr #18
    4528:	9283107c 	addls	r1, r3, #124	; 0x7c
    452c:	83a0107e 	movhi	r1, #126	; 0x7e
    4530:	e08ae181 	add	lr, sl, r1, lsl #3
    4534:	e59e0008 	ldr	r0, [lr, #8]
    4538:	e150000e 	cmp	r0, lr
    453c:	0a000010 	beq	4584 <_free_r+0x1a8>
    4540:	e5903004 	ldr	r3, [r0, #4]
    4544:	e3c33003 	bic	r3, r3, #3	; 0x3
    4548:	e1550003 	cmp	r5, r3
    454c:	2a000006 	bcs	456c <_free_r+0x190>
    4550:	e5900008 	ldr	r0, [r0, #8]
    4554:	e150000e 	cmp	r0, lr
    4558:	0a000003 	beq	456c <_free_r+0x190>
    455c:	e5903004 	ldr	r3, [r0, #4]
    4560:	e3c33003 	bic	r3, r3, #3	; 0x3
    4564:	e1550003 	cmp	r5, r3
    4568:	3afffff8 	bcc	4550 <_free_r+0x174>
    456c:	e590e00c 	ldr	lr, [r0, #12]
    4570:	e587e00c 	str	lr, [r7, #12]
    4574:	e5870008 	str	r0, [r7, #8]
    4578:	e580700c 	str	r7, [r0, #12]
    457c:	e58e7008 	str	r7, [lr, #8]
    4580:	eaffffc9 	b	44ac <_free_r+0xd0>
    4584:	e59a3004 	ldr	r3, [sl, #4]
    4588:	e1a01121 	mov	r1, r1, lsr #2
    458c:	e3a02001 	mov	r2, #1	; 0x1
    4590:	e1833112 	orr	r3, r3, r2, lsl r1
    4594:	e58a3004 	str	r3, [sl, #4]
    4598:	eafffff4 	b	4570 <_free_r+0x194>
    459c:	e3a08001 	mov	r8, #1	; 0x1
    45a0:	e582700c 	str	r7, [r2, #12]
    45a4:	e5827008 	str	r7, [r2, #8]
    45a8:	e587200c 	str	r2, [r7, #12]
    45ac:	e5872008 	str	r2, [r7, #8]
    45b0:	eaffffb8 	b	4498 <_free_r+0xbc>
    45b4:	e3110001 	tst	r1, #1	; 0x1
    45b8:	e0855006 	add	r5, r5, r6
    45bc:	1a000006 	bne	45dc <_free_r+0x200>
    45c0:	e5141008 	ldr	r1, [r4, -#8]
    45c4:	e0617007 	rsb	r7, r1, r7
    45c8:	e2870008 	add	r0, r7, #8	; 0x8
    45cc:	e8904001 	ldmia	r0, {r0, lr}
    45d0:	e58e0008 	str	r0, [lr, #8]
    45d4:	e580e00c 	str	lr, [r0, #12]
    45d8:	e0855001 	add	r5, r5, r1
    45dc:	e59f3030 	ldr	r3, [pc, #48]	; 4614 <_free_r+0x238>
    45e0:	e5932000 	ldr	r2, [r3]
    45e4:	e3853001 	orr	r3, r5, #1	; 0x1
    45e8:	e1550002 	cmp	r5, r2
    45ec:	e58a7008 	str	r7, [sl, #8]
    45f0:	e5873004 	str	r3, [r7, #4]
    45f4:	3affffac 	bcc	44ac <_free_r+0xd0>
    45f8:	e59f3018 	ldr	r3, [pc, #24]	; 4618 <_free_r+0x23c>
    45fc:	e1a00009 	mov	r0, r9
    4600:	e5931000 	ldr	r1, [r3]
    4604:	eb000004 	bl	461c <_malloc_trim_r>
    4608:	eaffffa7 	b	44ac <_free_r+0xd0>
    460c:	400003b4 	strmih	r0, [r0], -r4
    4610:	400003bc 	strmih	r0, [r0], -ip
    4614:	400007bc 	strmih	r0, [r0], -ip
    4618:	400007f8 	strmid	r0, [r0], -r8

0000461c <_malloc_trim_r>:
    461c:	e1a0c00d 	mov	ip, sp
    4620:	e92dd8f0 	stmdb	sp!, {r4, r5, r6, r7, fp, ip, lr, pc}
    4624:	e59f70f8 	ldr	r7, [pc, #248]	; 4724 <_malloc_trim_r+0x108>
    4628:	e24cb004 	sub	fp, ip, #4	; 0x4
    462c:	e1a04001 	mov	r4, r1
    4630:	e1a06000 	mov	r6, r0
    4634:	eb000420 	bl	56bc <__malloc_lock>
    4638:	e5973008 	ldr	r3, [r7, #8]
    463c:	e5932004 	ldr	r2, [r3, #4]
    4640:	e3c25003 	bic	r5, r2, #3	; 0x3
    4644:	e0644005 	rsb	r4, r4, r5
    4648:	e2844efe 	add	r4, r4, #4064	; 0xfe0
    464c:	e284400f 	add	r4, r4, #15	; 0xf
    4650:	e3c44eff 	bic	r4, r4, #4080	; 0xff0
    4654:	e3c4400f 	bic	r4, r4, #15	; 0xf
    4658:	e2444a01 	sub	r4, r4, #4096	; 0x1000
    465c:	e3540a01 	cmp	r4, #4096	; 0x1000
    4660:	e1a00006 	mov	r0, r6
    4664:	e3a01000 	mov	r1, #0	; 0x0
    4668:	ba000008 	blt	4690 <_malloc_trim_r+0x74>
    466c:	e1a00006 	mov	r0, r6
    4670:	ebffeede 	bl	1f0 <_sbrk_r>
    4674:	e5973008 	ldr	r3, [r7, #8]
    4678:	e1a0c000 	mov	ip, r0
    467c:	e0833005 	add	r3, r3, r5
    4680:	e15c0003 	cmp	ip, r3
    4684:	e1a00006 	mov	r0, r6
    4688:	e2641000 	rsb	r1, r4, #0	; 0x0
    468c:	0a000002 	beq	469c <_malloc_trim_r+0x80>
    4690:	eb00040a 	bl	56c0 <__malloc_unlock>
    4694:	e3a00000 	mov	r0, #0	; 0x0
    4698:	e91ba8f0 	ldmdb	fp, {r4, r5, r6, r7, fp, sp, pc}
    469c:	e1a00006 	mov	r0, r6
    46a0:	ebffeed2 	bl	1f0 <_sbrk_r>
    46a4:	e1a02000 	mov	r2, r0
    46a8:	e0643005 	rsb	r3, r4, r5
    46ac:	e3720001 	cmn	r2, #1	; 0x1
    46b0:	e3a01000 	mov	r1, #0	; 0x0
    46b4:	e1a00006 	mov	r0, r6
    46b8:	e59fe068 	ldr	lr, [pc, #104]	; 4728 <_malloc_trim_r+0x10c>
    46bc:	e383c001 	orr	ip, r3, #1	; 0x1
    46c0:	0a000008 	beq	46e8 <_malloc_trim_r+0xcc>
    46c4:	e59e3000 	ldr	r3, [lr]
    46c8:	e5972008 	ldr	r2, [r7, #8]
    46cc:	e0643003 	rsb	r3, r4, r3
    46d0:	e1a00006 	mov	r0, r6
    46d4:	e582c004 	str	ip, [r2, #4]
    46d8:	e58e3000 	str	r3, [lr]
    46dc:	eb0003f7 	bl	56c0 <__malloc_unlock>
    46e0:	e3a00001 	mov	r0, #1	; 0x1
    46e4:	e91ba8f0 	ldmdb	fp, {r4, r5, r6, r7, fp, sp, pc}
    46e8:	ebffeec0 	bl	1f0 <_sbrk_r>
    46ec:	e5971008 	ldr	r1, [r7, #8]
    46f0:	e1a0c000 	mov	ip, r0
    46f4:	e061500c 	rsb	r5, r1, ip
    46f8:	e355000f 	cmp	r5, #15	; 0xf
    46fc:	e1a00006 	mov	r0, r6
    4700:	e385e001 	orr	lr, r5, #1	; 0x1
    4704:	daffffe1 	ble	4690 <_malloc_trim_r+0x74>
    4708:	e59f301c 	ldr	r3, [pc, #28]	; 472c <_malloc_trim_r+0x110>
    470c:	e5932000 	ldr	r2, [r3]
    4710:	e59f3010 	ldr	r3, [pc, #16]	; 4728 <_malloc_trim_r+0x10c>
    4714:	e062200c 	rsb	r2, r2, ip
    4718:	e581e004 	str	lr, [r1, #4]
    471c:	e5832000 	str	r2, [r3]
    4720:	eaffffda 	b	4690 <_malloc_trim_r+0x74>
    4724:	400003b4 	strmih	r0, [r0], -r4
    4728:	40000804 	andmi	r0, r0, r4, lsl #16
    472c:	400007c0 	andmi	r0, r0, r0, asr #15

00004730 <__sfvwrite>:
    4730:	e1a0c00d 	mov	ip, sp
    4734:	e92ddff0 	stmdb	sp!, {r4, r5, r6, r7, r8, r9, sl, fp, ip, lr, pc}
    4738:	e24cb004 	sub	fp, ip, #4	; 0x4
    473c:	e24dd004 	sub	sp, sp, #4	; 0x4
    4740:	e5915008 	ldr	r5, [r1, #8]
    4744:	e3550000 	cmp	r5, #0	; 0x0
    4748:	e1a06000 	mov	r6, r0
    474c:	e1a0a001 	mov	sl, r1
    4750:	01a00005 	moveq	r0, r5
    4754:	091baff0 	ldmeqdb	fp, {r4, r5, r6, r7, r8, r9, sl, fp, sp, pc}
    4758:	e1d020bc 	ldrh	r2, [r0, #12]
    475c:	e3120008 	tst	r2, #8	; 0x8
    4760:	0a000002 	beq	4770 <__sfvwrite+0x40>
    4764:	e5903010 	ldr	r3, [r0, #16]
    4768:	e3530000 	cmp	r3, #0	; 0x0
    476c:	1a000003 	bne	4780 <__sfvwrite+0x50>
    4770:	ebfff8af 	bl	2a34 <__swsetup>
    4774:	e3500000 	cmp	r0, #0	; 0x0
    4778:	1a000020 	bne	4800 <__sfvwrite+0xd0>
    477c:	e1d620bc 	ldrh	r2, [r6, #12]
    4780:	e3120002 	tst	r2, #2	; 0x2
    4784:	e59a7000 	ldr	r7, [sl]
    4788:	e3a05000 	mov	r5, #0	; 0x0
    478c:	0a00001d 	beq	4808 <__sfvwrite+0xd8>
    4790:	e3550000 	cmp	r5, #0	; 0x0
    4794:	1a000003 	bne	47a8 <__sfvwrite+0x78>
    4798:	e5975004 	ldr	r5, [r7, #4]
    479c:	e3550000 	cmp	r5, #0	; 0x0
    47a0:	e4978008 	ldr	r8, [r7], #8
    47a4:	0afffffb 	beq	4798 <__sfvwrite+0x68>
    47a8:	e3550b01 	cmp	r5, #1024	; 0x400
    47ac:	31a02005 	movcc	r2, r5
    47b0:	23a02b01 	movcs	r2, #1024	; 0x400
    47b4:	e596001c 	ldr	r0, [r6, #28]
    47b8:	e1a01008 	mov	r1, r8
    47bc:	e1a0e00f 	mov	lr, pc
    47c0:	e596f024 	ldr	pc, [r6, #36]
    47c4:	e3500000 	cmp	r0, #0	; 0x0
    47c8:	e1a04000 	mov	r4, r0
    47cc:	da000008 	ble	47f4 <__sfvwrite+0xc4>
    47d0:	e59a3008 	ldr	r3, [sl, #8]
    47d4:	e0603003 	rsb	r3, r0, r3
    47d8:	e3530000 	cmp	r3, #0	; 0x0
    47dc:	e58a3008 	str	r3, [sl, #8]
    47e0:	e0888000 	add	r8, r8, r0
    47e4:	e0605005 	rsb	r5, r0, r5
    47e8:	1affffe8 	bne	4790 <__sfvwrite+0x60>
    47ec:	e3a00000 	mov	r0, #0	; 0x0
    47f0:	e91baff0 	ldmdb	fp, {r4, r5, r6, r7, r8, r9, sl, fp, sp, pc}
    47f4:	e1d630bc 	ldrh	r3, [r6, #12]
    47f8:	e3833040 	orr	r3, r3, #64	; 0x40
    47fc:	e1c630bc 	strh	r3, [r6, #12]
    4800:	e3e00000 	mvn	r0, #0	; 0x0
    4804:	e91baff0 	ldmdb	fp, {r4, r5, r6, r7, r8, r9, sl, fp, sp, pc}
    4808:	e3120001 	tst	r2, #1	; 0x1
    480c:	150b502c 	strne	r5, [fp, -#44]
    4810:	1a000057 	bne	4974 <__sfvwrite+0x244>
    4814:	e5975004 	ldr	r5, [r7, #4]
    4818:	e3550000 	cmp	r5, #0	; 0x0
    481c:	e4978008 	ldr	r8, [r7], #8
    4820:	0afffffb 	beq	4814 <__sfvwrite+0xe4>
    4824:	e3120c02 	tst	r2, #512	; 0x200
    4828:	e5964008 	ldr	r4, [r6, #8]
    482c:	0a00002b 	beq	48e0 <__sfvwrite+0x1b0>
    4830:	e1550004 	cmp	r5, r4
    4834:	9a000001 	bls	4840 <__sfvwrite+0x110>
    4838:	e3120080 	tst	r2, #128	; 0x80
    483c:	1a000017 	bne	48a0 <__sfvwrite+0x170>
    4840:	e1540005 	cmp	r4, r5
    4844:	21a04005 	movcs	r4, r5
    4848:	e1a02004 	mov	r2, r4
    484c:	e5960000 	ldr	r0, [r6]
    4850:	e1a01008 	mov	r1, r8
    4854:	eb000343 	bl	5568 <memmove>
    4858:	e5963008 	ldr	r3, [r6, #8]
    485c:	e5962000 	ldr	r2, [r6]
    4860:	e0643003 	rsb	r3, r4, r3
    4864:	e0822004 	add	r2, r2, r4
    4868:	e1a04005 	mov	r4, r5
    486c:	e5863008 	str	r3, [r6, #8]
    4870:	e5862000 	str	r2, [r6]
    4874:	e59a3008 	ldr	r3, [sl, #8]
    4878:	e0643003 	rsb	r3, r4, r3
    487c:	e3530000 	cmp	r3, #0	; 0x0
    4880:	e58a3008 	str	r3, [sl, #8]
    4884:	e0888004 	add	r8, r8, r4
    4888:	e0645005 	rsb	r5, r4, r5
    488c:	0affffd6 	beq	47ec <__sfvwrite+0xbc>
    4890:	e3550000 	cmp	r5, #0	; 0x0
    4894:	e1d620bc 	ldrh	r2, [r6, #12]
    4898:	1affffe1 	bne	4824 <__sfvwrite+0xf4>
    489c:	eaffffdc 	b	4814 <__sfvwrite+0xe4>
    48a0:	e5961010 	ldr	r1, [r6, #16]
    48a4:	e5963000 	ldr	r3, [r6]
    48a8:	e0614003 	rsb	r4, r1, r3
    48ac:	e0849005 	add	r9, r4, r5
    48b0:	e5960054 	ldr	r0, [r6, #84]
    48b4:	e1a02009 	mov	r2, r9
    48b8:	eb000681 	bl	62c4 <_realloc_r>
    48bc:	e3500000 	cmp	r0, #0	; 0x0
    48c0:	0affffcb 	beq	47f4 <__sfvwrite+0xc4>
    48c4:	e0803004 	add	r3, r0, r4
    48c8:	e5863000 	str	r3, [r6]
    48cc:	e5869014 	str	r9, [r6, #20]
    48d0:	e5860010 	str	r0, [r6, #16]
    48d4:	e5865008 	str	r5, [r6, #8]
    48d8:	e1a04005 	mov	r4, r5
    48dc:	eaffffd7 	b	4840 <__sfvwrite+0x110>
    48e0:	e5960000 	ldr	r0, [r6]
    48e4:	e5963010 	ldr	r3, [r6, #16]
    48e8:	e1500003 	cmp	r0, r3
    48ec:	81550004 	cmphi	r5, r4
    48f0:	8a000014 	bhi	4948 <__sfvwrite+0x218>
    48f4:	e5964014 	ldr	r4, [r6, #20]
    48f8:	e1550004 	cmp	r5, r4
    48fc:	3a000008 	bcc	4924 <__sfvwrite+0x1f4>
    4900:	e1a02004 	mov	r2, r4
    4904:	e596001c 	ldr	r0, [r6, #28]
    4908:	e1a01008 	mov	r1, r8
    490c:	e1a0e00f 	mov	lr, pc
    4910:	e596f024 	ldr	pc, [r6, #36]
    4914:	e3500000 	cmp	r0, #0	; 0x0
    4918:	e1a04000 	mov	r4, r0
    491c:	caffffd4 	bgt	4874 <__sfvwrite+0x144>
    4920:	eaffffb3 	b	47f4 <__sfvwrite+0xc4>
    4924:	e1a02005 	mov	r2, r5
    4928:	e1a01008 	mov	r1, r8
    492c:	eb00030d 	bl	5568 <memmove>
    4930:	e5963008 	ldr	r3, [r6, #8]
    4934:	e5962000 	ldr	r2, [r6]
    4938:	e1a04005 	mov	r4, r5
    493c:	e0653003 	rsb	r3, r5, r3
    4940:	e0822005 	add	r2, r2, r5
    4944:	eaffffc8 	b	486c <__sfvwrite+0x13c>
    4948:	e1a01008 	mov	r1, r8
    494c:	e1a02004 	mov	r2, r4
    4950:	eb000304 	bl	5568 <memmove>
    4954:	e5963000 	ldr	r3, [r6]
    4958:	e0833004 	add	r3, r3, r4
    495c:	e5863000 	str	r3, [r6]
    4960:	e1a00006 	mov	r0, r6
    4964:	ebfffdda 	bl	40d4 <fflush>
    4968:	e3500000 	cmp	r0, #0	; 0x0
    496c:	0affffc0 	beq	4874 <__sfvwrite+0x144>
    4970:	eaffff9f 	b	47f4 <__sfvwrite+0xc4>
    4974:	e3550000 	cmp	r5, #0	; 0x0
    4978:	1a000004 	bne	4990 <__sfvwrite+0x260>
    497c:	e50b502c 	str	r5, [fp, -#44]
    4980:	e5975004 	ldr	r5, [r7, #4]
    4984:	e3550000 	cmp	r5, #0	; 0x0
    4988:	e4978008 	ldr	r8, [r7], #8
    498c:	0afffffb 	beq	4980 <__sfvwrite+0x250>
    4990:	e51b302c 	ldr	r3, [fp, -#44]
    4994:	e3530000 	cmp	r3, #0	; 0x0
    4998:	0a00003f 	beq	4a9c <__sfvwrite+0x36c>
    499c:	e5963008 	ldr	r3, [r6, #8]
    49a0:	e596c014 	ldr	ip, [r6, #20]
    49a4:	e1590005 	cmp	r9, r5
    49a8:	31a01009 	movcc	r1, r9
    49ac:	21a01005 	movcs	r1, r5
    49b0:	e083400c 	add	r4, r3, ip
    49b4:	e5960000 	ldr	r0, [r6]
    49b8:	e5962010 	ldr	r2, [r6, #16]
    49bc:	e1510004 	cmp	r1, r4
    49c0:	d3a03000 	movle	r3, #0	; 0x0
    49c4:	c3a03001 	movgt	r3, #1	; 0x1
    49c8:	e1500002 	cmp	r0, r2
    49cc:	93a03000 	movls	r3, #0	; 0x0
    49d0:	82033001 	andhi	r3, r3, #1	; 0x1
    49d4:	e3530000 	cmp	r3, #0	; 0x0
    49d8:	1a000024 	bne	4a70 <__sfvwrite+0x340>
    49dc:	e151000c 	cmp	r1, ip
    49e0:	ba000017 	blt	4a44 <__sfvwrite+0x314>
    49e4:	e596001c 	ldr	r0, [r6, #28]
    49e8:	e1a0200c 	mov	r2, ip
    49ec:	e1a01008 	mov	r1, r8
    49f0:	e1a0e00f 	mov	lr, pc
    49f4:	e596f024 	ldr	pc, [r6, #36]
    49f8:	e3500000 	cmp	r0, #0	; 0x0
    49fc:	e1a04000 	mov	r4, r0
    4a00:	daffff7b 	ble	47f4 <__sfvwrite+0xc4>
    4a04:	e0599004 	subs	r9, r9, r4
    4a08:	0a000007 	beq	4a2c <__sfvwrite+0x2fc>
    4a0c:	e59a3008 	ldr	r3, [sl, #8]
    4a10:	e0643003 	rsb	r3, r4, r3
    4a14:	e3530000 	cmp	r3, #0	; 0x0
    4a18:	e58a3008 	str	r3, [sl, #8]
    4a1c:	e0888004 	add	r8, r8, r4
    4a20:	e0645005 	rsb	r5, r4, r5
    4a24:	1affffd2 	bne	4974 <__sfvwrite+0x244>
    4a28:	eaffff6f 	b	47ec <__sfvwrite+0xbc>
    4a2c:	e1a00006 	mov	r0, r6
    4a30:	ebfffda7 	bl	40d4 <fflush>
    4a34:	e3500000 	cmp	r0, #0	; 0x0
    4a38:	1affff6d 	bne	47f4 <__sfvwrite+0xc4>
    4a3c:	e50b002c 	str	r0, [fp, -#44]
    4a40:	eafffff1 	b	4a0c <__sfvwrite+0x2dc>
    4a44:	e1a04001 	mov	r4, r1
    4a48:	e1a02004 	mov	r2, r4
    4a4c:	e1a01008 	mov	r1, r8
    4a50:	eb0002c4 	bl	5568 <memmove>
    4a54:	e5963008 	ldr	r3, [r6, #8]
    4a58:	e5962000 	ldr	r2, [r6]
    4a5c:	e0643003 	rsb	r3, r4, r3
    4a60:	e0822004 	add	r2, r2, r4
    4a64:	e5863008 	str	r3, [r6, #8]
    4a68:	e5862000 	str	r2, [r6]
    4a6c:	eaffffe4 	b	4a04 <__sfvwrite+0x2d4>
    4a70:	e1a01008 	mov	r1, r8
    4a74:	e1a02004 	mov	r2, r4
    4a78:	eb0002ba 	bl	5568 <memmove>
    4a7c:	e5963000 	ldr	r3, [r6]
    4a80:	e0833004 	add	r3, r3, r4
    4a84:	e5863000 	str	r3, [r6]
    4a88:	e1a00006 	mov	r0, r6
    4a8c:	ebfffd90 	bl	40d4 <fflush>
    4a90:	e3500000 	cmp	r0, #0	; 0x0
    4a94:	0affffda 	beq	4a04 <__sfvwrite+0x2d4>
    4a98:	eaffff55 	b	47f4 <__sfvwrite+0xc4>
    4a9c:	e1a00008 	mov	r0, r8
    4aa0:	e3a0100a 	mov	r1, #10	; 0xa
    4aa4:	e1a02005 	mov	r2, r5
    4aa8:	eb000253 	bl	53fc <memchr>
    4aac:	e3500000 	cmp	r0, #0	; 0x0
    4ab0:	10683000 	rsbne	r3, r8, r0
    4ab4:	12839001 	addne	r9, r3, #1	; 0x1
    4ab8:	e3a03001 	mov	r3, #1	; 0x1
    4abc:	e50b302c 	str	r3, [fp, -#44]
    4ac0:	02859001 	addeq	r9, r5, #1	; 0x1
    4ac4:	eaffffb4 	b	499c <__sfvwrite+0x26c>

00004ac8 <_fwalk>:
    4ac8:	e1a0c00d 	mov	ip, sp
    4acc:	e92dd9f0 	stmdb	sp!, {r4, r5, r6, r7, r8, fp, ip, lr, pc}
    4ad0:	e2906f97 	adds	r6, r0, #604	; 0x25c
    4ad4:	e24cb004 	sub	fp, ip, #4	; 0x4
    4ad8:	e1a08001 	mov	r8, r1
    4adc:	e3a07000 	mov	r7, #0	; 0x0
    4ae0:	0a00000d 	beq	4b1c <_fwalk+0x54>
    4ae4:	e5965004 	ldr	r5, [r6, #4]
    4ae8:	e2555001 	subs	r5, r5, #1	; 0x1
    4aec:	e5964008 	ldr	r4, [r6, #8]
    4af0:	4a000006 	bmi	4b10 <_fwalk+0x48>
    4af4:	e1d430fc 	ldrsh	r3, [r4, #12]
    4af8:	e3530000 	cmp	r3, #0	; 0x0
    4afc:	e1a00004 	mov	r0, r4
    4b00:	e284405c 	add	r4, r4, #92	; 0x5c
    4b04:	1a000006 	bne	4b24 <_fwalk+0x5c>
    4b08:	e2555001 	subs	r5, r5, #1	; 0x1
    4b0c:	5afffff8 	bpl	4af4 <_fwalk+0x2c>
    4b10:	e5966000 	ldr	r6, [r6]
    4b14:	e3560000 	cmp	r6, #0	; 0x0
    4b18:	1afffff1 	bne	4ae4 <_fwalk+0x1c>
    4b1c:	e1a00007 	mov	r0, r7
    4b20:	e91ba9f0 	ldmdb	fp, {r4, r5, r6, r7, r8, fp, sp, pc}
    4b24:	e1a0e00f 	mov	lr, pc
    4b28:	e1a0f008 	mov	pc, r8
    4b2c:	e1877000 	orr	r7, r7, r0
    4b30:	eafffff4 	b	4b08 <_fwalk+0x40>

00004b34 <_setlocale_r>:
    4b34:	e1a0c00d 	mov	ip, sp
    4b38:	e3520000 	cmp	r2, #0	; 0x0
    4b3c:	e92dd870 	stmdb	sp!, {r4, r5, r6, fp, ip, lr, pc}
    4b40:	e1a05000 	mov	r5, r0
    4b44:	e1a06001 	mov	r6, r1
    4b48:	e24cb004 	sub	fp, ip, #4	; 0x4
    4b4c:	e1a04002 	mov	r4, r2
    4b50:	e1a00002 	mov	r0, r2
    4b54:	e59f1040 	ldr	r1, [pc, #64]	; 4b9c <_setlocale_r+0x68>
    4b58:	0a000007 	beq	4b7c <_setlocale_r+0x48>
    4b5c:	eb000750 	bl	68a4 <strcmp>
    4b60:	e1a03000 	mov	r3, r0
    4b64:	e3530000 	cmp	r3, #0	; 0x0
    4b68:	e1a00004 	mov	r0, r4
    4b6c:	e59f102c 	ldr	r1, [pc, #44]	; 4ba0 <_setlocale_r+0x6c>
    4b70:	1a000004 	bne	4b88 <_setlocale_r+0x54>
    4b74:	e5854034 	str	r4, [r5, #52]
    4b78:	e5856030 	str	r6, [r5, #48]
    4b7c:	e59f3018 	ldr	r3, [pc, #24]	; 4b9c <_setlocale_r+0x68>
    4b80:	e1a00003 	mov	r0, r3
    4b84:	e91ba870 	ldmdb	fp, {r4, r5, r6, fp, sp, pc}
    4b88:	eb000745 	bl	68a4 <strcmp>
    4b8c:	e3a03000 	mov	r3, #0	; 0x0
    4b90:	e1500003 	cmp	r0, r3
    4b94:	0afffff6 	beq	4b74 <_setlocale_r+0x40>
    4b98:	eafffff8 	b	4b80 <_setlocale_r+0x4c>
    4b9c:	00009abc 	streqh	r9, [r0], -ip
    4ba0:	00009ac0 	andeq	r9, r0, r0, asr #21

00004ba4 <__locale_charset>:
    4ba4:	e59f3004 	ldr	r3, [pc, #4]	; 4bb0 <__locale_charset+0xc>
    4ba8:	e5930000 	ldr	r0, [r3]
    4bac:	e1a0f00e 	mov	pc, lr
    4bb0:	400003a4 	andmi	r0, r0, r4, lsr #7

00004bb4 <_localeconv_r>:
    4bb4:	e59f0000 	ldr	r0, [pc, #0]	; 4bbc <_localeconv_r+0x8>
    4bb8:	e1a0f00e 	mov	pc, lr
    4bbc:	0000979c 	muleq	r0, ip, r7

00004bc0 <setlocale>:
    4bc0:	e52de004 	str	lr, [sp, -#4]!
    4bc4:	e59f3018 	ldr	r3, [pc, #24]	; 4be4 <setlocale+0x24>
    4bc8:	e593c000 	ldr	ip, [r3]
    4bcc:	e1a0e000 	mov	lr, r0
    4bd0:	e1a02001 	mov	r2, r1
    4bd4:	e1a0000c 	mov	r0, ip
    4bd8:	e1a0100e 	mov	r1, lr
    4bdc:	e49de004 	ldr	lr, [sp], #4
    4be0:	eaffffd3 	b	4b34 <_setlocale_r>
    4be4:	4000039c 	mulmi	r0, ip, r3

00004be8 <localeconv>:
    4be8:	e59f3004 	ldr	r3, [pc, #4]	; 4bf4 <localeconv+0xc>
    4bec:	e5930000 	ldr	r0, [r3]
    4bf0:	eaffffef 	b	4bb4 <_localeconv_r>
    4bf4:	4000039c 	mulmi	r0, ip, r3

00004bf8 <__smakebuf>:
    4bf8:	e1a0c00d 	mov	ip, sp
    4bfc:	e92dd870 	stmdb	sp!, {r4, r5, r6, fp, ip, lr, pc}
    4c00:	e24cb004 	sub	fp, ip, #4	; 0x4
    4c04:	e24dd03c 	sub	sp, sp, #60	; 0x3c
    4c08:	e1d030bc 	ldrh	r3, [r0, #12]
    4c0c:	e2135002 	ands	r5, r3, #2	; 0x2
    4c10:	e1a04000 	mov	r4, r0
    4c14:	0a000005 	beq	4c30 <__smakebuf+0x38>
    4c18:	e2802043 	add	r2, r0, #67	; 0x43
    4c1c:	e3a03001 	mov	r3, #1	; 0x1
    4c20:	e5803014 	str	r3, [r0, #20]
    4c24:	e5802010 	str	r2, [r0, #16]
    4c28:	e5802000 	str	r2, [r0]
    4c2c:	e91ba870 	ldmdb	fp, {r4, r5, r6, fp, sp, pc}
    4c30:	e1d010fe 	ldrsh	r1, [r0, #14]
    4c34:	e3510000 	cmp	r1, #0	; 0x0
    4c38:	ba000039 	blt	4d24 <__smakebuf+0x12c>
    4c3c:	e5900054 	ldr	r0, [r0, #84]
    4c40:	e24b2054 	sub	r2, fp, #84	; 0x54
    4c44:	eb0009a3 	bl	72d8 <_fstat_r>
    4c48:	e3500000 	cmp	r0, #0	; 0x0
    4c4c:	ba000033 	blt	4d20 <__smakebuf+0x128>
    4c50:	e51b3050 	ldr	r3, [fp, -#80]
    4c54:	e2033a0f 	and	r3, r3, #61440	; 0xf000
    4c58:	e3530a02 	cmp	r3, #8192	; 0x2000
    4c5c:	13a05000 	movne	r5, #0	; 0x0
    4c60:	03a05001 	moveq	r5, #1	; 0x1
    4c64:	e3530902 	cmp	r3, #32768	; 0x8000
    4c68:	e3a06b01 	mov	r6, #1024	; 0x400
    4c6c:	0a000022 	beq	4cfc <__smakebuf+0x104>
    4c70:	e1d430bc 	ldrh	r3, [r4, #12]
    4c74:	e3833b02 	orr	r3, r3, #2048	; 0x800
    4c78:	e1c430bc 	strh	r3, [r4, #12]
    4c7c:	e5940054 	ldr	r0, [r4, #84]
    4c80:	e3a01b01 	mov	r1, #1024	; 0x400
    4c84:	eb0000a0 	bl	4f0c <_malloc_r>
    4c88:	e3500000 	cmp	r0, #0	; 0x0
    4c8c:	0a000011 	beq	4cd8 <__smakebuf+0xe0>
    4c90:	e1d430bc 	ldrh	r3, [r4, #12]
    4c94:	e5941054 	ldr	r1, [r4, #84]
    4c98:	e59f2090 	ldr	r2, [pc, #144]	; 4d30 <__smakebuf+0x138>
    4c9c:	e3833080 	orr	r3, r3, #128	; 0x80
    4ca0:	e3550000 	cmp	r5, #0	; 0x0
    4ca4:	e581203c 	str	r2, [r1, #60]
    4ca8:	e1c430bc 	strh	r3, [r4, #12]
    4cac:	e5840010 	str	r0, [r4, #16]
    4cb0:	e5846014 	str	r6, [r4, #20]
    4cb4:	e5840000 	str	r0, [r4]
    4cb8:	091ba870 	ldmeqdb	fp, {r4, r5, r6, fp, sp, pc}
    4cbc:	e1d400fe 	ldrsh	r0, [r4, #14]
    4cc0:	eb000925 	bl	715c <isatty>
    4cc4:	e3500000 	cmp	r0, #0	; 0x0
    4cc8:	11d430bc 	ldrneh	r3, [r4, #12]
    4ccc:	13833001 	orrne	r3, r3, #1	; 0x1
    4cd0:	11c430bc 	strneh	r3, [r4, #12]
    4cd4:	e91ba870 	ldmdb	fp, {r4, r5, r6, fp, sp, pc}
    4cd8:	e1d430bc 	ldrh	r3, [r4, #12]
    4cdc:	e2841043 	add	r1, r4, #67	; 0x43
    4ce0:	e3833002 	orr	r3, r3, #2	; 0x2
    4ce4:	e3a02001 	mov	r2, #1	; 0x1
    4ce8:	e5842014 	str	r2, [r4, #20]
    4cec:	e1c430bc 	strh	r3, [r4, #12]
    4cf0:	e5841010 	str	r1, [r4, #16]
    4cf4:	e5841000 	str	r1, [r4]
    4cf8:	e91ba870 	ldmdb	fp, {r4, r5, r6, fp, sp, pc}
    4cfc:	e59f3030 	ldr	r3, [pc, #48]	; 4d34 <__smakebuf+0x13c>
    4d00:	e5942028 	ldr	r2, [r4, #40]
    4d04:	e1520003 	cmp	r2, r3
    4d08:	01d430bc 	ldreqh	r3, [r4, #12]
    4d0c:	01833006 	orreq	r3, r3, r6
    4d10:	01c430bc 	streqh	r3, [r4, #12]
    4d14:	0584604c 	streq	r6, [r4, #76]
    4d18:	1affffd4 	bne	4c70 <__smakebuf+0x78>
    4d1c:	eaffffd6 	b	4c7c <__smakebuf+0x84>
    4d20:	e1d430bc 	ldrh	r3, [r4, #12]
    4d24:	e3833b02 	orr	r3, r3, #2048	; 0x800
    4d28:	e3a06b01 	mov	r6, #1024	; 0x400
    4d2c:	eaffffd1 	b	4c78 <__smakebuf+0x80>
    4d30:	00004344 	andeq	r4, r0, r4, asr #6
    4d34:	0000684c 	andeq	r6, r0, ip, asr #16

00004d38 <malloc_extend_top>:
    4d38:	e1a0c00d 	mov	ip, sp
    4d3c:	e92ddff0 	stmdb	sp!, {r4, r5, r6, r7, r8, r9, sl, fp, ip, lr, pc}
    4d40:	e59f31ac 	ldr	r3, [pc, #428]	; 4ef4 <malloc_extend_top+0x1bc>
    4d44:	e24cb004 	sub	fp, ip, #4	; 0x4
    4d48:	e24dd004 	sub	sp, sp, #4	; 0x4
    4d4c:	e5937008 	ldr	r7, [r3, #8]
    4d50:	e59f31a0 	ldr	r3, [pc, #416]	; 4ef8 <malloc_extend_top+0x1c0>
    4d54:	e59f91a0 	ldr	r9, [pc, #416]	; 4efc <malloc_extend_top+0x1c4>
    4d58:	e5932000 	ldr	r2, [r3]
    4d5c:	e5993000 	ldr	r3, [r9]
    4d60:	e0811002 	add	r1, r1, r2
    4d64:	e3730001 	cmn	r3, #1	; 0x1
    4d68:	e2816010 	add	r6, r1, #16	; 0x10
    4d6c:	12863eff 	addne	r3, r6, #4080	; 0xff0
    4d70:	1283300f 	addne	r3, r3, #15	; 0xf
    4d74:	13c36eff 	bicne	r6, r3, #4080	; 0xff0
    4d78:	13c6600f 	bicne	r6, r6, #15	; 0xf
    4d7c:	e597c004 	ldr	ip, [r7, #4]
    4d80:	e1a01006 	mov	r1, r6
    4d84:	e3cc8003 	bic	r8, ip, #3	; 0x3
    4d88:	e50b002c 	str	r0, [fp, -#44]
    4d8c:	ebffed17 	bl	1f0 <_sbrk_r>
    4d90:	e3700001 	cmn	r0, #1	; 0x1
    4d94:	e0875008 	add	r5, r7, r8
    4d98:	e1a04000 	mov	r4, r0
    4d9c:	091baff0 	ldmeqdb	fp, {r4, r5, r6, r7, r8, r9, sl, fp, sp, pc}
    4da0:	e1500005 	cmp	r0, r5
    4da4:	2a000002 	bcs	4db4 <malloc_extend_top+0x7c>
    4da8:	e59f3144 	ldr	r3, [pc, #324]	; 4ef4 <malloc_extend_top+0x1bc>
    4dac:	e1570003 	cmp	r7, r3
    4db0:	191baff0 	ldmnedb	fp, {r4, r5, r6, r7, r8, r9, sl, fp, sp, pc}
    4db4:	e59fa144 	ldr	sl, [pc, #324]	; 4f00 <malloc_extend_top+0x1c8>
    4db8:	e59a3000 	ldr	r3, [sl]
    4dbc:	e1540005 	cmp	r4, r5
    4dc0:	e0833006 	add	r3, r3, r6
    4dc4:	e58a3000 	str	r3, [sl]
    4dc8:	0a00003f 	beq	4ecc <malloc_extend_top+0x194>
    4dcc:	e5993000 	ldr	r3, [r9]
    4dd0:	e3730001 	cmn	r3, #1	; 0x1
    4dd4:	159a3000 	ldrne	r3, [sl]
    4dd8:	10652004 	rsbne	r2, r5, r4
    4ddc:	10833002 	addne	r3, r3, r2
    4de0:	05894000 	streq	r4, [r9]
    4de4:	158a3000 	strne	r3, [sl]
    4de8:	e2141007 	ands	r1, r4, #7	; 0x7
    4dec:	12615008 	rsbne	r5, r1, #8	; 0x8
    4df0:	10844005 	addne	r4, r4, r5
    4df4:	e0843006 	add	r3, r4, r6
    4df8:	e1a03a03 	mov	r3, r3, lsl #20
    4dfc:	e1a03a23 	mov	r3, r3, lsr #20
    4e00:	01a05001 	moveq	r5, r1
    4e04:	e2633a01 	rsb	r3, r3, #4096	; 0x1000
    4e08:	e0855003 	add	r5, r5, r3
    4e0c:	e1a01005 	mov	r1, r5
    4e10:	e51b002c 	ldr	r0, [fp, -#44]
    4e14:	ebffecf5 	bl	1f0 <_sbrk_r>
    4e18:	e3700001 	cmn	r0, #1	; 0x1
    4e1c:	01a00004 	moveq	r0, r4
    4e20:	03a05000 	moveq	r5, #0	; 0x0
    4e24:	e0643000 	rsb	r3, r4, r0
    4e28:	e0830005 	add	r0, r3, r5
    4e2c:	e59f30c0 	ldr	r3, [pc, #192]	; 4ef4 <malloc_extend_top+0x1bc>
    4e30:	e59a2000 	ldr	r2, [sl]
    4e34:	e1570003 	cmp	r7, r3
    4e38:	e3803001 	orr	r3, r0, #1	; 0x1
    4e3c:	e5843004 	str	r3, [r4, #4]
    4e40:	e59f30ac 	ldr	r3, [pc, #172]	; 4ef4 <malloc_extend_top+0x1bc>
    4e44:	e0822005 	add	r2, r2, r5
    4e48:	e58a2000 	str	r2, [sl]
    4e4c:	e5834008 	str	r4, [r3, #8]
    4e50:	0a00000f 	beq	4e94 <malloc_extend_top+0x15c>
    4e54:	e358000f 	cmp	r8, #15	; 0xf
    4e58:	93a03001 	movls	r3, #1	; 0x1
    4e5c:	95843004 	strls	r3, [r4, #4]
    4e60:	991baff0 	ldmlsdb	fp, {r4, r5, r6, r7, r8, r9, sl, fp, sp, pc}
    4e64:	e5972004 	ldr	r2, [r7, #4]
    4e68:	e248300c 	sub	r3, r8, #12	; 0xc
    4e6c:	e3c38007 	bic	r8, r3, #7	; 0x7
    4e70:	e2022001 	and	r2, r2, #1	; 0x1
    4e74:	e0871008 	add	r1, r7, r8
    4e78:	e3a03005 	mov	r3, #5	; 0x5
    4e7c:	e1822008 	orr	r2, r2, r8
    4e80:	e358000f 	cmp	r8, #15	; 0xf
    4e84:	e5872004 	str	r2, [r7, #4]
    4e88:	e5813008 	str	r3, [r1, #8]
    4e8c:	e5813004 	str	r3, [r1, #4]
    4e90:	8a000009 	bhi	4ebc <malloc_extend_top+0x184>
    4e94:	e59f1068 	ldr	r1, [pc, #104]	; 4f04 <malloc_extend_top+0x1cc>
    4e98:	e59a2000 	ldr	r2, [sl]
    4e9c:	e5913000 	ldr	r3, [r1]
    4ea0:	e1520003 	cmp	r2, r3
    4ea4:	85812000 	strhi	r2, [r1]
    4ea8:	e59f1058 	ldr	r1, [pc, #88]	; 4f08 <malloc_extend_top+0x1d0>
    4eac:	e5913000 	ldr	r3, [r1]
    4eb0:	e1520003 	cmp	r2, r3
    4eb4:	85812000 	strhi	r2, [r1]
    4eb8:	e91baff0 	ldmdb	fp, {r4, r5, r6, r7, r8, r9, sl, fp, sp, pc}
    4ebc:	e2871008 	add	r1, r7, #8	; 0x8
    4ec0:	e51b002c 	ldr	r0, [fp, -#44]
    4ec4:	ebfffd44 	bl	43dc <_free_r>
    4ec8:	eafffff1 	b	4e94 <malloc_extend_top+0x15c>
    4ecc:	e1a03a04 	mov	r3, r4, lsl #20
    4ed0:	e1a03a23 	mov	r3, r3, lsr #20
    4ed4:	e3530000 	cmp	r3, #0	; 0x0
    4ed8:	1affffbb 	bne	4dcc <malloc_extend_top+0x94>
    4edc:	e59f3010 	ldr	r3, [pc, #16]	; 4ef4 <malloc_extend_top+0x1bc>
    4ee0:	e0860008 	add	r0, r6, r8
    4ee4:	e5932008 	ldr	r2, [r3, #8]
    4ee8:	e3803001 	orr	r3, r0, #1	; 0x1
    4eec:	e5823004 	str	r3, [r2, #4]
    4ef0:	eaffffe7 	b	4e94 <malloc_extend_top+0x15c>
    4ef4:	400003b4 	strmih	r0, [r0], -r4
    4ef8:	400007f8 	strmid	r0, [r0], -r8
    4efc:	400007c0 	andmi	r0, r0, r0, asr #15
    4f00:	40000804 	andmi	r0, r0, r4, lsl #16
    4f04:	400007fc 	strmid	r0, [r0], -ip
    4f08:	40000800 	andmi	r0, r0, r0, lsl #16

00004f0c <_malloc_r>:
    4f0c:	e281100b 	add	r1, r1, #11	; 0xb
    4f10:	e3510016 	cmp	r1, #22	; 0x16
    4f14:	e1a0c00d 	mov	ip, sp
    4f18:	e92ddff0 	stmdb	sp!, {r4, r5, r6, r7, r8, r9, sl, fp, ip, lr, pc}
    4f1c:	83c15007 	bichi	r5, r1, #7	; 0x7
    4f20:	93a05010 	movls	r5, #16	; 0x10
    4f24:	e3550000 	cmp	r5, #0	; 0x0
    4f28:	e24cb004 	sub	fp, ip, #4	; 0x4
    4f2c:	e1a08000 	mov	r8, r0
    4f30:	ba0000c3 	blt	5244 <_malloc_r+0x338>
    4f34:	e1a00008 	mov	r0, r8
    4f38:	eb0001df 	bl	56bc <__malloc_lock>
    4f3c:	e3550f7e 	cmp	r5, #504	; 0x1f8
    4f40:	2a0000e8 	bcs	52e8 <_malloc_r+0x3dc>
    4f44:	e59f9448 	ldr	r9, [pc, #1096]	; 5394 <_malloc_r+0x488>
    4f48:	e1a061a5 	mov	r6, r5, lsr #3
    4f4c:	e089e186 	add	lr, r9, r6, lsl #3
    4f50:	e59e400c 	ldr	r4, [lr, #12]
    4f54:	e154000e 	cmp	r4, lr
    4f58:	0a00000d 	beq	4f94 <_malloc_r+0x88>
    4f5c:	e5943004 	ldr	r3, [r4, #4]
    4f60:	e3c3c003 	bic	ip, r3, #3	; 0x3
    4f64:	e084200c 	add	r2, r4, ip
    4f68:	e5923004 	ldr	r3, [r2, #4]
    4f6c:	e2840008 	add	r0, r4, #8	; 0x8
    4f70:	e8904001 	ldmia	r0, {r0, lr}
    4f74:	e3833001 	orr	r3, r3, #1	; 0x1
    4f78:	e58e0008 	str	r0, [lr, #8]
    4f7c:	e5823004 	str	r3, [r2, #4]
    4f80:	e580e00c 	str	lr, [r0, #12]
    4f84:	e1a00008 	mov	r0, r8
    4f88:	eb0001cc 	bl	56c0 <__malloc_unlock>
    4f8c:	e2840008 	add	r0, r4, #8	; 0x8
    4f90:	e91baff0 	ldmdb	fp, {r4, r5, r6, r7, r8, r9, sl, fp, sp, pc}
    4f94:	e284e008 	add	lr, r4, #8	; 0x8
    4f98:	e59e400c 	ldr	r4, [lr, #12]
    4f9c:	e154000e 	cmp	r4, lr
    4fa0:	1affffed 	bne	4f5c <_malloc_r+0x50>
    4fa4:	e2866002 	add	r6, r6, #2	; 0x2
    4fa8:	e59fa3e8 	ldr	sl, [pc, #1000]	; 5398 <_malloc_r+0x48c>
    4fac:	e59a4008 	ldr	r4, [sl, #8]
    4fb0:	e154000a 	cmp	r4, sl
    4fb4:	0a00003e 	beq	50b4 <_malloc_r+0x1a8>
    4fb8:	e5943004 	ldr	r3, [r4, #4]
    4fbc:	e3c3c003 	bic	ip, r3, #3	; 0x3
    4fc0:	e065100c 	rsb	r1, r5, ip
    4fc4:	e351000f 	cmp	r1, #15	; 0xf
    4fc8:	ca0000bc 	bgt	52c0 <_malloc_r+0x3b4>
    4fcc:	e3510000 	cmp	r1, #0	; 0x0
    4fd0:	a084200c 	addge	r2, r4, ip
    4fd4:	a5923004 	ldrge	r3, [r2, #4]
    4fd8:	a3833001 	orrge	r3, r3, #1	; 0x1
    4fdc:	e58aa00c 	str	sl, [sl, #12]
    4fe0:	e58aa008 	str	sl, [sl, #8]
    4fe4:	a5823004 	strge	r3, [r2, #4]
    4fe8:	aaffffe5 	bge	4f84 <_malloc_r+0x78>
    4fec:	e35c0c02 	cmp	ip, #512	; 0x200
    4ff0:	31a011ac 	movcc	r1, ip, lsr #3
    4ff4:	3089e181 	addcc	lr, r9, r1, lsl #3
    4ff8:	35993004 	ldrcc	r3, [r9, #4]
    4ffc:	359e0008 	ldrcc	r0, [lr, #8]
    5000:	3a0000a9 	bcc	52ac <_malloc_r+0x3a0>
    5004:	e1b014ac 	movs	r1, ip, lsr #9
    5008:	01a011ac 	moveq	r1, ip, lsr #3
    500c:	0a000014 	beq	5064 <_malloc_r+0x158>
    5010:	e3510004 	cmp	r1, #4	; 0x4
    5014:	91a0332c 	movls	r3, ip, lsr #6
    5018:	92831038 	addls	r1, r3, #56	; 0x38
    501c:	9a000010 	bls	5064 <_malloc_r+0x158>
    5020:	e3510014 	cmp	r1, #20	; 0x14
    5024:	9281105b 	addls	r1, r1, #91	; 0x5b
    5028:	9a00000d 	bls	5064 <_malloc_r+0x158>
    502c:	e3510054 	cmp	r1, #84	; 0x54
    5030:	91a0362c 	movls	r3, ip, lsr #12
    5034:	9283106e 	addls	r1, r3, #110	; 0x6e
    5038:	9a000009 	bls	5064 <_malloc_r+0x158>
    503c:	e3510f55 	cmp	r1, #340	; 0x154
    5040:	91a037ac 	movls	r3, ip, lsr #15
    5044:	92831077 	addls	r1, r3, #119	; 0x77
    5048:	9a000005 	bls	5064 <_malloc_r+0x158>
    504c:	e3a03e55 	mov	r3, #1360	; 0x550
    5050:	e2833004 	add	r3, r3, #4	; 0x4
    5054:	e1510003 	cmp	r1, r3
    5058:	91a0392c 	movls	r3, ip, lsr #18
    505c:	9283107c 	addls	r1, r3, #124	; 0x7c
    5060:	83a0107e 	movhi	r1, #126	; 0x7e
    5064:	e089e181 	add	lr, r9, r1, lsl #3
    5068:	e59e0008 	ldr	r0, [lr, #8]
    506c:	e150000e 	cmp	r0, lr
    5070:	0a00008c 	beq	52a8 <_malloc_r+0x39c>
    5074:	e5903004 	ldr	r3, [r0, #4]
    5078:	e3c33003 	bic	r3, r3, #3	; 0x3
    507c:	e15c0003 	cmp	ip, r3
    5080:	2a000006 	bcs	50a0 <_malloc_r+0x194>
    5084:	e5900008 	ldr	r0, [r0, #8]
    5088:	e150000e 	cmp	r0, lr
    508c:	0a000003 	beq	50a0 <_malloc_r+0x194>
    5090:	e5903004 	ldr	r3, [r0, #4]
    5094:	e3c33003 	bic	r3, r3, #3	; 0x3
    5098:	e15c0003 	cmp	ip, r3
    509c:	3afffff8 	bcc	5084 <_malloc_r+0x178>
    50a0:	e590e00c 	ldr	lr, [r0, #12]
    50a4:	e584e00c 	str	lr, [r4, #12]
    50a8:	e5840008 	str	r0, [r4, #8]
    50ac:	e580400c 	str	r4, [r0, #12]
    50b0:	e58e4008 	str	r4, [lr, #8]
    50b4:	e1a03fc6 	mov	r3, r6, asr #31
    50b8:	e59f92d4 	ldr	r9, [pc, #724]	; 5394 <_malloc_r+0x488>
    50bc:	e0863f23 	add	r3, r6, r3, lsr #30
    50c0:	e1a03143 	mov	r3, r3, asr #2
    50c4:	e5991004 	ldr	r1, [r9, #4]
    50c8:	e3a02001 	mov	r2, #1	; 0x1
    50cc:	e1a02312 	mov	r2, r2, lsl r3
    50d0:	e1520001 	cmp	r2, r1
    50d4:	8a000037 	bhi	51b8 <_malloc_r+0x2ac>
    50d8:	e1120001 	tst	r2, r1
    50dc:	1a000009 	bne	5108 <_malloc_r+0x1fc>
    50e0:	e1a02082 	mov	r2, r2, lsl #1
    50e4:	e3c63003 	bic	r3, r6, #3	; 0x3
    50e8:	e1120001 	tst	r2, r1
    50ec:	e2836004 	add	r6, r3, #4	; 0x4
    50f0:	1a000004 	bne	5108 <_malloc_r+0x1fc>
    50f4:	e1a03001 	mov	r3, r1
    50f8:	e1a02082 	mov	r2, r2, lsl #1
    50fc:	e1120003 	tst	r2, r3
    5100:	e2866004 	add	r6, r6, #4	; 0x4
    5104:	0afffffb 	beq	50f8 <_malloc_r+0x1ec>
    5108:	e089e186 	add	lr, r9, r6, lsl #3
    510c:	e1a07006 	mov	r7, r6
    5110:	e1a0000e 	mov	r0, lr
    5114:	e590400c 	ldr	r4, [r0, #12]
    5118:	e1540000 	cmp	r4, r0
    511c:	0a000009 	beq	5148 <_malloc_r+0x23c>
    5120:	e5943004 	ldr	r3, [r4, #4]
    5124:	e3c3c003 	bic	ip, r3, #3	; 0x3
    5128:	e065100c 	rsb	r1, r5, ip
    512c:	e351000f 	cmp	r1, #15	; 0xf
    5130:	ca00004d 	bgt	526c <_malloc_r+0x360>
    5134:	e3510000 	cmp	r1, #0	; 0x0
    5138:	aa000043 	bge	524c <_malloc_r+0x340>
    513c:	e594400c 	ldr	r4, [r4, #12]
    5140:	e1540000 	cmp	r4, r0
    5144:	1afffff5 	bne	5120 <_malloc_r+0x214>
    5148:	e2866001 	add	r6, r6, #1	; 0x1
    514c:	e3160003 	tst	r6, #3	; 0x3
    5150:	e2800008 	add	r0, r0, #8	; 0x8
    5154:	1affffee 	bne	5114 <_malloc_r+0x208>
    5158:	e3170003 	tst	r7, #3	; 0x3
    515c:	05993004 	ldreq	r3, [r9, #4]
    5160:	01c33002 	biceq	r3, r3, r2
    5164:	e24ee008 	sub	lr, lr, #8	; 0x8
    5168:	e2477001 	sub	r7, r7, #1	; 0x1
    516c:	05893004 	streq	r3, [r9, #4]
    5170:	0a000002 	beq	5180 <_malloc_r+0x274>
    5174:	e59e3008 	ldr	r3, [lr, #8]
    5178:	e153000e 	cmp	r3, lr
    517c:	0afffff5 	beq	5158 <_malloc_r+0x24c>
    5180:	e59f920c 	ldr	r9, [pc, #524]	; 5394 <_malloc_r+0x488>
    5184:	e5993004 	ldr	r3, [r9, #4]
    5188:	e1a02082 	mov	r2, r2, lsl #1
    518c:	e1520003 	cmp	r2, r3
    5190:	8a000008 	bhi	51b8 <_malloc_r+0x2ac>
    5194:	e3520000 	cmp	r2, #0	; 0x0
    5198:	0a000006 	beq	51b8 <_malloc_r+0x2ac>
    519c:	e1120003 	tst	r2, r3
    51a0:	1affffd8 	bne	5108 <_malloc_r+0x1fc>
    51a4:	e1a02082 	mov	r2, r2, lsl #1
    51a8:	e1120003 	tst	r2, r3
    51ac:	e2866004 	add	r6, r6, #4	; 0x4
    51b0:	0afffffb 	beq	51a4 <_malloc_r+0x298>
    51b4:	eaffffd3 	b	5108 <_malloc_r+0x1fc>
    51b8:	e5993008 	ldr	r3, [r9, #8]
    51bc:	e5932004 	ldr	r2, [r3, #4]
    51c0:	e3c22003 	bic	r2, r2, #3	; 0x3
    51c4:	e0651002 	rsb	r1, r5, r2
    51c8:	e351000f 	cmp	r1, #15	; 0xf
    51cc:	c3a03000 	movgt	r3, #0	; 0x0
    51d0:	d3a03001 	movle	r3, #1	; 0x1
    51d4:	e1520005 	cmp	r2, r5
    51d8:	33833001 	orrcc	r3, r3, #1	; 0x1
    51dc:	e3530000 	cmp	r3, #0	; 0x0
    51e0:	0a00000d 	beq	521c <_malloc_r+0x310>
    51e4:	e1a01005 	mov	r1, r5
    51e8:	e1a00008 	mov	r0, r8
    51ec:	ebfffed1 	bl	4d38 <malloc_extend_top>
    51f0:	e5993008 	ldr	r3, [r9, #8]
    51f4:	e5932004 	ldr	r2, [r3, #4]
    51f8:	e3c22003 	bic	r2, r2, #3	; 0x3
    51fc:	e0651002 	rsb	r1, r5, r2
    5200:	e351000f 	cmp	r1, #15	; 0xf
    5204:	c3a03000 	movgt	r3, #0	; 0x0
    5208:	d3a03001 	movle	r3, #1	; 0x1
    520c:	e1520005 	cmp	r2, r5
    5210:	33833001 	orrcc	r3, r3, #1	; 0x1
    5214:	e3530000 	cmp	r3, #0	; 0x0
    5218:	1a000007 	bne	523c <_malloc_r+0x330>
    521c:	e5994008 	ldr	r4, [r9, #8]
    5220:	e3811001 	orr	r1, r1, #1	; 0x1
    5224:	e0842005 	add	r2, r4, r5
    5228:	e3853001 	orr	r3, r5, #1	; 0x1
    522c:	e5843004 	str	r3, [r4, #4]
    5230:	e5892008 	str	r2, [r9, #8]
    5234:	e5821004 	str	r1, [r2, #4]
    5238:	eaffff51 	b	4f84 <_malloc_r+0x78>
    523c:	e1a00008 	mov	r0, r8
    5240:	eb00011e 	bl	56c0 <__malloc_unlock>
    5244:	e3a00000 	mov	r0, #0	; 0x0
    5248:	e91baff0 	ldmdb	fp, {r4, r5, r6, r7, r8, r9, sl, fp, sp, pc}
    524c:	e084200c 	add	r2, r4, ip
    5250:	e5923004 	ldr	r3, [r2, #4]
    5254:	e2840008 	add	r0, r4, #8	; 0x8
    5258:	e8904001 	ldmia	r0, {r0, lr}
    525c:	e3833001 	orr	r3, r3, #1	; 0x1
    5260:	e5823004 	str	r3, [r2, #4]
    5264:	e58e0008 	str	r0, [lr, #8]
    5268:	eaffff44 	b	4f80 <_malloc_r+0x74>
    526c:	e2840008 	add	r0, r4, #8	; 0x8
    5270:	e8904001 	ldmia	r0, {r0, lr}
    5274:	e084c005 	add	ip, r4, r5
    5278:	e58e0008 	str	r0, [lr, #8]
    527c:	e580e00c 	str	lr, [r0, #12]
    5280:	e3852001 	orr	r2, r5, #1	; 0x1
    5284:	e3813001 	orr	r3, r1, #1	; 0x1
    5288:	e1a00008 	mov	r0, r8
    528c:	e5842004 	str	r2, [r4, #4]
    5290:	e58ac008 	str	ip, [sl, #8]
    5294:	e58ac00c 	str	ip, [sl, #12]
    5298:	e78c1001 	str	r1, [ip, r1]
    529c:	e98c0408 	stmib	ip, {r3, sl}
    52a0:	e58ca00c 	str	sl, [ip, #12]
    52a4:	eaffff37 	b	4f88 <_malloc_r+0x7c>
    52a8:	e5993004 	ldr	r3, [r9, #4]
    52ac:	e1a01121 	mov	r1, r1, lsr #2
    52b0:	e3a02001 	mov	r2, #1	; 0x1
    52b4:	e1833112 	orr	r3, r3, r2, lsl r1
    52b8:	e5893004 	str	r3, [r9, #4]
    52bc:	eaffff78 	b	50a4 <_malloc_r+0x198>
    52c0:	e084c005 	add	ip, r4, r5
    52c4:	e3852001 	orr	r2, r5, #1	; 0x1
    52c8:	e3813001 	orr	r3, r1, #1	; 0x1
    52cc:	e5842004 	str	r2, [r4, #4]
    52d0:	e58ac00c 	str	ip, [sl, #12]
    52d4:	e58ac008 	str	ip, [sl, #8]
    52d8:	e78c1001 	str	r1, [ip, r1]
    52dc:	e98c0408 	stmib	ip, {r3, sl}
    52e0:	e58ca00c 	str	sl, [ip, #12]
    52e4:	eaffff26 	b	4f84 <_malloc_r+0x78>
    52e8:	e1b024a5 	movs	r2, r5, lsr #9
    52ec:	01a061a5 	moveq	r6, r5, lsr #3
    52f0:	0a000014 	beq	5348 <_malloc_r+0x43c>
    52f4:	e3520004 	cmp	r2, #4	; 0x4
    52f8:	91a03325 	movls	r3, r5, lsr #6
    52fc:	92836038 	addls	r6, r3, #56	; 0x38
    5300:	9a000010 	bls	5348 <_malloc_r+0x43c>
    5304:	e3520014 	cmp	r2, #20	; 0x14
    5308:	9282605b 	addls	r6, r2, #91	; 0x5b
    530c:	9a00000d 	bls	5348 <_malloc_r+0x43c>
    5310:	e3520054 	cmp	r2, #84	; 0x54
    5314:	91a03625 	movls	r3, r5, lsr #12
    5318:	9283606e 	addls	r6, r3, #110	; 0x6e
    531c:	9a000009 	bls	5348 <_malloc_r+0x43c>
    5320:	e3520f55 	cmp	r2, #340	; 0x154
    5324:	91a037a5 	movls	r3, r5, lsr #15
    5328:	92836077 	addls	r6, r3, #119	; 0x77
    532c:	9a000005 	bls	5348 <_malloc_r+0x43c>
    5330:	e3a03e55 	mov	r3, #1360	; 0x550
    5334:	e2833004 	add	r3, r3, #4	; 0x4
    5338:	e1520003 	cmp	r2, r3
    533c:	91a03925 	movls	r3, r5, lsr #18
    5340:	9283607c 	addls	r6, r3, #124	; 0x7c
    5344:	83a0607e 	movhi	r6, #126	; 0x7e
    5348:	e59f9044 	ldr	r9, [pc, #68]	; 5394 <_malloc_r+0x488>
    534c:	e0890186 	add	r0, r9, r6, lsl #3
    5350:	e590400c 	ldr	r4, [r0, #12]
    5354:	e1540000 	cmp	r4, r0
    5358:	0a000009 	beq	5384 <_malloc_r+0x478>
    535c:	e5943004 	ldr	r3, [r4, #4]
    5360:	e3c3c003 	bic	ip, r3, #3	; 0x3
    5364:	e065100c 	rsb	r1, r5, ip
    5368:	e351000f 	cmp	r1, #15	; 0xf
    536c:	ca000006 	bgt	538c <_malloc_r+0x480>
    5370:	e3510000 	cmp	r1, #0	; 0x0
    5374:	aafffefa 	bge	4f64 <_malloc_r+0x58>
    5378:	e594400c 	ldr	r4, [r4, #12]
    537c:	e1540000 	cmp	r4, r0
    5380:	1afffff5 	bne	535c <_malloc_r+0x450>
    5384:	e2866001 	add	r6, r6, #1	; 0x1
    5388:	eaffff06 	b	4fa8 <_malloc_r+0x9c>
    538c:	e2466001 	sub	r6, r6, #1	; 0x1
    5390:	eafffffb 	b	5384 <_malloc_r+0x478>
    5394:	400003b4 	strmih	r0, [r0], -r4
    5398:	400003bc 	strmih	r0, [r0], -ip

0000539c <_mbtowc_r>:
    539c:	e3510000 	cmp	r1, #0	; 0x0
    53a0:	e24dd004 	sub	sp, sp, #4	; 0x4
    53a4:	01a0100d 	moveq	r1, sp
    53a8:	e1a0c002 	mov	ip, r2
    53ac:	e3530000 	cmp	r3, #0	; 0x0
    53b0:	13a03000 	movne	r3, #0	; 0x0
    53b4:	03a03001 	moveq	r3, #1	; 0x1
    53b8:	e35c0000 	cmp	ip, #0	; 0x0
    53bc:	03a03000 	moveq	r3, #0	; 0x0
    53c0:	12033001 	andne	r3, r3, #1	; 0x1
    53c4:	e3530000 	cmp	r3, #0	; 0x0
    53c8:	e3e00001 	mvn	r0, #1	; 0x1
    53cc:	1a000008 	bne	53f4 <_mbtowc_r+0x58>
    53d0:	e35c0000 	cmp	ip, #0	; 0x0
    53d4:	e1a0000c 	mov	r0, ip
    53d8:	0a000005 	beq	53f4 <_mbtowc_r+0x58>
    53dc:	e5dc2000 	ldrb	r2, [ip]
    53e0:	e5812000 	str	r2, [r1]
    53e4:	e5dc3000 	ldrb	r3, [ip]
    53e8:	e3530000 	cmp	r3, #0	; 0x0
    53ec:	13a00001 	movne	r0, #1	; 0x1
    53f0:	03a00000 	moveq	r0, #0	; 0x0
    53f4:	e28dd004 	add	sp, sp, #4	; 0x4
    53f8:	e1a0f00e 	mov	pc, lr

000053fc <memchr>:
    53fc:	e3520003 	cmp	r2, #3	; 0x3
    5400:	e92d4010 	stmdb	sp!, {r4, lr}
    5404:	e1a0c002 	mov	ip, r2
    5408:	e20110ff 	and	r1, r1, #255	; 0xff
    540c:	9a000024 	bls	54a4 <memchr+0xa8>
    5410:	e2103003 	ands	r3, r0, #3	; 0x3
    5414:	1a000022 	bne	54a4 <memchr+0xa8>
    5418:	e1a04003 	mov	r4, r3
    541c:	e1a0e000 	mov	lr, r0
    5420:	e2833001 	add	r3, r3, #1	; 0x1
    5424:	e3530003 	cmp	r3, #3	; 0x3
    5428:	e0814404 	add	r4, r1, r4, lsl #8
    542c:	9afffffb 	bls	5420 <memchr+0x24>
    5430:	e35c0003 	cmp	ip, #3	; 0x3
    5434:	9a000019 	bls	54a0 <memchr+0xa4>
    5438:	e59e2000 	ldr	r2, [lr]
    543c:	e0222004 	eor	r2, r2, r4
    5440:	e28234ff 	add	r3, r2, #-16777216	; 0xff000000
    5444:	e2433801 	sub	r3, r3, #65536	; 0x10000
    5448:	e2433c01 	sub	r3, r3, #256	; 0x100
    544c:	e2433001 	sub	r3, r3, #1	; 0x1
    5450:	e1c33002 	bic	r3, r3, r2
    5454:	e3c3347f 	bic	r3, r3, #2130706432	; 0x7f000000
    5458:	e3c3387f 	bic	r3, r3, #8323072	; 0x7f0000
    545c:	e3c33c7f 	bic	r3, r3, #32512	; 0x7f00
    5460:	e3c3307f 	bic	r3, r3, #127	; 0x7f
    5464:	e3530000 	cmp	r3, #0	; 0x0
    5468:	0a000008 	beq	5490 <memchr+0x94>
    546c:	e1a0000e 	mov	r0, lr
    5470:	e3a02000 	mov	r2, #0	; 0x0
    5474:	e5d03000 	ldrb	r3, [r0]
    5478:	e1530001 	cmp	r3, r1
    547c:	e2822001 	add	r2, r2, #1	; 0x1
    5480:	08bd8010 	ldmeqia	sp!, {r4, pc}
    5484:	e3520003 	cmp	r2, #3	; 0x3
    5488:	e2800001 	add	r0, r0, #1	; 0x1
    548c:	9afffff8 	bls	5474 <memchr+0x78>
    5490:	e24cc004 	sub	ip, ip, #4	; 0x4
    5494:	e35c0003 	cmp	ip, #3	; 0x3
    5498:	e28ee004 	add	lr, lr, #4	; 0x4
    549c:	8affffe5 	bhi	5438 <memchr+0x3c>
    54a0:	e1a0000e 	mov	r0, lr
    54a4:	e24cc001 	sub	ip, ip, #1	; 0x1
    54a8:	e37c0001 	cmn	ip, #1	; 0x1
    54ac:	0a000006 	beq	54cc <memchr+0xd0>
    54b0:	e5d03000 	ldrb	r3, [r0]
    54b4:	e1530001 	cmp	r3, r1
    54b8:	e24cc001 	sub	ip, ip, #1	; 0x1
    54bc:	08bd8010 	ldmeqia	sp!, {r4, pc}
    54c0:	e37c0001 	cmn	ip, #1	; 0x1
    54c4:	e2800001 	add	r0, r0, #1	; 0x1
    54c8:	1afffff8 	bne	54b0 <memchr+0xb4>
    54cc:	e3a00000 	mov	r0, #0	; 0x0
    54d0:	e8bd8010 	ldmia	sp!, {r4, pc}

000054d4 <memcpy>:
    54d4:	e352000f 	cmp	r2, #15	; 0xf
    54d8:	e52de004 	str	lr, [sp, -#4]!
    54dc:	e1a0e002 	mov	lr, r2
    54e0:	e1a02000 	mov	r2, r0
    54e4:	9a000016 	bls	5544 <memcpy+0x70>
    54e8:	e1813000 	orr	r3, r1, r0
    54ec:	e3130003 	tst	r3, #3	; 0x3
    54f0:	1a000013 	bne	5544 <memcpy+0x70>
    54f4:	e1a0c000 	mov	ip, r0
    54f8:	e4913004 	ldr	r3, [r1], #4
    54fc:	e48c3004 	str	r3, [ip], #4
    5500:	e4912004 	ldr	r2, [r1], #4
    5504:	e48c2004 	str	r2, [ip], #4
    5508:	e4913004 	ldr	r3, [r1], #4
    550c:	e48c3004 	str	r3, [ip], #4
    5510:	e24ee010 	sub	lr, lr, #16	; 0x10
    5514:	e4913004 	ldr	r3, [r1], #4
    5518:	e35e000f 	cmp	lr, #15	; 0xf
    551c:	e48c3004 	str	r3, [ip], #4
    5520:	8afffff4 	bhi	54f8 <memcpy+0x24>
    5524:	e35e0003 	cmp	lr, #3	; 0x3
    5528:	9a000004 	bls	5540 <memcpy+0x6c>
    552c:	e4913004 	ldr	r3, [r1], #4
    5530:	e24ee004 	sub	lr, lr, #4	; 0x4
    5534:	e35e0003 	cmp	lr, #3	; 0x3
    5538:	e48c3004 	str	r3, [ip], #4
    553c:	8afffffa 	bhi	552c <memcpy+0x58>
    5540:	e1a0200c 	mov	r2, ip
    5544:	e24ee001 	sub	lr, lr, #1	; 0x1
    5548:	e37e0001 	cmn	lr, #1	; 0x1
    554c:	049df004 	ldreq	pc, [sp], #4
    5550:	e4d13001 	ldrb	r3, [r1], #1
    5554:	e24ee001 	sub	lr, lr, #1	; 0x1
    5558:	e37e0001 	cmn	lr, #1	; 0x1
    555c:	e4c23001 	strb	r3, [r2], #1
    5560:	1afffffa 	bne	5550 <memcpy+0x7c>
    5564:	e49df004 	ldr	pc, [sp], #4

00005568 <memmove>:
    5568:	e1510000 	cmp	r1, r0
    556c:	e92d4010 	stmdb	sp!, {r4, lr}
    5570:	e1a0c000 	mov	ip, r0
    5574:	e1a04001 	mov	r4, r1
    5578:	e1a0e002 	mov	lr, r2
    557c:	2a00000d 	bcs	55b8 <memmove+0x50>
    5580:	e0813002 	add	r3, r1, r2
    5584:	e1500003 	cmp	r0, r3
    5588:	2a00000a 	bcs	55b8 <memmove+0x50>
    558c:	e242e001 	sub	lr, r2, #1	; 0x1
    5590:	e37e0001 	cmn	lr, #1	; 0x1
    5594:	e080c002 	add	ip, r0, r2
    5598:	e1a01003 	mov	r1, r3
    559c:	08bd8010 	ldmeqia	sp!, {r4, pc}
    55a0:	e5713001 	ldrb	r3, [r1, -#1]!
    55a4:	e24ee001 	sub	lr, lr, #1	; 0x1
    55a8:	e37e0001 	cmn	lr, #1	; 0x1
    55ac:	e56c3001 	strb	r3, [ip, -#1]!
    55b0:	1afffffa 	bne	55a0 <memmove+0x38>
    55b4:	e8bd8010 	ldmia	sp!, {r4, pc}
    55b8:	e352000f 	cmp	r2, #15	; 0xf
    55bc:	9a000016 	bls	561c <memmove+0xb4>
    55c0:	e1843000 	orr	r3, r4, r0
    55c4:	e3130003 	tst	r3, #3	; 0x3
    55c8:	1a000013 	bne	561c <memmove+0xb4>
    55cc:	e1a01004 	mov	r1, r4
    55d0:	e1a0c000 	mov	ip, r0
    55d4:	e4913004 	ldr	r3, [r1], #4
    55d8:	e48c3004 	str	r3, [ip], #4
    55dc:	e4912004 	ldr	r2, [r1], #4
    55e0:	e48c2004 	str	r2, [ip], #4
    55e4:	e4913004 	ldr	r3, [r1], #4
    55e8:	e48c3004 	str	r3, [ip], #4
    55ec:	e24ee010 	sub	lr, lr, #16	; 0x10
    55f0:	e4913004 	ldr	r3, [r1], #4
    55f4:	e35e000f 	cmp	lr, #15	; 0xf
    55f8:	e48c3004 	str	r3, [ip], #4
    55fc:	8afffff4 	bhi	55d4 <memmove+0x6c>
    5600:	e35e0003 	cmp	lr, #3	; 0x3
    5604:	9a000004 	bls	561c <memmove+0xb4>
    5608:	e4913004 	ldr	r3, [r1], #4
    560c:	e24ee004 	sub	lr, lr, #4	; 0x4
    5610:	e35e0003 	cmp	lr, #3	; 0x3
    5614:	e48c3004 	str	r3, [ip], #4
    5618:	8afffffa 	bhi	5608 <memmove+0xa0>
    561c:	e24ee001 	sub	lr, lr, #1	; 0x1
    5620:	e37e0001 	cmn	lr, #1	; 0x1
    5624:	08bd8010 	ldmeqia	sp!, {r4, pc}
    5628:	e4d13001 	ldrb	r3, [r1], #1
    562c:	e24ee001 	sub	lr, lr, #1	; 0x1
    5630:	e37e0001 	cmn	lr, #1	; 0x1
    5634:	e4cc3001 	strb	r3, [ip], #1
    5638:	1afffffa 	bne	5628 <memmove+0xc0>
    563c:	e8bd8010 	ldmia	sp!, {r4, pc}

00005640 <memset>:
    5640:	e3520003 	cmp	r2, #3	; 0x3
    5644:	e20110ff 	and	r1, r1, #255	; 0xff
    5648:	e1a03000 	mov	r3, r0
    564c:	9a000012 	bls	569c <memset+0x5c>
    5650:	e3100003 	tst	r0, #3	; 0x3
    5654:	1a000010 	bne	569c <memset+0x5c>
    5658:	e181c401 	orr	ip, r1, r1, lsl #8
    565c:	e18cc80c 	orr	ip, ip, ip, lsl #16
    5660:	e352000f 	cmp	r2, #15	; 0xf
    5664:	9a000006 	bls	5684 <memset+0x44>
    5668:	e483c004 	str	ip, [r3], #4
    566c:	e483c004 	str	ip, [r3], #4
    5670:	e2422010 	sub	r2, r2, #16	; 0x10
    5674:	e483c004 	str	ip, [r3], #4
    5678:	e352000f 	cmp	r2, #15	; 0xf
    567c:	e483c004 	str	ip, [r3], #4
    5680:	8afffff8 	bhi	5668 <memset+0x28>
    5684:	e3520003 	cmp	r2, #3	; 0x3
    5688:	9a000003 	bls	569c <memset+0x5c>
    568c:	e2422004 	sub	r2, r2, #4	; 0x4
    5690:	e3520003 	cmp	r2, #3	; 0x3
    5694:	e483c004 	str	ip, [r3], #4
    5698:	8afffffb 	bhi	568c <memset+0x4c>
    569c:	e2422001 	sub	r2, r2, #1	; 0x1
    56a0:	e3720001 	cmn	r2, #1	; 0x1
    56a4:	01a0f00e 	moveq	pc, lr
    56a8:	e2422001 	sub	r2, r2, #1	; 0x1
    56ac:	e3720001 	cmn	r2, #1	; 0x1
    56b0:	e4c31001 	strb	r1, [r3], #1
    56b4:	1afffffb 	bne	56a8 <memset+0x68>
    56b8:	e1a0f00e 	mov	pc, lr

000056bc <__malloc_lock>:
    56bc:	e1a0f00e 	mov	pc, lr

000056c0 <__malloc_unlock>:
    56c0:	e1a0f00e 	mov	pc, lr

000056c4 <_Balloc>:
    56c4:	e1a0c00d 	mov	ip, sp
    56c8:	e92dd870 	stmdb	sp!, {r4, r5, r6, fp, ip, lr, pc}
    56cc:	e590404c 	ldr	r4, [r0, #76]
    56d0:	e3540000 	cmp	r4, #0	; 0x0
    56d4:	e24cb004 	sub	fp, ip, #4	; 0x4
    56d8:	e1a05000 	mov	r5, r0
    56dc:	e1a06001 	mov	r6, r1
    56e0:	0a000013 	beq	5734 <_Balloc+0x70>
    56e4:	e7940106 	ldr	r0, [r4, r6, lsl #2]
    56e8:	e3500000 	cmp	r0, #0	; 0x0
    56ec:	15903000 	ldrne	r3, [r0]
    56f0:	17843106 	strne	r3, [r4, r6, lsl #2]
    56f4:	0a000003 	beq	5708 <_Balloc+0x44>
    56f8:	e3a03000 	mov	r3, #0	; 0x0
    56fc:	e580300c 	str	r3, [r0, #12]
    5700:	e5803010 	str	r3, [r0, #16]
    5704:	e91ba870 	ldmdb	fp, {r4, r5, r6, fp, sp, pc}
    5708:	e3a01001 	mov	r1, #1	; 0x1
    570c:	e1a04611 	mov	r4, r1, lsl r6
    5710:	e1a02104 	mov	r2, r4, lsl #2
    5714:	e2822014 	add	r2, r2, #20	; 0x14
    5718:	e1a00005 	mov	r0, r5
    571c:	eb0006b5 	bl	71f8 <_calloc_r>
    5720:	e3500000 	cmp	r0, #0	; 0x0
    5724:	091ba870 	ldmeqdb	fp, {r4, r5, r6, fp, sp, pc}
    5728:	e5806004 	str	r6, [r0, #4]
    572c:	e5804008 	str	r4, [r0, #8]
    5730:	eafffff0 	b	56f8 <_Balloc+0x34>
    5734:	e3a01004 	mov	r1, #4	; 0x4
    5738:	e3a02010 	mov	r2, #16	; 0x10
    573c:	eb0006ad 	bl	71f8 <_calloc_r>
    5740:	e3500000 	cmp	r0, #0	; 0x0
    5744:	e585004c 	str	r0, [r5, #76]
    5748:	01a00004 	moveq	r0, r4
    574c:	091ba870 	ldmeqdb	fp, {r4, r5, r6, fp, sp, pc}
    5750:	e1a04000 	mov	r4, r0
    5754:	eaffffe2 	b	56e4 <_Balloc+0x20>

00005758 <_Bfree>:
    5758:	e3510000 	cmp	r1, #0	; 0x0
    575c:	e1a0c001 	mov	ip, r1
    5760:	159c2004 	ldrne	r2, [ip, #4]
    5764:	1590104c 	ldrne	r1, [r0, #76]
    5768:	17913102 	ldrne	r3, [r1, r2, lsl #2]
    576c:	158c3000 	strne	r3, [ip]
    5770:	1781c102 	strne	ip, [r1, r2, lsl #2]
    5774:	e1a0f00e 	mov	pc, lr

00005778 <_multadd>:
    5778:	e1a0c00d 	mov	ip, sp
    577c:	e92dd9f0 	stmdb	sp!, {r4, r5, r6, r7, r8, fp, ip, lr, pc}
    5780:	e5916010 	ldr	r6, [r1, #16]
    5784:	e24cb004 	sub	fp, ip, #4	; 0x4
    5788:	e1a07001 	mov	r7, r1
    578c:	e1a08000 	mov	r8, r0
    5790:	e1a04002 	mov	r4, r2
    5794:	e1a05003 	mov	r5, r3
    5798:	e281c014 	add	ip, r1, #20	; 0x14
    579c:	e3a0e000 	mov	lr, #0	; 0x0
    57a0:	e59c1000 	ldr	r1, [ip]
    57a4:	e1a03801 	mov	r3, r1, lsl #16
    57a8:	e1a03823 	mov	r3, r3, lsr #16
    57ac:	e0225394 	mla	r2, r4, r3, r5
    57b0:	e1a01821 	mov	r1, r1, lsr #16
    57b4:	e1a03822 	mov	r3, r2, lsr #16
    57b8:	e0203194 	mla	r0, r4, r1, r3
    57bc:	e1a02802 	mov	r2, r2, lsl #16
    57c0:	e1a02822 	mov	r2, r2, lsr #16
    57c4:	e28ee001 	add	lr, lr, #1	; 0x1
    57c8:	e0822800 	add	r2, r2, r0, lsl #16
    57cc:	e15e0006 	cmp	lr, r6
    57d0:	e48c2004 	str	r2, [ip], #4
    57d4:	e1a05820 	mov	r5, r0, lsr #16
    57d8:	bafffff0 	blt	57a0 <_multadd+0x28>
    57dc:	e3550000 	cmp	r5, #0	; 0x0
    57e0:	0a000006 	beq	5800 <_multadd+0x88>
    57e4:	e5973008 	ldr	r3, [r7, #8]
    57e8:	e1560003 	cmp	r6, r3
    57ec:	aa000005 	bge	5808 <_multadd+0x90>
    57f0:	e0873106 	add	r3, r7, r6, lsl #2
    57f4:	e2866001 	add	r6, r6, #1	; 0x1
    57f8:	e5835014 	str	r5, [r3, #20]
    57fc:	e5876010 	str	r6, [r7, #16]
    5800:	e1a00007 	mov	r0, r7
    5804:	e91ba9f0 	ldmdb	fp, {r4, r5, r6, r7, r8, fp, sp, pc}
    5808:	e5971004 	ldr	r1, [r7, #4]
    580c:	e1a00008 	mov	r0, r8
    5810:	e2811001 	add	r1, r1, #1	; 0x1
    5814:	ebffffaa 	bl	56c4 <_Balloc>
    5818:	e5972010 	ldr	r2, [r7, #16]
    581c:	e1a02102 	mov	r2, r2, lsl #2
    5820:	e287100c 	add	r1, r7, #12	; 0xc
    5824:	e1a04000 	mov	r4, r0
    5828:	e2822008 	add	r2, r2, #8	; 0x8
    582c:	e280000c 	add	r0, r0, #12	; 0xc
    5830:	ebffff27 	bl	54d4 <memcpy>
    5834:	e1a01007 	mov	r1, r7
    5838:	e1a00008 	mov	r0, r8
    583c:	ebffffc5 	bl	5758 <_Bfree>
    5840:	e1a07004 	mov	r7, r4
    5844:	eaffffe9 	b	57f0 <_multadd+0x78>

00005848 <_s2b>:
    5848:	e1a0c00d 	mov	ip, sp
    584c:	e92dd9f0 	stmdb	sp!, {r4, r5, r6, r7, r8, fp, ip, lr, pc}
    5850:	e24cb004 	sub	fp, ip, #4	; 0x4
    5854:	e59fc0c0 	ldr	ip, [pc, #192]	; 591c <_s2b+0xd4>
    5858:	e1a08003 	mov	r8, r3
    585c:	e2833008 	add	r3, r3, #8	; 0x8
    5860:	e0ce439c 	smull	r4, lr, ip, r3
    5864:	e1a03fc3 	mov	r3, r3, asr #31
    5868:	e063c0ce 	rsb	ip, r3, lr, asr #1
    586c:	e35c0001 	cmp	ip, #1	; 0x1
    5870:	e1a04001 	mov	r4, r1
    5874:	e1a06000 	mov	r6, r0
    5878:	e1a07002 	mov	r7, r2
    587c:	e3a01000 	mov	r1, #0	; 0x0
    5880:	e3a03001 	mov	r3, #1	; 0x1
    5884:	da000003 	ble	5898 <_s2b+0x50>
    5888:	e1a03083 	mov	r3, r3, lsl #1
    588c:	e15c0003 	cmp	ip, r3
    5890:	e2811001 	add	r1, r1, #1	; 0x1
    5894:	cafffffb 	bgt	5888 <_s2b+0x40>
    5898:	e1a00006 	mov	r0, r6
    589c:	ebffff88 	bl	56c4 <_Balloc>
    58a0:	e59b3004 	ldr	r3, [fp, #4]
    58a4:	e3570009 	cmp	r7, #9	; 0x9
    58a8:	e3a02001 	mov	r2, #1	; 0x1
    58ac:	e5803014 	str	r3, [r0, #20]
    58b0:	e5802010 	str	r2, [r0, #16]
    58b4:	e3a05009 	mov	r5, #9	; 0x9
    58b8:	d284400a 	addle	r4, r4, #10	; 0xa
    58bc:	da00000a 	ble	58ec <_s2b+0xa4>
    58c0:	e0844005 	add	r4, r4, r5
    58c4:	e4d43001 	ldrb	r3, [r4], #1
    58c8:	e1a01000 	mov	r1, r0
    58cc:	e2433030 	sub	r3, r3, #48	; 0x30
    58d0:	e1a00006 	mov	r0, r6
    58d4:	e3a0200a 	mov	r2, #10	; 0xa
    58d8:	e2855001 	add	r5, r5, #1	; 0x1
    58dc:	ebffffa5 	bl	5778 <_multadd>
    58e0:	e1550007 	cmp	r5, r7
    58e4:	a2844001 	addge	r4, r4, #1	; 0x1
    58e8:	bafffff5 	blt	58c4 <_s2b+0x7c>
    58ec:	e1550008 	cmp	r5, r8
    58f0:	a91ba9f0 	ldmgedb	fp, {r4, r5, r6, r7, r8, fp, sp, pc}
    58f4:	e0655008 	rsb	r5, r5, r8
    58f8:	e4d43001 	ldrb	r3, [r4], #1
    58fc:	e1a01000 	mov	r1, r0
    5900:	e2433030 	sub	r3, r3, #48	; 0x30
    5904:	e1a00006 	mov	r0, r6
    5908:	e3a0200a 	mov	r2, #10	; 0xa
    590c:	ebffff99 	bl	5778 <_multadd>
    5910:	e2555001 	subs	r5, r5, #1	; 0x1
    5914:	1afffff7 	bne	58f8 <_s2b+0xb0>
    5918:	e91ba9f0 	ldmdb	fp, {r4, r5, r6, r7, r8, fp, sp, pc}
    591c:	38e38e39 	stmccia	r3!, {r0, r3, r4, r5, r9, sl, fp, pc}^

00005920 <_hi0bits>:
    5920:	e1a03820 	mov	r3, r0, lsr #16
    5924:	e1a03803 	mov	r3, r3, lsl #16
    5928:	e3530000 	cmp	r3, #0	; 0x0
    592c:	e3a03000 	mov	r3, #0	; 0x0
    5930:	03a03010 	moveq	r3, #16	; 0x10
    5934:	01a00310 	moveq	r0, r0, lsl r3
    5938:	e31004ff 	tst	r0, #-16777216	; 0xff000000
    593c:	01a00400 	moveq	r0, r0, lsl #8
    5940:	02833008 	addeq	r3, r3, #8	; 0x8
    5944:	e310020f 	tst	r0, #-268435456	; 0xf0000000
    5948:	01a00200 	moveq	r0, r0, lsl #4
    594c:	02833004 	addeq	r3, r3, #4	; 0x4
    5950:	e3100103 	tst	r0, #-1073741824	; 0xc0000000
    5954:	01a00100 	moveq	r0, r0, lsl #2
    5958:	02833002 	addeq	r3, r3, #2	; 0x2
    595c:	e3500000 	cmp	r0, #0	; 0x0
    5960:	ba000003 	blt	5974 <_hi0bits+0x54>
    5964:	e3100101 	tst	r0, #1073741824	; 0x40000000
    5968:	e2833001 	add	r3, r3, #1	; 0x1
    596c:	03a00020 	moveq	r0, #32	; 0x20
    5970:	01a0f00e 	moveq	pc, lr
    5974:	e1a00003 	mov	r0, r3
    5978:	e1a0f00e 	mov	pc, lr

0000597c <_lo0bits>:
    597c:	e5902000 	ldr	r2, [r0]
    5980:	e2121007 	ands	r1, r2, #7	; 0x7
    5984:	e1a0c000 	mov	ip, r0
    5988:	0a000009 	beq	59b4 <_lo0bits+0x38>
    598c:	e3120001 	tst	r2, #1	; 0x1
    5990:	13a00000 	movne	r0, #0	; 0x0
    5994:	11a0f00e 	movne	pc, lr
    5998:	e3120002 	tst	r2, #2	; 0x2
    599c:	11a030a2 	movne	r3, r2, lsr #1
    59a0:	01a03122 	moveq	r3, r2, lsr #2
    59a4:	13a00001 	movne	r0, #1	; 0x1
    59a8:	03a00002 	moveq	r0, #2	; 0x2
    59ac:	e58c3000 	str	r3, [ip]
    59b0:	e1a0f00e 	mov	pc, lr
    59b4:	e1a03802 	mov	r3, r2, lsl #16
    59b8:	e1a03823 	mov	r3, r3, lsr #16
    59bc:	e3530000 	cmp	r3, #0	; 0x0
    59c0:	e1a00001 	mov	r0, r1
    59c4:	03a00010 	moveq	r0, #16	; 0x10
    59c8:	01a02032 	moveq	r2, r2, lsr r0
    59cc:	e31200ff 	tst	r2, #255	; 0xff
    59d0:	01a02422 	moveq	r2, r2, lsr #8
    59d4:	02800008 	addeq	r0, r0, #8	; 0x8
    59d8:	e312000f 	tst	r2, #15	; 0xf
    59dc:	01a02222 	moveq	r2, r2, lsr #4
    59e0:	02800004 	addeq	r0, r0, #4	; 0x4
    59e4:	e3120003 	tst	r2, #3	; 0x3
    59e8:	01a02122 	moveq	r2, r2, lsr #2
    59ec:	02800002 	addeq	r0, r0, #2	; 0x2
    59f0:	e3120001 	tst	r2, #1	; 0x1
    59f4:	1a000003 	bne	5a08 <_lo0bits+0x8c>
    59f8:	e1b020a2 	movs	r2, r2, lsr #1
    59fc:	e2800001 	add	r0, r0, #1	; 0x1
    5a00:	03a00020 	moveq	r0, #32	; 0x20
    5a04:	01a0f00e 	moveq	pc, lr
    5a08:	e58c2000 	str	r2, [ip]
    5a0c:	e1a0f00e 	mov	pc, lr

00005a10 <_i2b>:
    5a10:	e1a0c00d 	mov	ip, sp
    5a14:	e92dd810 	stmdb	sp!, {r4, fp, ip, lr, pc}
    5a18:	e1a04001 	mov	r4, r1
    5a1c:	e24cb004 	sub	fp, ip, #4	; 0x4
    5a20:	e3a01001 	mov	r1, #1	; 0x1
    5a24:	ebffff26 	bl	56c4 <_Balloc>
    5a28:	e3a03001 	mov	r3, #1	; 0x1
    5a2c:	e5803010 	str	r3, [r0, #16]
    5a30:	e5804014 	str	r4, [r0, #20]
    5a34:	e91ba810 	ldmdb	fp, {r4, fp, sp, pc}

00005a38 <_multiply>:
    5a38:	e1a0c00d 	mov	ip, sp
    5a3c:	e92ddff0 	stmdb	sp!, {r4, r5, r6, r7, r8, r9, sl, fp, ip, lr, pc}
    5a40:	e24cb004 	sub	fp, ip, #4	; 0x4
    5a44:	e24dd018 	sub	sp, sp, #24	; 0x18
    5a48:	e5917010 	ldr	r7, [r1, #16]
    5a4c:	e5926010 	ldr	r6, [r2, #16]
    5a50:	e1570006 	cmp	r7, r6
    5a54:	e1a04001 	mov	r4, r1
    5a58:	b1a07006 	movlt	r7, r6
    5a5c:	b1a04002 	movlt	r4, r2
    5a60:	b5916010 	ldrlt	r6, [r1, #16]
    5a64:	e5943008 	ldr	r3, [r4, #8]
    5a68:	b50b102c 	strlt	r1, [fp, -#44]
    5a6c:	e1a08002 	mov	r8, r2
    5a70:	e0872006 	add	r2, r7, r6
    5a74:	b1a08001 	movlt	r8, r1
    5a78:	e5941004 	ldr	r1, [r4, #4]
    5a7c:	e1520003 	cmp	r2, r3
    5a80:	c2811001 	addgt	r1, r1, #1	; 0x1
    5a84:	e50b2030 	str	r2, [fp, -#48]
    5a88:	ebffff0d 	bl	56c4 <_Balloc>
    5a8c:	e51b2030 	ldr	r2, [fp, -#48]
    5a90:	e2803014 	add	r3, r0, #20	; 0x14
    5a94:	e1a02102 	mov	r2, r2, lsl #2
    5a98:	e50b3040 	str	r3, [fp, -#64]
    5a9c:	e50b203c 	str	r2, [fp, -#60]
    5aa0:	e0833002 	add	r3, r3, r2
    5aa4:	e51b2040 	ldr	r2, [fp, -#64]
    5aa8:	e1520003 	cmp	r2, r3
    5aac:	e50b002c 	str	r0, [fp, -#44]
    5ab0:	e50b3034 	str	r3, [fp, -#52]
    5ab4:	e1a05002 	mov	r5, r2
    5ab8:	2a000004 	bcs	5ad0 <_multiply+0x98>
    5abc:	e3a03000 	mov	r3, #0	; 0x0
    5ac0:	e4853004 	str	r3, [r5], #4
    5ac4:	e51b2034 	ldr	r2, [fp, -#52]
    5ac8:	e1550002 	cmp	r5, r2
    5acc:	3afffffb 	bcc	5ac0 <_multiply+0x88>
    5ad0:	e2888014 	add	r8, r8, #20	; 0x14
    5ad4:	e0886106 	add	r6, r8, r6, lsl #2
    5ad8:	e2844014 	add	r4, r4, #20	; 0x14
    5adc:	e1580006 	cmp	r8, r6
    5ae0:	e50b6038 	str	r6, [fp, -#56]
    5ae4:	e50b4034 	str	r4, [fp, -#52]
    5ae8:	e084a107 	add	sl, r4, r7, lsl #2
    5aec:	e51b9040 	ldr	r9, [fp, -#64]
    5af0:	2a00003a 	bcs	5be0 <_multiply+0x1a8>
    5af4:	e5983000 	ldr	r3, [r8]
    5af8:	e1a06803 	mov	r6, r3, lsl #16
    5afc:	e1a06826 	mov	r6, r6, lsr #16
    5b00:	e3560000 	cmp	r6, #0	; 0x0
    5b04:	0a000016 	beq	5b64 <_multiply+0x12c>
    5b08:	e51b5034 	ldr	r5, [fp, -#52]
    5b0c:	e1a04009 	mov	r4, r9
    5b10:	e3a07000 	mov	r7, #0	; 0x0
    5b14:	e4950004 	ldr	r0, [r5], #4
    5b18:	e5941000 	ldr	r1, [r4]
    5b1c:	e1a02800 	mov	r2, r0, lsl #16
    5b20:	e1a03801 	mov	r3, r1, lsl #16
    5b24:	e1a03823 	mov	r3, r3, lsr #16
    5b28:	e1a02822 	mov	r2, r2, lsr #16
    5b2c:	e02c3296 	mla	ip, r6, r2, r3
    5b30:	e1a01821 	mov	r1, r1, lsr #16
    5b34:	e1a00820 	mov	r0, r0, lsr #16
    5b38:	e0231096 	mla	r3, r6, r0, r1
    5b3c:	e08c1007 	add	r1, ip, r7
    5b40:	e083e821 	add	lr, r3, r1, lsr #16
    5b44:	e155000a 	cmp	r5, sl
    5b48:	e1c4e0b2 	strh	lr, [r4, #2]
    5b4c:	e1c410b0 	strh	r1, [r4]
    5b50:	e1a0782e 	mov	r7, lr, lsr #16
    5b54:	e2844004 	add	r4, r4, #4	; 0x4
    5b58:	3affffed 	bcc	5b14 <_multiply+0xdc>
    5b5c:	e5847000 	str	r7, [r4]
    5b60:	e5983000 	ldr	r3, [r8]
    5b64:	e1b06823 	movs	r6, r3, lsr #16
    5b68:	0a000017 	beq	5bcc <_multiply+0x194>
    5b6c:	e599e000 	ldr	lr, [r9]
    5b70:	e51b5034 	ldr	r5, [fp, -#52]
    5b74:	e1a04009 	mov	r4, r9
    5b78:	e3a07000 	mov	r7, #0	; 0x0
    5b7c:	e1a0c00e 	mov	ip, lr
    5b80:	e4950004 	ldr	r0, [r5], #4
    5b84:	e1a03800 	mov	r3, r0, lsl #16
    5b88:	e1a0182c 	mov	r1, ip, lsr #16
    5b8c:	e1a03823 	mov	r3, r3, lsr #16
    5b90:	e0221396 	mla	r2, r6, r3, r1
    5b94:	e0821007 	add	r1, r2, r7
    5b98:	e1c4e0b0 	strh	lr, [r4]
    5b9c:	e1c410b2 	strh	r1, [r4, #2]
    5ba0:	e5b43004 	ldr	r3, [r4, #4]!
    5ba4:	e1a02803 	mov	r2, r3, lsl #16
    5ba8:	e1a00820 	mov	r0, r0, lsr #16
    5bac:	e1a02822 	mov	r2, r2, lsr #16
    5bb0:	e1a0c003 	mov	ip, r3
    5bb4:	e0232096 	mla	r3, r6, r0, r2
    5bb8:	e155000a 	cmp	r5, sl
    5bbc:	e083e821 	add	lr, r3, r1, lsr #16
    5bc0:	e1a0782e 	mov	r7, lr, lsr #16
    5bc4:	3affffed 	bcc	5b80 <_multiply+0x148>
    5bc8:	e584e000 	str	lr, [r4]
    5bcc:	e51b3038 	ldr	r3, [fp, -#56]
    5bd0:	e2888004 	add	r8, r8, #4	; 0x4
    5bd4:	e1580003 	cmp	r8, r3
    5bd8:	e2899004 	add	r9, r9, #4	; 0x4
    5bdc:	3affffc4 	bcc	5af4 <_multiply+0xbc>
    5be0:	e51b2030 	ldr	r2, [fp, -#48]
    5be4:	e51b3040 	ldr	r3, [fp, -#64]
    5be8:	e3520000 	cmp	r2, #0	; 0x0
    5bec:	e51b203c 	ldr	r2, [fp, -#60]
    5bf0:	e0834002 	add	r4, r3, r2
    5bf4:	da00000a 	ble	5c24 <_multiply+0x1ec>
    5bf8:	e5343004 	ldr	r3, [r4, -#4]!
    5bfc:	e3530000 	cmp	r3, #0	; 0x0
    5c00:	1a000007 	bne	5c24 <_multiply+0x1ec>
    5c04:	e51b3030 	ldr	r3, [fp, -#48]
    5c08:	e2433001 	sub	r3, r3, #1	; 0x1
    5c0c:	e3530000 	cmp	r3, #0	; 0x0
    5c10:	e50b3030 	str	r3, [fp, -#48]
    5c14:	da000002 	ble	5c24 <_multiply+0x1ec>
    5c18:	e5343004 	ldr	r3, [r4, -#4]!
    5c1c:	e3530000 	cmp	r3, #0	; 0x0
    5c20:	0afffff7 	beq	5c04 <_multiply+0x1cc>
    5c24:	e51b202c 	ldr	r2, [fp, -#44]
    5c28:	e51b3030 	ldr	r3, [fp, -#48]
    5c2c:	e1a00002 	mov	r0, r2
    5c30:	e5823010 	str	r3, [r2, #16]
    5c34:	e91baff0 	ldmdb	fp, {r4, r5, r6, r7, r8, r9, sl, fp, sp, pc}

00005c38 <_pow5mult>:
    5c38:	e1a0c00d 	mov	ip, sp
    5c3c:	e92dd9f0 	stmdb	sp!, {r4, r5, r6, r7, r8, fp, ip, lr, pc}
    5c40:	e1a05002 	mov	r5, r2
    5c44:	e2122003 	ands	r2, r2, #3	; 0x3
    5c48:	e24cb004 	sub	fp, ip, #4	; 0x4
    5c4c:	e1a08000 	mov	r8, r0
    5c50:	e1a07001 	mov	r7, r1
    5c54:	1a00002a 	bne	5d04 <_pow5mult+0xcc>
    5c58:	e1b05145 	movs	r5, r5, asr #2
    5c5c:	0a000017 	beq	5cc0 <_pow5mult+0x88>
    5c60:	e5984048 	ldr	r4, [r8, #72]
    5c64:	e3540000 	cmp	r4, #0	; 0x0
    5c68:	e1a06004 	mov	r6, r4
    5c6c:	0a00001c 	beq	5ce4 <_pow5mult+0xac>
    5c70:	e3150001 	tst	r5, #1	; 0x1
    5c74:	e1a02004 	mov	r2, r4
    5c78:	e1a00008 	mov	r0, r8
    5c7c:	e1a01007 	mov	r1, r7
    5c80:	1a000010 	bne	5cc8 <_pow5mult+0x90>
    5c84:	e1b050c5 	movs	r5, r5, asr #1
    5c88:	e1a01004 	mov	r1, r4
    5c8c:	e1a02004 	mov	r2, r4
    5c90:	e1a00008 	mov	r0, r8
    5c94:	0a000009 	beq	5cc0 <_pow5mult+0x88>
    5c98:	e5943000 	ldr	r3, [r4]
    5c9c:	e2536000 	subs	r6, r3, #0	; 0x0
    5ca0:	0a000001 	beq	5cac <_pow5mult+0x74>
    5ca4:	e1a04003 	mov	r4, r3
    5ca8:	eafffff0 	b	5c70 <_pow5mult+0x38>
    5cac:	ebffff61 	bl	5a38 <_multiply>
    5cb0:	e5840000 	str	r0, [r4]
    5cb4:	e5806000 	str	r6, [r0]
    5cb8:	e1a03000 	mov	r3, r0
    5cbc:	eafffff8 	b	5ca4 <_pow5mult+0x6c>
    5cc0:	e1a00007 	mov	r0, r7
    5cc4:	e91ba9f0 	ldmdb	fp, {r4, r5, r6, r7, r8, fp, sp, pc}
    5cc8:	ebffff5a 	bl	5a38 <_multiply>
    5ccc:	e1a01007 	mov	r1, r7
    5cd0:	e1a03000 	mov	r3, r0
    5cd4:	e1a00008 	mov	r0, r8
    5cd8:	e1a07003 	mov	r7, r3
    5cdc:	ebfffe9d 	bl	5758 <_Bfree>
    5ce0:	eaffffe7 	b	5c84 <_pow5mult+0x4c>
    5ce4:	e3a01e27 	mov	r1, #624	; 0x270
    5ce8:	e1a00008 	mov	r0, r8
    5cec:	e2811001 	add	r1, r1, #1	; 0x1
    5cf0:	ebffff46 	bl	5a10 <_i2b>
    5cf4:	e5880048 	str	r0, [r8, #72]
    5cf8:	e5806000 	str	r6, [r0]
    5cfc:	e1a04000 	mov	r4, r0
    5d00:	eaffffda 	b	5c70 <_pow5mult+0x38>
    5d04:	e59f3014 	ldr	r3, [pc, #20]	; 5d20 <_pow5mult+0xe8>
    5d08:	e0833102 	add	r3, r3, r2, lsl #2
    5d0c:	e5132004 	ldr	r2, [r3, -#4]
    5d10:	e3a03000 	mov	r3, #0	; 0x0
    5d14:	ebfffe97 	bl	5778 <_multadd>
    5d18:	e1a07000 	mov	r7, r0
    5d1c:	eaffffcd 	b	5c58 <_pow5mult+0x20>
    5d20:	000097cc 	andeq	r9, r0, ip, asr #15

00005d24 <_lshift>:
    5d24:	e1a0c00d 	mov	ip, sp
    5d28:	e92dddf0 	stmdb	sp!, {r4, r5, r6, r7, r8, sl, fp, ip, lr, pc}
    5d2c:	e5913010 	ldr	r3, [r1, #16]
    5d30:	e1a062c2 	mov	r6, r2, asr #5
    5d34:	e1a04002 	mov	r4, r2
    5d38:	e0863003 	add	r3, r6, r3
    5d3c:	e5912008 	ldr	r2, [r1, #8]
    5d40:	e2835001 	add	r5, r3, #1	; 0x1
    5d44:	e1550002 	cmp	r5, r2
    5d48:	e1a07001 	mov	r7, r1
    5d4c:	e24cb004 	sub	fp, ip, #4	; 0x4
    5d50:	e1a0a000 	mov	sl, r0
    5d54:	e5911004 	ldr	r1, [r1, #4]
    5d58:	da000003 	ble	5d6c <_lshift+0x48>
    5d5c:	e1a02082 	mov	r2, r2, lsl #1
    5d60:	e1550002 	cmp	r5, r2
    5d64:	e2811001 	add	r1, r1, #1	; 0x1
    5d68:	cafffffb 	bgt	5d5c <_lshift+0x38>
    5d6c:	e1a0000a 	mov	r0, sl
    5d70:	ebfffe53 	bl	56c4 <_Balloc>
    5d74:	e3a02000 	mov	r2, #0	; 0x0
    5d78:	e1520006 	cmp	r2, r6
    5d7c:	e1a08000 	mov	r8, r0
    5d80:	e280c014 	add	ip, r0, #20	; 0x14
    5d84:	aa000004 	bge	5d9c <_lshift+0x78>
    5d88:	e1a03002 	mov	r3, r2
    5d8c:	e1a02006 	mov	r2, r6
    5d90:	e2522001 	subs	r2, r2, #1	; 0x1
    5d94:	e48c3004 	str	r3, [ip], #4
    5d98:	1afffffc 	bne	5d90 <_lshift+0x6c>
    5d9c:	e5973010 	ldr	r3, [r7, #16]
    5da0:	e2870014 	add	r0, r7, #20	; 0x14
    5da4:	e214401f 	ands	r4, r4, #31	; 0x1f
    5da8:	e080e103 	add	lr, r0, r3, lsl #2
    5dac:	0a000012 	beq	5dfc <_lshift+0xd8>
    5db0:	e2641020 	rsb	r1, r4, #32	; 0x20
    5db4:	e3a02000 	mov	r2, #0	; 0x0
    5db8:	e5903000 	ldr	r3, [r0]
    5dbc:	e1823413 	orr	r3, r2, r3, lsl r4
    5dc0:	e48c3004 	str	r3, [ip], #4
    5dc4:	e4902004 	ldr	r2, [r0], #4
    5dc8:	e150000e 	cmp	r0, lr
    5dcc:	e1a02132 	mov	r2, r2, lsr r1
    5dd0:	3afffff8 	bcc	5db8 <_lshift+0x94>
    5dd4:	e3520000 	cmp	r2, #0	; 0x0
    5dd8:	12855001 	addne	r5, r5, #1	; 0x1
    5ddc:	e58c2000 	str	r2, [ip]
    5de0:	e2453001 	sub	r3, r5, #1	; 0x1
    5de4:	e1a0000a 	mov	r0, sl
    5de8:	e5883010 	str	r3, [r8, #16]
    5dec:	e1a01007 	mov	r1, r7
    5df0:	ebfffe58 	bl	5758 <_Bfree>
    5df4:	e1a00008 	mov	r0, r8
    5df8:	e91badf0 	ldmdb	fp, {r4, r5, r6, r7, r8, sl, fp, sp, pc}
    5dfc:	e4903004 	ldr	r3, [r0], #4
    5e00:	e150000e 	cmp	r0, lr
    5e04:	e48c3004 	str	r3, [ip], #4
    5e08:	3afffffb 	bcc	5dfc <_lshift+0xd8>
    5e0c:	eafffff3 	b	5de0 <_lshift+0xbc>

00005e10 <__mcmp>:
    5e10:	e1a0c000 	mov	ip, r0
    5e14:	e5912010 	ldr	r2, [r1, #16]
    5e18:	e5900010 	ldr	r0, [r0, #16]
    5e1c:	e0500002 	subs	r0, r0, r2
    5e20:	11a0f00e 	movne	pc, lr
    5e24:	e1a02102 	mov	r2, r2, lsl #2
    5e28:	e28c0014 	add	r0, ip, #20	; 0x14
    5e2c:	e2813014 	add	r3, r1, #20	; 0x14
    5e30:	e0831002 	add	r1, r3, r2
    5e34:	e080c002 	add	ip, r0, r2
    5e38:	e53c2004 	ldr	r2, [ip, -#4]!
    5e3c:	e5313004 	ldr	r3, [r1, -#4]!
    5e40:	e1520003 	cmp	r2, r3
    5e44:	1a000003 	bne	5e58 <__mcmp+0x48>
    5e48:	e15c0000 	cmp	ip, r0
    5e4c:	93a00000 	movls	r0, #0	; 0x0
    5e50:	8afffff8 	bhi	5e38 <__mcmp+0x28>
    5e54:	e1a0f00e 	mov	pc, lr
    5e58:	33e00000 	mvncc	r0, #0	; 0x0
    5e5c:	23a00001 	movcs	r0, #1	; 0x1
    5e60:	e1a0f00e 	mov	pc, lr

00005e64 <__mdiff>:
    5e64:	e1a0c00d 	mov	ip, sp
    5e68:	e92dddf0 	stmdb	sp!, {r4, r5, r6, r7, r8, sl, fp, ip, lr, pc}
    5e6c:	e1a04001 	mov	r4, r1
    5e70:	e24cb004 	sub	fp, ip, #4	; 0x4
    5e74:	e1a07000 	mov	r7, r0
    5e78:	e1a01002 	mov	r1, r2
    5e7c:	e1a00004 	mov	r0, r4
    5e80:	e1a06002 	mov	r6, r2
    5e84:	ebffffe1 	bl	5e10 <__mcmp>
    5e88:	e3500000 	cmp	r0, #0	; 0x0
    5e8c:	e1a05000 	mov	r5, r0
    5e90:	0a00003a 	beq	5f80 <__mdiff+0x11c>
    5e94:	b1a08004 	movlt	r8, r4
    5e98:	b1a04006 	movlt	r4, r6
    5e9c:	e5941004 	ldr	r1, [r4, #4]
    5ea0:	e1a00007 	mov	r0, r7
    5ea4:	b1a06008 	movlt	r6, r8
    5ea8:	b3a05001 	movlt	r5, #1	; 0x1
    5eac:	a3a05000 	movge	r5, #0	; 0x0
    5eb0:	ebfffe03 	bl	56c4 <_Balloc>
    5eb4:	e5947010 	ldr	r7, [r4, #16]
    5eb8:	e5963010 	ldr	r3, [r6, #16]
    5ebc:	e580500c 	str	r5, [r0, #12]
    5ec0:	e2844014 	add	r4, r4, #20	; 0x14
    5ec4:	e2865014 	add	r5, r6, #20	; 0x14
    5ec8:	e1a08000 	mov	r8, r0
    5ecc:	e0856103 	add	r6, r5, r3, lsl #2
    5ed0:	e084a107 	add	sl, r4, r7, lsl #2
    5ed4:	e280e014 	add	lr, r0, #20	; 0x14
    5ed8:	e3a0c000 	mov	ip, #0	; 0x0
    5edc:	e4951004 	ldr	r1, [r5], #4
    5ee0:	e4940004 	ldr	r0, [r4], #4
    5ee4:	e1a02801 	mov	r2, r1, lsl #16
    5ee8:	e1a03800 	mov	r3, r0, lsl #16
    5eec:	e1a03823 	mov	r3, r3, lsr #16
    5ef0:	e1a02822 	mov	r2, r2, lsr #16
    5ef4:	e0623003 	rsb	r3, r2, r3
    5ef8:	e1a01821 	mov	r1, r1, lsr #16
    5efc:	e083c00c 	add	ip, r3, ip
    5f00:	e0611820 	rsb	r1, r1, r0, lsr #16
    5f04:	e081384c 	add	r3, r1, ip, asr #16
    5f08:	e1550006 	cmp	r5, r6
    5f0c:	e1cec0b0 	strh	ip, [lr]
    5f10:	e1ce30b2 	strh	r3, [lr, #2]
    5f14:	e1a0c843 	mov	ip, r3, asr #16
    5f18:	e28ee004 	add	lr, lr, #4	; 0x4
    5f1c:	3affffee 	bcc	5edc <__mdiff+0x78>
    5f20:	e154000a 	cmp	r4, sl
    5f24:	2a00000b 	bcs	5f58 <__mdiff+0xf4>
    5f28:	e4942004 	ldr	r2, [r4], #4
    5f2c:	e1a03802 	mov	r3, r2, lsl #16
    5f30:	e1a03823 	mov	r3, r3, lsr #16
    5f34:	e083c00c 	add	ip, r3, ip
    5f38:	e1a02822 	mov	r2, r2, lsr #16
    5f3c:	e082384c 	add	r3, r2, ip, asr #16
    5f40:	e154000a 	cmp	r4, sl
    5f44:	e1cec0b0 	strh	ip, [lr]
    5f48:	e1ce30b2 	strh	r3, [lr, #2]
    5f4c:	e1a0c843 	mov	ip, r3, asr #16
    5f50:	e28ee004 	add	lr, lr, #4	; 0x4
    5f54:	3afffff3 	bcc	5f28 <__mdiff+0xc4>
    5f58:	e53e3004 	ldr	r3, [lr, -#4]!
    5f5c:	e3530000 	cmp	r3, #0	; 0x0
    5f60:	1a000003 	bne	5f74 <__mdiff+0x110>
    5f64:	e53e3004 	ldr	r3, [lr, -#4]!
    5f68:	e3530000 	cmp	r3, #0	; 0x0
    5f6c:	e2477001 	sub	r7, r7, #1	; 0x1
    5f70:	0afffffb 	beq	5f64 <__mdiff+0x100>
    5f74:	e5887010 	str	r7, [r8, #16]
    5f78:	e1a00008 	mov	r0, r8
    5f7c:	e91badf0 	ldmdb	fp, {r4, r5, r6, r7, r8, sl, fp, sp, pc}
    5f80:	e1a00007 	mov	r0, r7
    5f84:	e1a01005 	mov	r1, r5
    5f88:	ebfffdcd 	bl	56c4 <_Balloc>
    5f8c:	e3a03001 	mov	r3, #1	; 0x1
    5f90:	e1a08000 	mov	r8, r0
    5f94:	e5803010 	str	r3, [r0, #16]
    5f98:	e5805014 	str	r5, [r0, #20]
    5f9c:	eafffff5 	b	5f78 <__mdiff+0x114>

00005fa0 <_ulp>:
    5fa0:	e52d4004 	str	r4, [sp, -#4]!
    5fa4:	e1a04001 	mov	r4, r1
    5fa8:	e1a03000 	mov	r3, r0
    5fac:	e3c03102 	bic	r3, r0, #-2147483648	; 0x80000000
    5fb0:	e1a03a23 	mov	r3, r3, lsr #20
    5fb4:	e1a03a03 	mov	r3, r3, lsl #20
    5fb8:	e243c50d 	sub	ip, r3, #54525952	; 0x3400000
    5fbc:	e35c0000 	cmp	ip, #0	; 0x0
    5fc0:	e26c3000 	rsb	r3, ip, #0	; 0x0
    5fc4:	c1a0000c 	movgt	r0, ip
    5fc8:	da000002 	ble	5fd8 <_ulp+0x38>
    5fcc:	e3a01000 	mov	r1, #0	; 0x0
    5fd0:	e8bd0010 	ldmia	sp!, {r4}
    5fd4:	e1a0f00e 	mov	pc, lr
    5fd8:	e1a0ca43 	mov	ip, r3, asr #20
    5fdc:	e35c0013 	cmp	ip, #19	; 0x13
    5fe0:	d3a03702 	movle	r3, #524288	; 0x80000
    5fe4:	d1a00c53 	movle	r0, r3, asr ip
    5fe8:	dafffff7 	ble	5fcc <_ulp+0x2c>
    5fec:	e24cc014 	sub	ip, ip, #20	; 0x14
    5ff0:	e26c201f 	rsb	r2, ip, #31	; 0x1f
    5ff4:	e3a03001 	mov	r3, #1	; 0x1
    5ff8:	e35c001e 	cmp	ip, #30	; 0x1e
    5ffc:	e1a03213 	mov	r3, r3, lsl r2
    6000:	c3a03001 	movgt	r3, #1	; 0x1
    6004:	e3a00000 	mov	r0, #0	; 0x0
    6008:	e1a01003 	mov	r1, r3
    600c:	eaffffef 	b	5fd0 <_ulp+0x30>

00006010 <_b2d>:
    6010:	e1a0c00d 	mov	ip, sp
    6014:	e92dd8f0 	stmdb	sp!, {r4, r5, r6, r7, fp, ip, lr, pc}
    6018:	e5903010 	ldr	r3, [r0, #16]
    601c:	e2807014 	add	r7, r0, #20	; 0x14
    6020:	e0875103 	add	r5, r7, r3, lsl #2
    6024:	e5356004 	ldr	r6, [r5, -#4]!
    6028:	e24cb004 	sub	fp, ip, #4	; 0x4
    602c:	e1a00006 	mov	r0, r6
    6030:	e1a04001 	mov	r4, r1
    6034:	ebfffe39 	bl	5920 <_hi0bits>
    6038:	e2603020 	rsb	r3, r0, #32	; 0x20
    603c:	e350000a 	cmp	r0, #10	; 0xa
    6040:	e1a0c000 	mov	ip, r0
    6044:	e5843000 	str	r3, [r4]
    6048:	da000012 	ble	6098 <_b2d+0x88>
    604c:	e1550007 	cmp	r5, r7
    6050:	85352004 	ldrhi	r2, [r5, -#4]!
    6054:	93a02000 	movls	r2, #0	; 0x0
    6058:	e25cc00b 	subs	ip, ip, #11	; 0xb
    605c:	038605ff 	orreq	r0, r6, #1069547520	; 0x3fc00000
    6060:	03800603 	orreq	r0, r0, #3145728	; 0x300000
    6064:	01a01002 	moveq	r1, r2
    6068:	091ba8f0 	ldmeqdb	fp, {r4, r5, r6, r7, fp, sp, pc}
    606c:	e26ce020 	rsb	lr, ip, #32	; 0x20
    6070:	e1550007 	cmp	r5, r7
    6074:	e1a03e32 	mov	r3, r2, lsr lr
    6078:	e1833c16 	orr	r3, r3, r6, lsl ip
    607c:	85156004 	ldrhi	r6, [r5, -#4]
    6080:	93a06000 	movls	r6, #0	; 0x0
    6084:	e38305ff 	orr	r0, r3, #1069547520	; 0x3fc00000
    6088:	e1a03e36 	mov	r3, r6, lsr lr
    608c:	e3800603 	orr	r0, r0, #3145728	; 0x300000
    6090:	e1831c12 	orr	r1, r3, r2, lsl ip
    6094:	e91ba8f0 	ldmdb	fp, {r4, r5, r6, r7, fp, sp, pc}
    6098:	e1550007 	cmp	r5, r7
    609c:	e260e00b 	rsb	lr, r0, #11	; 0xb
    60a0:	85152004 	ldrhi	r2, [r5, -#4]
    60a4:	e1a03e36 	mov	r3, r6, lsr lr
    60a8:	93a02000 	movls	r2, #0	; 0x0
    60ac:	e38305ff 	orr	r0, r3, #1069547520	; 0x3fc00000
    60b0:	e1a02e32 	mov	r2, r2, lsr lr
    60b4:	e28c3015 	add	r3, ip, #21	; 0x15
    60b8:	e3800603 	orr	r0, r0, #3145728	; 0x300000
    60bc:	e1821316 	orr	r1, r2, r6, lsl r3
    60c0:	e91ba8f0 	ldmdb	fp, {r4, r5, r6, r7, fp, sp, pc}

000060c4 <_d2b>:
    60c4:	e1a0c00d 	mov	ip, sp
    60c8:	e92ddff0 	stmdb	sp!, {r4, r5, r6, r7, r8, r9, sl, fp, ip, lr, pc}
    60cc:	e24cb004 	sub	fp, ip, #4	; 0x4
    60d0:	e24dd008 	sub	sp, sp, #8	; 0x8
    60d4:	e1a05002 	mov	r5, r2
    60d8:	e1a04001 	mov	r4, r1
    60dc:	e3a01001 	mov	r1, #1	; 0x1
    60e0:	e1a0a003 	mov	sl, r3
    60e4:	e59b9004 	ldr	r9, [fp, #4]
    60e8:	ebfffd75 	bl	56c4 <_Balloc>
    60ec:	e3c434ff 	bic	r3, r4, #-16777216	; 0xff000000
    60f0:	e3c44102 	bic	r4, r4, #-2147483648	; 0x80000000
    60f4:	e3c3360f 	bic	r3, r3, #15728640	; 0xf00000
    60f8:	e1b07a24 	movs	r7, r4, lsr #20
    60fc:	e50b3030 	str	r3, [fp, -#48]
    6100:	13833601 	orrne	r3, r3, #1048576	; 0x100000
    6104:	150b3030 	strne	r3, [fp, -#48]
    6108:	e3550000 	cmp	r5, #0	; 0x0
    610c:	e1a06000 	mov	r6, r0
    6110:	e2808014 	add	r8, r0, #20	; 0x14
    6114:	0a000028 	beq	61bc <_d2b+0xf8>
    6118:	e24b0028 	sub	r0, fp, #40	; 0x28
    611c:	e5205004 	str	r5, [r0, -#4]!
    6120:	ebfffe15 	bl	597c <_lo0bits>
    6124:	e3500000 	cmp	r0, #0	; 0x0
    6128:	151b2030 	ldrne	r2, [fp, -#48]
    612c:	151b302c 	ldrne	r3, [fp, -#44]
    6130:	12601020 	rsbne	r1, r0, #32	; 0x20
    6134:	11833112 	orrne	r3, r3, r2, lsl r1
    6138:	15863014 	strne	r3, [r6, #20]
    613c:	151b2030 	ldrne	r2, [fp, -#48]
    6140:	051b302c 	ldreq	r3, [fp, -#44]
    6144:	11a02032 	movne	r2, r2, lsr r0
    6148:	150b2030 	strne	r2, [fp, -#48]
    614c:	05863014 	streq	r3, [r6, #20]
    6150:	e51b3030 	ldr	r3, [fp, -#48]
    6154:	e3530000 	cmp	r3, #0	; 0x0
    6158:	03a02001 	moveq	r2, #1	; 0x1
    615c:	13a02002 	movne	r2, #2	; 0x2
    6160:	e1a04002 	mov	r4, r2
    6164:	e5883004 	str	r3, [r8, #4]
    6168:	e5862010 	str	r2, [r6, #16]
    616c:	e3570000 	cmp	r7, #0	; 0x0
    6170:	0a000007 	beq	6194 <_d2b+0xd0>
    6174:	e0873000 	add	r3, r7, r0
    6178:	e2433e43 	sub	r3, r3, #1072	; 0x430
    617c:	e2602035 	rsb	r2, r0, #53	; 0x35
    6180:	e2433003 	sub	r3, r3, #3	; 0x3
    6184:	e58a3000 	str	r3, [sl]
    6188:	e5892000 	str	r2, [r9]
    618c:	e1a00006 	mov	r0, r6
    6190:	e91baff0 	ldmdb	fp, {r4, r5, r6, r7, r8, r9, sl, fp, sp, pc}
    6194:	e2403e43 	sub	r3, r0, #1072	; 0x430
    6198:	e0882104 	add	r2, r8, r4, lsl #2
    619c:	e2433002 	sub	r3, r3, #2	; 0x2
    61a0:	e5120004 	ldr	r0, [r2, -#4]
    61a4:	e58a3000 	str	r3, [sl]
    61a8:	ebfffddc 	bl	5920 <_hi0bits>
    61ac:	e1a04284 	mov	r4, r4, lsl #5
    61b0:	e0604004 	rsb	r4, r0, r4
    61b4:	e5894000 	str	r4, [r9]
    61b8:	eafffff3 	b	618c <_d2b+0xc8>
    61bc:	e24b0030 	sub	r0, fp, #48	; 0x30
    61c0:	ebfffded 	bl	597c <_lo0bits>
    61c4:	e51b3030 	ldr	r3, [fp, -#48]
    61c8:	e3a02001 	mov	r2, #1	; 0x1
    61cc:	e5863014 	str	r3, [r6, #20]
    61d0:	e5862010 	str	r2, [r6, #16]
    61d4:	e1a04002 	mov	r4, r2
    61d8:	e2800020 	add	r0, r0, #32	; 0x20
    61dc:	eaffffe2 	b	616c <_d2b+0xa8>

000061e0 <_ratio>:
    61e0:	e1a0c00d 	mov	ip, sp
    61e4:	e92dd9f0 	stmdb	sp!, {r4, r5, r6, r7, r8, fp, ip, lr, pc}
    61e8:	e24cb004 	sub	fp, ip, #4	; 0x4
    61ec:	e24dd008 	sub	sp, sp, #8	; 0x8
    61f0:	e1a05001 	mov	r5, r1
    61f4:	e24b1024 	sub	r1, fp, #36	; 0x24
    61f8:	e1a06000 	mov	r6, r0
    61fc:	ebffff83 	bl	6010 <_b2d>
    6200:	e1a04001 	mov	r4, r1
    6204:	e1a03000 	mov	r3, r0
    6208:	e24b1028 	sub	r1, fp, #40	; 0x28
    620c:	e1a00005 	mov	r0, r5
    6210:	e1a08004 	mov	r8, r4
    6214:	e1a07003 	mov	r7, r3
    6218:	ebffff7c 	bl	6010 <_b2d>
    621c:	e5952010 	ldr	r2, [r5, #16]
    6220:	e5963010 	ldr	r3, [r6, #16]
    6224:	e24be024 	sub	lr, fp, #36	; 0x24
    6228:	e81e5000 	ldmda	lr, {ip, lr}
    622c:	e04ec00c 	sub	ip, lr, ip
    6230:	e0623003 	rsb	r3, r2, r3
    6234:	e08cc283 	add	ip, ip, r3, lsl #5
    6238:	e35c0000 	cmp	ip, #0	; 0x0
    623c:	c0877a0c 	addgt	r7, r7, ip, lsl #20
    6240:	e1a03001 	mov	r3, r1
    6244:	e1a02000 	mov	r2, r0
    6248:	d0402a0c 	suble	r2, r0, ip, lsl #20
    624c:	e1a01008 	mov	r1, r8
    6250:	e1a00007 	mov	r0, r7
    6254:	eb000991 	bl	88a0 <__divdf3>
    6258:	e91ba9f0 	ldmdb	fp, {r4, r5, r6, r7, r8, fp, sp, pc}

0000625c <_mprec_log10>:
    625c:	e1a0c00d 	mov	ip, sp
    6260:	e3500017 	cmp	r0, #23	; 0x17
    6264:	e92dd810 	stmdb	sp!, {r4, fp, ip, lr, pc}
    6268:	e1a04000 	mov	r4, r0
    626c:	e24cb004 	sub	fp, ip, #4	; 0x4
    6270:	e28f0038 	add	r0, pc, #56	; 0x38
    6274:	e8900003 	ldmia	r0, {r0, r1}
    6278:	ca000003 	bgt	628c <_mprec_log10+0x30>
    627c:	e59f303c 	ldr	r3, [pc, #60]	; 62c0 <_mprec_log10+0x64>
    6280:	e0833184 	add	r3, r3, r4, lsl #3
    6284:	e8930003 	ldmia	r3, {r0, r1}
    6288:	e91ba810 	ldmdb	fp, {r4, fp, sp, pc}
    628c:	e3540000 	cmp	r4, #0	; 0x0
    6290:	d91ba810 	ldmledb	fp, {r4, fp, sp, pc}
    6294:	e28f201c 	add	r2, pc, #28	; 0x1c
    6298:	e892000c 	ldmia	r2, {r2, r3}
    629c:	e2444001 	sub	r4, r4, #1	; 0x1
    62a0:	eb00087b 	bl	8494 <__muldf3>
    62a4:	e3540000 	cmp	r4, #0	; 0x0
    62a8:	cafffff9 	bgt	6294 <_mprec_log10+0x38>
    62ac:	e91ba810 	ldmdb	fp, {r4, fp, sp, pc}
    62b0:	3ff00000 	swicc	0x00f00000	; IMB
    62b4:	00000000 	andeq	r0, r0, r0
    62b8:	40240000 	eormi	r0, r4, r0
    62bc:	00000000 	andeq	r0, r0, r0
    62c0:	000097d8 	ldreqd	r9, [r0], -r8

000062c4 <_realloc_r>:
    62c4:	e1a0c00d 	mov	ip, sp
    62c8:	e92ddff0 	stmdb	sp!, {r4, r5, r6, r7, r8, r9, sl, fp, ip, lr, pc}
    62cc:	e3510000 	cmp	r1, #0	; 0x0
    62d0:	e24cb004 	sub	fp, ip, #4	; 0x4
    62d4:	e24dd008 	sub	sp, sp, #8	; 0x8
    62d8:	e1a07001 	mov	r7, r1
    62dc:	e1a0a002 	mov	sl, r2
    62e0:	e50b002c 	str	r0, [fp, -#44]
    62e4:	0a000116 	beq	6744 <_realloc_r+0x480>
    62e8:	e2414008 	sub	r4, r1, #8	; 0x8
    62ec:	ebfffcf2 	bl	56bc <__malloc_lock>
    62f0:	e28a200b 	add	r2, sl, #11	; 0xb
    62f4:	e3520016 	cmp	r2, #22	; 0x16
    62f8:	e594e004 	ldr	lr, [r4, #4]
    62fc:	83c29007 	bichi	r9, r2, #7	; 0x7
    6300:	93a09010 	movls	r9, #16	; 0x10
    6304:	e3ce6003 	bic	r6, lr, #3	; 0x3
    6308:	e3590000 	cmp	r9, #0	; 0x0
    630c:	e1a08004 	mov	r8, r4
    6310:	e1a05006 	mov	r5, r6
    6314:	b3a00000 	movlt	r0, #0	; 0x0
    6318:	b91baff0 	ldmltdb	fp, {r4, r5, r6, r7, r8, r9, sl, fp, sp, pc}
    631c:	e1550009 	cmp	r5, r9
    6320:	aa000065 	bge	64bc <_realloc_r+0x1f8>
    6324:	e59f2424 	ldr	r2, [pc, #1060]	; 6750 <_realloc_r+0x48c>
    6328:	e592c008 	ldr	ip, [r2, #8]
    632c:	e0880005 	add	r0, r8, r5
    6330:	e150000c 	cmp	r0, ip
    6334:	e1a06002 	mov	r6, r2
    6338:	0a0000ff 	beq	673c <_realloc_r+0x478>
    633c:	e5901004 	ldr	r1, [r0, #4]
    6340:	e3c13001 	bic	r3, r1, #1	; 0x1
    6344:	e0803003 	add	r3, r0, r3
    6348:	e5932004 	ldr	r2, [r3, #4]
    634c:	e3120001 	tst	r2, #1	; 0x1
    6350:	13a00000 	movne	r0, #0	; 0x0
    6354:	11a01000 	movne	r1, r0
    6358:	1a000005 	bne	6374 <_realloc_r+0xb0>
    635c:	e150000c 	cmp	r0, ip
    6360:	e3c11003 	bic	r1, r1, #3	; 0x3
    6364:	0a0000e3 	beq	66f8 <_realloc_r+0x434>
    6368:	e0812005 	add	r2, r1, r5
    636c:	e1520009 	cmp	r2, r9
    6370:	aa0000da 	bge	66e0 <_realloc_r+0x41c>
    6374:	e31e0001 	tst	lr, #1	; 0x1
    6378:	1a000016 	bne	63d8 <_realloc_r+0x114>
    637c:	e5983000 	ldr	r3, [r8]
    6380:	e0636008 	rsb	r6, r3, r8
    6384:	e5962004 	ldr	r2, [r6, #4]
    6388:	e3500000 	cmp	r0, #0	; 0x0
    638c:	e3c2c003 	bic	ip, r2, #3	; 0x3
    6390:	0a00000b 	beq	63c4 <_realloc_r+0x100>
    6394:	e59f23b4 	ldr	r2, [pc, #948]	; 6750 <_realloc_r+0x48c>
    6398:	e5923008 	ldr	r3, [r2, #8]
    639c:	e1500003 	cmp	r0, r3
    63a0:	0a000090 	beq	65e8 <_realloc_r+0x324>
    63a4:	e081300c 	add	r3, r1, ip
    63a8:	e0832005 	add	r2, r3, r5
    63ac:	e1520009 	cmp	r2, r9
    63b0:	a5901008 	ldrge	r1, [r0, #8]
    63b4:	a590300c 	ldrge	r3, [r0, #12]
    63b8:	a5831008 	strge	r1, [r3, #8]
    63bc:	a581300c 	strge	r3, [r1, #12]
    63c0:	aa00005b 	bge	6534 <_realloc_r+0x270>
    63c4:	e3560000 	cmp	r6, #0	; 0x0
    63c8:	0a000002 	beq	63d8 <_realloc_r+0x114>
    63cc:	e08c2005 	add	r2, ip, r5
    63d0:	e1520009 	cmp	r2, r9
    63d4:	aa000056 	bge	6534 <_realloc_r+0x270>
    63d8:	e1a0100a 	mov	r1, sl
    63dc:	e51b002c 	ldr	r0, [fp, -#44]
    63e0:	ebfffac9 	bl	4f0c <_malloc_r>
    63e4:	e3500000 	cmp	r0, #0	; 0x0
    63e8:	e1a0a000 	mov	sl, r0
    63ec:	0a00002a 	beq	649c <_realloc_r+0x1d8>
    63f0:	e5983004 	ldr	r3, [r8, #4]
    63f4:	e3c33001 	bic	r3, r3, #1	; 0x1
    63f8:	e0883003 	add	r3, r8, r3
    63fc:	e2404008 	sub	r4, r0, #8	; 0x8
    6400:	e1540003 	cmp	r4, r3
    6404:	05943004 	ldreq	r3, [r4, #4]
    6408:	03c33003 	biceq	r3, r3, #3	; 0x3
    640c:	00856003 	addeq	r6, r5, r3
    6410:	01a04008 	moveq	r4, r8
    6414:	0a000028 	beq	64bc <_realloc_r+0x1f8>
    6418:	e245c004 	sub	ip, r5, #4	; 0x4
    641c:	e35c0024 	cmp	ip, #36	; 0x24
    6420:	8a000021 	bhi	64ac <_realloc_r+0x1e8>
    6424:	e35c0013 	cmp	ip, #19	; 0x13
    6428:	e1a00007 	mov	r0, r7
    642c:	e1a0100a 	mov	r1, sl
    6430:	9a000010 	bls	6478 <_realloc_r+0x1b4>
    6434:	e4903004 	ldr	r3, [r0], #4
    6438:	e4813004 	str	r3, [r1], #4
    643c:	e5972004 	ldr	r2, [r7, #4]
    6440:	e35c001b 	cmp	ip, #27	; 0x1b
    6444:	e58a2004 	str	r2, [sl, #4]
    6448:	e2800004 	add	r0, r0, #4	; 0x4
    644c:	e2811004 	add	r1, r1, #4	; 0x4
    6450:	9a000008 	bls	6478 <_realloc_r+0x1b4>
    6454:	e4903004 	ldr	r3, [r0], #4
    6458:	e4813004 	str	r3, [r1], #4
    645c:	e4902004 	ldr	r2, [r0], #4
    6460:	e4812004 	str	r2, [r1], #4
    6464:	e35c0023 	cmp	ip, #35	; 0x23
    6468:	84903004 	ldrhi	r3, [r0], #4
    646c:	84813004 	strhi	r3, [r1], #4
    6470:	84902004 	ldrhi	r2, [r0], #4
    6474:	84812004 	strhi	r2, [r1], #4
    6478:	e4903004 	ldr	r3, [r0], #4
    647c:	e4813004 	str	r3, [r1], #4
    6480:	e4902004 	ldr	r2, [r0], #4
    6484:	e4812004 	str	r2, [r1], #4
    6488:	e5903000 	ldr	r3, [r0]
    648c:	e5813000 	str	r3, [r1]
    6490:	e1a01007 	mov	r1, r7
    6494:	e51b002c 	ldr	r0, [fp, -#44]
    6498:	ebfff7cf 	bl	43dc <_free_r>
    649c:	e51b002c 	ldr	r0, [fp, -#44]
    64a0:	ebfffc86 	bl	56c0 <__malloc_unlock>
    64a4:	e1a0000a 	mov	r0, sl
    64a8:	e91baff0 	ldmdb	fp, {r4, r5, r6, r7, r8, r9, sl, fp, sp, pc}
    64ac:	e1a0200c 	mov	r2, ip
    64b0:	e1a01007 	mov	r1, r7
    64b4:	ebfffc06 	bl	54d4 <memcpy>
    64b8:	eafffff4 	b	6490 <_realloc_r+0x1cc>
    64bc:	e0690006 	rsb	r0, r9, r6
    64c0:	e350000f 	cmp	r0, #15	; 0xf
    64c4:	8a00000b 	bhi	64f8 <_realloc_r+0x234>
    64c8:	e5943004 	ldr	r3, [r4, #4]
    64cc:	e2033001 	and	r3, r3, #1	; 0x1
    64d0:	e1833006 	orr	r3, r3, r6
    64d4:	e5843004 	str	r3, [r4, #4]
    64d8:	e0842006 	add	r2, r4, r6
    64dc:	e5923004 	ldr	r3, [r2, #4]
    64e0:	e3833001 	orr	r3, r3, #1	; 0x1
    64e4:	e5823004 	str	r3, [r2, #4]
    64e8:	e51b002c 	ldr	r0, [fp, -#44]
    64ec:	ebfffc73 	bl	56c0 <__malloc_unlock>
    64f0:	e2840008 	add	r0, r4, #8	; 0x8
    64f4:	e91baff0 	ldmdb	fp, {r4, r5, r6, r7, r8, r9, sl, fp, sp, pc}
    64f8:	e5943004 	ldr	r3, [r4, #4]
    64fc:	e2033001 	and	r3, r3, #1	; 0x1
    6500:	e0841009 	add	r1, r4, r9
    6504:	e1833009 	orr	r3, r3, r9
    6508:	e3802001 	orr	r2, r0, #1	; 0x1
    650c:	e5843004 	str	r3, [r4, #4]
    6510:	e5812004 	str	r2, [r1, #4]
    6514:	e0810000 	add	r0, r1, r0
    6518:	e5903004 	ldr	r3, [r0, #4]
    651c:	e3833001 	orr	r3, r3, #1	; 0x1
    6520:	e5803004 	str	r3, [r0, #4]
    6524:	e2811008 	add	r1, r1, #8	; 0x8
    6528:	e51b002c 	ldr	r0, [fp, -#44]
    652c:	ebfff7aa 	bl	43dc <_free_r>
    6530:	eaffffec 	b	64e8 <_realloc_r+0x224>
    6534:	e2861008 	add	r1, r6, #8	; 0x8
    6538:	e891000a 	ldmia	r1, {r1, r3}
    653c:	e245e004 	sub	lr, r5, #4	; 0x4
    6540:	e1a04006 	mov	r4, r6
    6544:	e35e0024 	cmp	lr, #36	; 0x24
    6548:	e5831008 	str	r1, [r3, #8]
    654c:	e581300c 	str	r3, [r1, #12]
    6550:	e1a06002 	mov	r6, r2
    6554:	e284a008 	add	sl, r4, #8	; 0x8
    6558:	8a00001d 	bhi	65d4 <_realloc_r+0x310>
    655c:	e35e0013 	cmp	lr, #19	; 0x13
    6560:	e1a0000a 	mov	r0, sl
    6564:	e1a0c007 	mov	ip, r7
    6568:	9a000012 	bls	65b8 <_realloc_r+0x2f4>
    656c:	e49c3004 	ldr	r3, [ip], #4
    6570:	e5843008 	str	r3, [r4, #8]
    6574:	e5972004 	ldr	r2, [r7, #4]
    6578:	e35e001b 	cmp	lr, #27	; 0x1b
    657c:	e584200c 	str	r2, [r4, #12]
    6580:	e28cc004 	add	ip, ip, #4	; 0x4
    6584:	e2840010 	add	r0, r4, #16	; 0x10
    6588:	9a00000a 	bls	65b8 <_realloc_r+0x2f4>
    658c:	e49c3004 	ldr	r3, [ip], #4
    6590:	e5843010 	str	r3, [r4, #16]
    6594:	e49c2004 	ldr	r2, [ip], #4
    6598:	e5842014 	str	r2, [r4, #20]
    659c:	e35e0023 	cmp	lr, #35	; 0x23
    65a0:	849c3004 	ldrhi	r3, [ip], #4
    65a4:	85843018 	strhi	r3, [r4, #24]
    65a8:	849c2004 	ldrhi	r2, [ip], #4
    65ac:	8584201c 	strhi	r2, [r4, #28]
    65b0:	e2840018 	add	r0, r4, #24	; 0x18
    65b4:	82840020 	addhi	r0, r4, #32	; 0x20
    65b8:	e49c3004 	ldr	r3, [ip], #4
    65bc:	e4803004 	str	r3, [r0], #4
    65c0:	e49c2004 	ldr	r2, [ip], #4
    65c4:	e4802004 	str	r2, [r0], #4
    65c8:	e59c3000 	ldr	r3, [ip]
    65cc:	e5803000 	str	r3, [r0]
    65d0:	eaffffb9 	b	64bc <_realloc_r+0x1f8>
    65d4:	e1a0000a 	mov	r0, sl
    65d8:	e1a01007 	mov	r1, r7
    65dc:	e1a0200e 	mov	r2, lr
    65e0:	ebfffbbb 	bl	54d4 <memcpy>
    65e4:	eaffffb4 	b	64bc <_realloc_r+0x1f8>
    65e8:	e081300c 	add	r3, r1, ip
    65ec:	e0833005 	add	r3, r3, r5
    65f0:	e2892010 	add	r2, r9, #16	; 0x10
    65f4:	e1530002 	cmp	r3, r2
    65f8:	e50b3030 	str	r3, [fp, -#48]
    65fc:	baffff70 	blt	63c4 <_realloc_r+0x100>
    6600:	e2861008 	add	r1, r6, #8	; 0x8
    6604:	e891000a 	ldmia	r1, {r1, r3}
    6608:	e245c004 	sub	ip, r5, #4	; 0x4
    660c:	e35c0024 	cmp	ip, #36	; 0x24
    6610:	e1a04006 	mov	r4, r6
    6614:	e5831008 	str	r1, [r3, #8]
    6618:	e581300c 	str	r3, [r1, #12]
    661c:	e286a008 	add	sl, r6, #8	; 0x8
    6620:	8a000029 	bhi	66cc <_realloc_r+0x408>
    6624:	e35c0013 	cmp	ip, #19	; 0x13
    6628:	e1a00007 	mov	r0, r7
    662c:	e1a0100a 	mov	r1, sl
    6630:	9a000012 	bls	6680 <_realloc_r+0x3bc>
    6634:	e4903004 	ldr	r3, [r0], #4
    6638:	e5863008 	str	r3, [r6, #8]
    663c:	e5972004 	ldr	r2, [r7, #4]
    6640:	e35c001b 	cmp	ip, #27	; 0x1b
    6644:	e586200c 	str	r2, [r6, #12]
    6648:	e2800004 	add	r0, r0, #4	; 0x4
    664c:	e2861010 	add	r1, r6, #16	; 0x10
    6650:	9a00000a 	bls	6680 <_realloc_r+0x3bc>
    6654:	e4903004 	ldr	r3, [r0], #4
    6658:	e5863010 	str	r3, [r6, #16]
    665c:	e4902004 	ldr	r2, [r0], #4
    6660:	e5862014 	str	r2, [r6, #20]
    6664:	e35c0023 	cmp	ip, #35	; 0x23
    6668:	84903004 	ldrhi	r3, [r0], #4
    666c:	85863018 	strhi	r3, [r6, #24]
    6670:	84902004 	ldrhi	r2, [r0], #4
    6674:	8586201c 	strhi	r2, [r6, #28]
    6678:	e2861018 	add	r1, r6, #24	; 0x18
    667c:	82861020 	addhi	r1, r6, #32	; 0x20
    6680:	e4903004 	ldr	r3, [r0], #4
    6684:	e4813004 	str	r3, [r1], #4
    6688:	e4902004 	ldr	r2, [r0], #4
    668c:	e4812004 	str	r2, [r1], #4
    6690:	e5903000 	ldr	r3, [r0]
    6694:	e5813000 	str	r3, [r1]
    6698:	e51b2030 	ldr	r2, [fp, -#48]
    669c:	e0693002 	rsb	r3, r9, r2
    66a0:	e3833001 	orr	r3, r3, #1	; 0x1
    66a4:	e0861009 	add	r1, r6, r9
    66a8:	e5813004 	str	r3, [r1, #4]
    66ac:	e5962004 	ldr	r2, [r6, #4]
    66b0:	e59f3098 	ldr	r3, [pc, #152]	; 6750 <_realloc_r+0x48c>
    66b4:	e2022001 	and	r2, r2, #1	; 0x1
    66b8:	e51b002c 	ldr	r0, [fp, -#44]
    66bc:	e1822009 	orr	r2, r2, r9
    66c0:	e5862004 	str	r2, [r6, #4]
    66c4:	e5831008 	str	r1, [r3, #8]
    66c8:	eaffff74 	b	64a0 <_realloc_r+0x1dc>
    66cc:	e1a01007 	mov	r1, r7
    66d0:	e1a0200c 	mov	r2, ip
    66d4:	e1a0000a 	mov	r0, sl
    66d8:	ebfffb7d 	bl	54d4 <memcpy>
    66dc:	eaffffed 	b	6698 <_realloc_r+0x3d4>
    66e0:	e2801008 	add	r1, r0, #8	; 0x8
    66e4:	e891000a 	ldmia	r1, {r1, r3}
    66e8:	e1a06002 	mov	r6, r2
    66ec:	e5831008 	str	r1, [r3, #8]
    66f0:	e581300c 	str	r3, [r1, #12]
    66f4:	eaffff70 	b	64bc <_realloc_r+0x1f8>
    66f8:	e0812005 	add	r2, r1, r5
    66fc:	e2893010 	add	r3, r9, #16	; 0x10
    6700:	e1520003 	cmp	r2, r3
    6704:	baffff1a 	blt	6374 <_realloc_r+0xb0>
    6708:	e0693002 	rsb	r3, r9, r2
    670c:	e0881009 	add	r1, r8, r9
    6710:	e3833001 	orr	r3, r3, #1	; 0x1
    6714:	e5813004 	str	r3, [r1, #4]
    6718:	e5982004 	ldr	r2, [r8, #4]
    671c:	e2022001 	and	r2, r2, #1	; 0x1
    6720:	e1822009 	orr	r2, r2, r9
    6724:	e51b002c 	ldr	r0, [fp, -#44]
    6728:	e5882004 	str	r2, [r8, #4]
    672c:	e5861008 	str	r1, [r6, #8]
    6730:	ebfffbe2 	bl	56c0 <__malloc_unlock>
    6734:	e2880008 	add	r0, r8, #8	; 0x8
    6738:	e91baff0 	ldmdb	fp, {r4, r5, r6, r7, r8, r9, sl, fp, sp, pc}
    673c:	e5901004 	ldr	r1, [r0, #4]
    6740:	eaffff05 	b	635c <_realloc_r+0x98>
    6744:	e1a01002 	mov	r1, r2
    6748:	e91b6ff0 	ldmdb	fp, {r4, r5, r6, r7, r8, r9, sl, fp, sp, lr}
    674c:	eafff9ee 	b	4f0c <_malloc_r>
    6750:	400003b4 	strmih	r0, [r0], -r4

00006754 <isinf>:
    6754:	e2613000 	rsb	r3, r1, #0	; 0x0
    6758:	e1833001 	orr	r3, r3, r1
    675c:	e3c00102 	bic	r0, r0, #-2147483648	; 0x80000000
    6760:	e1800fa3 	orr	r0, r0, r3, lsr #31
    6764:	e260047f 	rsb	r0, r0, #2130706432	; 0x7f000000
    6768:	e280060f 	add	r0, r0, #15728640	; 0xf00000
    676c:	e2603000 	rsb	r3, r0, #0	; 0x0
    6770:	e1800003 	orr	r0, r0, r3
    6774:	e1a00fa0 	mov	r0, r0, lsr #31
    6778:	e2600001 	rsb	r0, r0, #1	; 0x1
    677c:	e1a0f00e 	mov	pc, lr

00006780 <isnan>:
    6780:	e2613000 	rsb	r3, r1, #0	; 0x0
    6784:	e1833001 	orr	r3, r3, r1
    6788:	e3c00102 	bic	r0, r0, #-2147483648	; 0x80000000
    678c:	e1800fa3 	orr	r0, r0, r3, lsr #31
    6790:	e260047f 	rsb	r0, r0, #2130706432	; 0x7f000000
    6794:	e280060f 	add	r0, r0, #15728640	; 0xf00000
    6798:	e1a00fa0 	mov	r0, r0, lsr #31
    679c:	e1a0f00e 	mov	pc, lr

000067a0 <__sread>:
    67a0:	e1a0c00d 	mov	ip, sp
    67a4:	e92dd810 	stmdb	sp!, {r4, fp, ip, lr, pc}
    67a8:	e1a04000 	mov	r4, r0
    67ac:	e24cb004 	sub	fp, ip, #4	; 0x4
    67b0:	e1d4c0fe 	ldrsh	ip, [r4, #14]
    67b4:	e1a0e001 	mov	lr, r1
    67b8:	e1a03002 	mov	r3, r2
    67bc:	e1a0100c 	mov	r1, ip
    67c0:	e1a0200e 	mov	r2, lr
    67c4:	e5900054 	ldr	r0, [r0, #84]
    67c8:	eb0002e7 	bl	736c <_read_r>
    67cc:	e3500000 	cmp	r0, #0	; 0x0
    67d0:	a5943050 	ldrge	r3, [r4, #80]
    67d4:	b1d430bc 	ldrlth	r3, [r4, #12]
    67d8:	a0833000 	addge	r3, r3, r0
    67dc:	b3c33a01 	biclt	r3, r3, #4096	; 0x1000
    67e0:	a5843050 	strge	r3, [r4, #80]
    67e4:	b1c430bc 	strlth	r3, [r4, #12]
    67e8:	e91ba810 	ldmdb	fp, {r4, fp, sp, pc}

000067ec <__swrite>:
    67ec:	e1a0c00d 	mov	ip, sp
    67f0:	e92dd870 	stmdb	sp!, {r4, r5, r6, fp, ip, lr, pc}
    67f4:	e24cb004 	sub	fp, ip, #4	; 0x4
    67f8:	e1d0c0bc 	ldrh	ip, [r0, #12]
    67fc:	e31c0c01 	tst	ip, #256	; 0x100
    6800:	e1a06002 	mov	r6, r2
    6804:	e1a04000 	mov	r4, r0
    6808:	e3a03002 	mov	r3, #2	; 0x2
    680c:	e1a05001 	mov	r5, r1
    6810:	e3a02000 	mov	r2, #0	; 0x0
    6814:	1a000007 	bne	6838 <__swrite+0x4c>
    6818:	e1d410fe 	ldrsh	r1, [r4, #14]
    681c:	e5940054 	ldr	r0, [r4, #84]
    6820:	e3ccca01 	bic	ip, ip, #4096	; 0x1000
    6824:	e1a02005 	mov	r2, r5
    6828:	e1a03006 	mov	r3, r6
    682c:	e1c4c0bc 	strh	ip, [r4, #12]
    6830:	e91b6870 	ldmdb	fp, {r4, r5, r6, fp, sp, lr}
    6834:	ea00025c 	b	71ac <_write_r>
    6838:	e5900054 	ldr	r0, [r0, #84]
    683c:	e1d410fe 	ldrsh	r1, [r4, #14]
    6840:	eb0002b6 	bl	7320 <_lseek_r>
    6844:	e1d4c0bc 	ldrh	ip, [r4, #12]
    6848:	eafffff2 	b	6818 <__swrite+0x2c>

0000684c <__sseek>:
    684c:	e1a0c00d 	mov	ip, sp
    6850:	e92dd810 	stmdb	sp!, {r4, fp, ip, lr, pc}
    6854:	e1a04000 	mov	r4, r0
    6858:	e24cb004 	sub	fp, ip, #4	; 0x4
    685c:	e1d4c0fe 	ldrsh	ip, [r4, #14]
    6860:	e1a0e001 	mov	lr, r1
    6864:	e1a03002 	mov	r3, r2
    6868:	e1a0100c 	mov	r1, ip
    686c:	e1a0200e 	mov	r2, lr
    6870:	e5900054 	ldr	r0, [r0, #84]
    6874:	eb0002a9 	bl	7320 <_lseek_r>
    6878:	e3700001 	cmn	r0, #1	; 0x1
    687c:	01d430bc 	ldreqh	r3, [r4, #12]
    6880:	11d430bc 	ldrneh	r3, [r4, #12]
    6884:	03c33a01 	biceq	r3, r3, #4096	; 0x1000
    6888:	13833a01 	orrne	r3, r3, #4096	; 0x1000
    688c:	15840050 	strne	r0, [r4, #80]
    6890:	e1c430bc 	strh	r3, [r4, #12]
    6894:	e91ba810 	ldmdb	fp, {r4, fp, sp, pc}

00006898 <__sclose>:
    6898:	e1d010fe 	ldrsh	r1, [r0, #14]
    689c:	e5900054 	ldr	r0, [r0, #84]
    68a0:	ea000278 	b	7288 <_close_r>

000068a4 <strcmp>:
    68a4:	e1803001 	orr	r3, r0, r1
    68a8:	e3130003 	tst	r3, #3	; 0x3
    68ac:	e1a02000 	mov	r2, r0
    68b0:	1a000004 	bne	68c8 <strcmp+0x24>
    68b4:	e5902000 	ldr	r2, [r0]
    68b8:	e5913000 	ldr	r3, [r1]
    68bc:	e1520003 	cmp	r2, r3
    68c0:	0a000014 	beq	6918 <strcmp+0x74>
    68c4:	e1a02000 	mov	r2, r0
    68c8:	e5d2c000 	ldrb	ip, [r2]
    68cc:	e20c30ff 	and	r3, ip, #255	; 0xff
    68d0:	e3530000 	cmp	r3, #0	; 0x0
    68d4:	0a00000d 	beq	6910 <strcmp+0x6c>
    68d8:	e5d10000 	ldrb	r0, [r1]
    68dc:	e1530000 	cmp	r3, r0
    68e0:	0a000001 	beq	68ec <strcmp+0x48>
    68e4:	e060000c 	rsb	r0, r0, ip
    68e8:	e1a0f00e 	mov	pc, lr
    68ec:	e5f2c001 	ldrb	ip, [r2, #1]!
    68f0:	e20c30ff 	and	r3, ip, #255	; 0xff
    68f4:	e3530000 	cmp	r3, #0	; 0x0
    68f8:	e2811001 	add	r1, r1, #1	; 0x1
    68fc:	0a000003 	beq	6910 <strcmp+0x6c>
    6900:	e5d10000 	ldrb	r0, [r1]
    6904:	e1530000 	cmp	r3, r0
    6908:	0afffff7 	beq	68ec <strcmp+0x48>
    690c:	eafffff4 	b	68e4 <strcmp+0x40>
    6910:	e5d10000 	ldrb	r0, [r1]
    6914:	eafffff2 	b	68e4 <strcmp+0x40>
    6918:	e1a0c002 	mov	ip, r2
    691c:	e28c34ff 	add	r3, ip, #-16777216	; 0xff000000
    6920:	e2433801 	sub	r3, r3, #65536	; 0x10000
    6924:	e2433c01 	sub	r3, r3, #256	; 0x100
    6928:	e2433001 	sub	r3, r3, #1	; 0x1
    692c:	e1c3300c 	bic	r3, r3, ip
    6930:	e3c3347f 	bic	r3, r3, #2130706432	; 0x7f000000
    6934:	e3c3387f 	bic	r3, r3, #8323072	; 0x7f0000
    6938:	e3c33c7f 	bic	r3, r3, #32512	; 0x7f00
    693c:	e3c3307f 	bic	r3, r3, #127	; 0x7f
    6940:	e3530000 	cmp	r3, #0	; 0x0
    6944:	13a00000 	movne	r0, #0	; 0x0
    6948:	11a0f00e 	movne	pc, lr
    694c:	e5b03004 	ldr	r3, [r0, #4]!
    6950:	e5b12004 	ldr	r2, [r1, #4]!
    6954:	e1530002 	cmp	r3, r2
    6958:	e1a0c003 	mov	ip, r3
    695c:	0affffee 	beq	691c <strcmp+0x78>
    6960:	eaffffd7 	b	68c4 <strcmp+0x20>

00006964 <strlen>:
    6964:	e3100003 	tst	r0, #3	; 0x3
    6968:	e1a01000 	mov	r1, r0
    696c:	1a000017 	bne	69d0 <strlen+0x6c>
    6970:	e5902000 	ldr	r2, [r0]
    6974:	e28234ff 	add	r3, r2, #-16777216	; 0xff000000
    6978:	e2433801 	sub	r3, r3, #65536	; 0x10000
    697c:	e2433c01 	sub	r3, r3, #256	; 0x100
    6980:	e2433001 	sub	r3, r3, #1	; 0x1
    6984:	e1c33002 	bic	r3, r3, r2
    6988:	e3c3347f 	bic	r3, r3, #2130706432	; 0x7f000000
    698c:	e3c3387f 	bic	r3, r3, #8323072	; 0x7f0000
    6990:	e3c33c7f 	bic	r3, r3, #32512	; 0x7f00
    6994:	e3c3307f 	bic	r3, r3, #127	; 0x7f
    6998:	e3530000 	cmp	r3, #0	; 0x0
    699c:	1a00000b 	bne	69d0 <strlen+0x6c>
    69a0:	e5b02004 	ldr	r2, [r0, #4]!
    69a4:	e28234ff 	add	r3, r2, #-16777216	; 0xff000000
    69a8:	e2433801 	sub	r3, r3, #65536	; 0x10000
    69ac:	e2433c01 	sub	r3, r3, #256	; 0x100
    69b0:	e2433001 	sub	r3, r3, #1	; 0x1
    69b4:	e1c33002 	bic	r3, r3, r2
    69b8:	e3c3347f 	bic	r3, r3, #2130706432	; 0x7f000000
    69bc:	e3c3387f 	bic	r3, r3, #8323072	; 0x7f0000
    69c0:	e3c33c7f 	bic	r3, r3, #32512	; 0x7f00
    69c4:	e3c3307f 	bic	r3, r3, #127	; 0x7f
    69c8:	e3530000 	cmp	r3, #0	; 0x0
    69cc:	0afffff3 	beq	69a0 <strlen+0x3c>
    69d0:	e5d03000 	ldrb	r3, [r0]
    69d4:	e3530000 	cmp	r3, #0	; 0x0
    69d8:	0a000002 	beq	69e8 <strlen+0x84>
    69dc:	e5f03001 	ldrb	r3, [r0, #1]!
    69e0:	e3530000 	cmp	r3, #0	; 0x0
    69e4:	1afffffc 	bne	69dc <strlen+0x78>
    69e8:	e0610000 	rsb	r0, r1, r0
    69ec:	e1a0f00e 	mov	pc, lr

000069f0 <findslot>:
    69f0:	e59f1020 	ldr	r1, [pc, #32]	; 6a18 <findslot+0x28>
    69f4:	e1a02000 	mov	r2, r0
    69f8:	e3a00000 	mov	r0, #0	; 0x0
    69fc:	e7913180 	ldr	r3, [r1, r0, lsl #3]
    6a00:	e1530002 	cmp	r3, r2
    6a04:	01a0f00e 	moveq	pc, lr
    6a08:	e2800001 	add	r0, r0, #1	; 0x1
    6a0c:	e3500013 	cmp	r0, #19	; 0x13
    6a10:	dafffff9 	ble	69fc <findslot+0xc>
    6a14:	e1a0f00e 	mov	pc, lr
    6a18:	40000840 	andmi	r0, r0, r0, asr #16

00006a1c <remap_handle>:
    6a1c:	e1a0c00d 	mov	ip, sp
    6a20:	e92dd870 	stmdb	sp!, {r4, r5, r6, fp, ip, lr, pc}
    6a24:	e59f610c 	ldr	r6, [pc, #268]	; 6b38 <remap_handle+0x11c>
    6a28:	e5963000 	ldr	r3, [r6]
    6a2c:	e3530000 	cmp	r3, #0	; 0x0
    6a30:	e24cb004 	sub	fp, ip, #4	; 0x4
    6a34:	e1a04000 	mov	r4, r0
    6a38:	159f50fc 	ldrne	r5, [pc, #252]	; 6b3c <remap_handle+0x120>
    6a3c:	1a000020 	bne	6ac4 <remap_handle+0xa8>
    6a40:	e59f50f4 	ldr	r5, [pc, #244]	; 6b3c <remap_handle+0x120>
    6a44:	e5951000 	ldr	r1, [r5]
    6a48:	e5912004 	ldr	r2, [r1, #4]
    6a4c:	e5923054 	ldr	r3, [r2, #84]
    6a50:	e3530000 	cmp	r3, #0	; 0x0
    6a54:	05821054 	streq	r1, [r2, #84]
    6a58:	e5913004 	ldr	r3, [r1, #4]
    6a5c:	e5930054 	ldr	r0, [r3, #84]
    6a60:	e5902038 	ldr	r2, [r0, #56]
    6a64:	e3520000 	cmp	r2, #0	; 0x0
    6a68:	0a00002f 	beq	6b2c <remap_handle+0x110>
    6a6c:	e5912008 	ldr	r2, [r1, #8]
    6a70:	e5923054 	ldr	r3, [r2, #84]
    6a74:	e3530000 	cmp	r3, #0	; 0x0
    6a78:	05821054 	streq	r1, [r2, #84]
    6a7c:	05951000 	ldreq	r1, [r5]
    6a80:	e5913008 	ldr	r3, [r1, #8]
    6a84:	e5930054 	ldr	r0, [r3, #84]
    6a88:	e5902038 	ldr	r2, [r0, #56]
    6a8c:	e3520000 	cmp	r2, #0	; 0x0
    6a90:	0a000022 	beq	6b20 <remap_handle+0x104>
    6a94:	e591200c 	ldr	r2, [r1, #12]
    6a98:	e5923054 	ldr	r3, [r2, #84]
    6a9c:	e3530000 	cmp	r3, #0	; 0x0
    6aa0:	05821054 	streq	r1, [r2, #84]
    6aa4:	05951000 	ldreq	r1, [r5]
    6aa8:	e591300c 	ldr	r3, [r1, #12]
    6aac:	e5930054 	ldr	r0, [r3, #84]
    6ab0:	e5902038 	ldr	r2, [r0, #56]
    6ab4:	e3520000 	cmp	r2, #0	; 0x0
    6ab8:	0a000016 	beq	6b18 <remap_handle+0xfc>
    6abc:	e3a03001 	mov	r3, #1	; 0x1
    6ac0:	e5863000 	str	r3, [r6]
    6ac4:	e5951000 	ldr	r1, [r5]
    6ac8:	e5913004 	ldr	r3, [r1, #4]
    6acc:	e1d320fe 	ldrsh	r2, [r3, #14]
    6ad0:	e1540002 	cmp	r4, r2
    6ad4:	059f3064 	ldreq	r3, [pc, #100]	; 6b40 <remap_handle+0x124>
    6ad8:	0a00000a 	beq	6b08 <remap_handle+0xec>
    6adc:	e5913008 	ldr	r3, [r1, #8]
    6ae0:	e1d320fe 	ldrsh	r2, [r3, #14]
    6ae4:	e1540002 	cmp	r4, r2
    6ae8:	0a000008 	beq	6b10 <remap_handle+0xf4>
    6aec:	e591300c 	ldr	r3, [r1, #12]
    6af0:	e1d320fe 	ldrsh	r2, [r3, #14]
    6af4:	e1540002 	cmp	r4, r2
    6af8:	059f3044 	ldreq	r3, [pc, #68]	; 6b44 <remap_handle+0x128>
    6afc:	0a000001 	beq	6b08 <remap_handle+0xec>
    6b00:	e2440020 	sub	r0, r4, #32	; 0x20
    6b04:	e91ba870 	ldmdb	fp, {r4, r5, r6, fp, sp, pc}
    6b08:	e5930000 	ldr	r0, [r3]
    6b0c:	e91ba870 	ldmdb	fp, {r4, r5, r6, fp, sp, pc}
    6b10:	e59f3030 	ldr	r3, [pc, #48]	; 6b48 <remap_handle+0x12c>
    6b14:	eafffffb 	b	6b08 <remap_handle+0xec>
    6b18:	ebfff610 	bl	4360 <__sinit>
    6b1c:	eaffffe6 	b	6abc <remap_handle+0xa0>
    6b20:	ebfff60e 	bl	4360 <__sinit>
    6b24:	e5951000 	ldr	r1, [r5]
    6b28:	eaffffd9 	b	6a94 <remap_handle+0x78>
    6b2c:	ebfff60b 	bl	4360 <__sinit>
    6b30:	e5951000 	ldr	r1, [r5]
    6b34:	eaffffcc 	b	6a6c <remap_handle+0x50>
    6b38:	40000830 	andmi	r0, r0, r0, lsr r8
    6b3c:	4000039c 	mulmi	r0, ip, r3
    6b40:	40000834 	andmi	r0, r0, r4, lsr r8
    6b44:	4000083c 	andmi	r0, r0, ip, lsr r8
    6b48:	40000838 	andmi	r0, r0, r8, lsr r8

00006b4c <initialise_monitor_handles>:
    6b4c:	e92d47f0 	stmdb	sp!, {r4, r5, r6, r7, r8, r9, sl, lr}
    6b50:	e59f7088 	ldr	r7, [pc, #136]	; 6be0 <initialise_monitor_handles+0x94>
    6b54:	e24dd00c 	sub	sp, sp, #12	; 0xc
    6b58:	e3a08003 	mov	r8, #3	; 0x3
    6b5c:	e3a0a000 	mov	sl, #0	; 0x0
    6b60:	e58d7000 	str	r7, [sp]
    6b64:	e59f9078 	ldr	r9, [pc, #120]	; 6be4 <initialise_monitor_handles+0x98>
    6b68:	e58d8008 	str	r8, [sp, #8]
    6b6c:	e3a04001 	mov	r4, #1	; 0x1
    6b70:	e58da004 	str	sl, [sp, #4]
    6b74:	e1a0600d 	mov	r6, sp
    6b78:	e1a00004 	mov	r0, r4
    6b7c:	e3a03004 	mov	r3, #4	; 0x4
    6b80:	e58d7000 	str	r7, [sp]
    6b84:	e5895000 	str	r5, [r9]
    6b88:	e58d8008 	str	r8, [sp, #8]
    6b8c:	e59f7054 	ldr	r7, [pc, #84]	; 6be8 <initialise_monitor_handles+0x9c>
    6b90:	e58d3004 	str	r3, [sp, #4]
    6b94:	e1a00004 	mov	r0, r4
    6b98:	e59f504c 	ldr	r5, [pc, #76]	; 6bec <initialise_monitor_handles+0xa0>
    6b9c:	e5874000 	str	r4, [r7]
    6ba0:	e5854000 	str	r4, [r5]
    6ba4:	e59f0044 	ldr	r0, [pc, #68]	; 6bf0 <initialise_monitor_handles+0xa4>
    6ba8:	e3e03000 	mvn	r3, #0	; 0x0
    6bac:	e780318a 	str	r3, [r0, sl, lsl #3]
    6bb0:	e28aa001 	add	sl, sl, #1	; 0x1
    6bb4:	e35a0013 	cmp	sl, #19	; 0x13
    6bb8:	dafffffb 	ble	6bac <initialise_monitor_handles+0x60>
    6bbc:	e5971000 	ldr	r1, [r7]
    6bc0:	e5993000 	ldr	r3, [r9]
    6bc4:	e3a02000 	mov	r2, #0	; 0x0
    6bc8:	e580200c 	str	r2, [r0, #12]
    6bcc:	e5803000 	str	r3, [r0]
    6bd0:	e5801008 	str	r1, [r0, #8]
    6bd4:	e5802004 	str	r2, [r0, #4]
    6bd8:	e28dd00c 	add	sp, sp, #12	; 0xc
    6bdc:	e8bd87f0 	ldmia	sp!, {r4, r5, r6, r7, r8, r9, sl, pc}
    6be0:	00009ad0 	ldreqd	r9, [r0], -r0
    6be4:	40000834 	andmi	r0, r0, r4, lsr r8
    6be8:	40000838 	andmi	r0, r0, r8, lsr r8
    6bec:	4000083c 	andmi	r0, r0, ip, lsr r8
    6bf0:	40000840 	andmi	r0, r0, r0, asr #16

00006bf4 <get_errno>:
    6bf4:	e92d4030 	stmdb	sp!, {r4, r5, lr}
    6bf8:	e3a04013 	mov	r4, #19	; 0x13
    6bfc:	e3a05000 	mov	r5, #0	; 0x0
    6c00:	e1a00004 	mov	r0, r4
    6c04:	e1a00004 	mov	r0, r4
    6c08:	e8bd8030 	ldmia	sp!, {r4, r5, pc}

00006c0c <error>:
    6c0c:	e1a0c00d 	mov	ip, sp
    6c10:	e92dd830 	stmdb	sp!, {r4, r5, fp, ip, lr, pc}
    6c14:	e24cb004 	sub	fp, ip, #4	; 0x4
    6c18:	e1a05000 	mov	r5, r0
    6c1c:	ebfffff4 	bl	6bf4 <get_errno>
    6c20:	e1a04000 	mov	r4, r0
    6c24:	eb0001a7 	bl	72c8 <__errno>
    6c28:	e5804000 	str	r4, [r0]
    6c2c:	e1a00005 	mov	r0, r5
    6c30:	e91ba830 	ldmdb	fp, {r4, r5, fp, sp, pc}

00006c34 <wrap>:
    6c34:	e3700001 	cmn	r0, #1	; 0x1
    6c38:	11a0f00e 	movne	pc, lr
    6c3c:	eafffff2 	b	6c0c <error>

00006c40 <_swiread>:
    6c40:	e1a0c00d 	mov	ip, sp
    6c44:	e92dd830 	stmdb	sp!, {r4, r5, fp, ip, lr, pc}
    6c48:	e24cb004 	sub	fp, ip, #4	; 0x4
    6c4c:	e24dd00c 	sub	sp, sp, #12	; 0xc
    6c50:	e1a04001 	mov	r4, r1
    6c54:	e1a05002 	mov	r5, r2
    6c58:	ebffff6f 	bl	6a1c <remap_handle>
    6c5c:	e50b401c 	str	r4, [fp, -#28]
    6c60:	e50b5018 	str	r5, [fp, -#24]
    6c64:	e50b0020 	str	r0, [fp, -#32]
    6c68:	e3a04006 	mov	r4, #6	; 0x6
    6c6c:	e24b5020 	sub	r5, fp, #32	; 0x20
    6c70:	e1a00004 	mov	r0, r4
    6c74:	e1a00004 	mov	r0, r4
    6c78:	e91ba830 	ldmdb	fp, {r4, r5, fp, sp, pc}

00006c7c <_read>:
    6c7c:	e1a0c00d 	mov	ip, sp
    6c80:	e92dd8f0 	stmdb	sp!, {r4, r5, r6, r7, fp, ip, lr, pc}
    6c84:	e24cb004 	sub	fp, ip, #4	; 0x4
    6c88:	e1a06002 	mov	r6, r2
    6c8c:	e1a05001 	mov	r5, r1
    6c90:	e1a04000 	mov	r4, r0
    6c94:	ebffff60 	bl	6a1c <remap_handle>
    6c98:	ebffff54 	bl	69f0 <findslot>
    6c9c:	e1a02006 	mov	r2, r6
    6ca0:	e1a07000 	mov	r7, r0
    6ca4:	e1a01005 	mov	r1, r5
    6ca8:	e1a00004 	mov	r0, r4
    6cac:	ebffffe3 	bl	6c40 <_swiread>
    6cb0:	e1a02000 	mov	r2, r0
    6cb4:	e3520000 	cmp	r2, #0	; 0x0
    6cb8:	e3e00000 	mvn	r0, #0	; 0x0
    6cbc:	ba000008 	blt	6ce4 <_read+0x68>
    6cc0:	e59f3024 	ldr	r3, [pc, #36]	; 6cec <_read+0x70>
    6cc4:	e3570014 	cmp	r7, #20	; 0x14
    6cc8:	e0831187 	add	r1, r3, r7, lsl #3
    6ccc:	15913004 	ldrne	r3, [r1, #4]
    6cd0:	e0620006 	rsb	r0, r2, r6
    6cd4:	10833000 	addne	r3, r3, r0
    6cd8:	00620006 	rsbeq	r0, r2, r6
    6cdc:	15813004 	strne	r3, [r1, #4]
    6ce0:	e91ba8f0 	ldmdb	fp, {r4, r5, r6, r7, fp, sp, pc}
    6ce4:	e91b68f0 	ldmdb	fp, {r4, r5, r6, r7, fp, sp, lr}
    6ce8:	eaffffc7 	b	6c0c <error>
    6cec:	40000840 	andmi	r0, r0, r0, asr #16

00006cf0 <_swilseek>:
    6cf0:	e1a0c00d 	mov	ip, sp
    6cf4:	e92dddf0 	stmdb	sp!, {r4, r5, r6, r7, r8, sl, fp, ip, lr, pc}
    6cf8:	e24cb004 	sub	fp, ip, #4	; 0x4
    6cfc:	e24dd008 	sub	sp, sp, #8	; 0x8
    6d00:	e1a04002 	mov	r4, r2
    6d04:	e1a06001 	mov	r6, r1
    6d08:	e1a0a000 	mov	sl, r0
    6d0c:	ebffff42 	bl	6a1c <remap_handle>
    6d10:	e1a05000 	mov	r5, r0
    6d14:	ebffff35 	bl	69f0 <findslot>
    6d18:	e3540001 	cmp	r4, #1	; 0x1
    6d1c:	e1a07000 	mov	r7, r0
    6d20:	0a00001c 	beq	6d98 <_swilseek+0xa8>
    6d24:	e3540002 	cmp	r4, #2	; 0x2
    6d28:	124b802c 	subne	r8, fp, #44	; 0x2c
    6d2c:	0a000013 	beq	6d80 <_swilseek+0x90>
    6d30:	e1a0000a 	mov	r0, sl
    6d34:	ebffff38 	bl	6a1c <remap_handle>
    6d38:	e3a0500a 	mov	r5, #10	; 0xa
    6d3c:	e50b002c 	str	r0, [fp, -#44]
    6d40:	e5886004 	str	r6, [r8, #4]
    6d44:	e1a00005 	mov	r0, r5
    6d48:	e3550000 	cmp	r5, #0	; 0x0
    6d4c:	13a04000 	movne	r4, #0	; 0x0
    6d50:	03a04001 	moveq	r4, #1	; 0x1
    6d54:	e3570014 	cmp	r7, #20	; 0x14
    6d58:	03a04000 	moveq	r4, #0	; 0x0
    6d5c:	12044001 	andne	r4, r4, #1	; 0x1
    6d60:	e3540000 	cmp	r4, #0	; 0x0
    6d64:	159f3050 	ldrne	r3, [pc, #80]	; 6dbc <_swilseek+0xcc>
    6d68:	10833187 	addne	r3, r3, r7, lsl #3
    6d6c:	15836004 	strne	r6, [r3, #4]
    6d70:	e3550000 	cmp	r5, #0	; 0x0
    6d74:	01a00006 	moveq	r0, r6
    6d78:	13e00000 	mvnne	r0, #0	; 0x0
    6d7c:	e91badf0 	ldmdb	fp, {r4, r5, r6, r7, r8, sl, fp, sp, pc}
    6d80:	e50b502c 	str	r5, [fp, -#44]
    6d84:	e3a0400c 	mov	r4, #12	; 0xc
    6d88:	e24b802c 	sub	r8, fp, #44	; 0x2c
    6d8c:	e1a00004 	mov	r0, r4
    6d90:	e0866004 	add	r6, r6, r4
    6d94:	eaffffe5 	b	6d30 <_swilseek+0x40>
    6d98:	e3500014 	cmp	r0, #20	; 0x14
    6d9c:	03e00000 	mvneq	r0, #0	; 0x0
    6da0:	091badf0 	ldmeqdb	fp, {r4, r5, r6, r7, r8, sl, fp, sp, pc}
    6da4:	e59f3010 	ldr	r3, [pc, #16]	; 6dbc <_swilseek+0xcc>
    6da8:	e0833180 	add	r3, r3, r0, lsl #3
    6dac:	e5932004 	ldr	r2, [r3, #4]
    6db0:	e3a04000 	mov	r4, #0	; 0x0
    6db4:	e0866002 	add	r6, r6, r2
    6db8:	eaffffd9 	b	6d24 <_swilseek+0x34>
    6dbc:	40000840 	andmi	r0, r0, r0, asr #16

00006dc0 <_lseek>:
    6dc0:	e1a0c00d 	mov	ip, sp
    6dc4:	e92dd800 	stmdb	sp!, {fp, ip, lr, pc}
    6dc8:	e24cb004 	sub	fp, ip, #4	; 0x4
    6dcc:	ebffffc7 	bl	6cf0 <_swilseek>
    6dd0:	e91b6800 	ldmdb	fp, {fp, sp, lr}
    6dd4:	eaffff96 	b	6c34 <wrap>

00006dd8 <_swiwrite>:
    6dd8:	e1a0c00d 	mov	ip, sp
    6ddc:	e92dd830 	stmdb	sp!, {r4, r5, fp, ip, lr, pc}
    6de0:	e24cb004 	sub	fp, ip, #4	; 0x4
    6de4:	e24dd00c 	sub	sp, sp, #12	; 0xc
    6de8:	e1a04001 	mov	r4, r1
    6dec:	e1a05002 	mov	r5, r2
    6df0:	ebffff09 	bl	6a1c <remap_handle>
    6df4:	e50b401c 	str	r4, [fp, -#28]
    6df8:	e50b5018 	str	r5, [fp, -#24]
    6dfc:	e50b0020 	str	r0, [fp, -#32]
    6e00:	e3a04005 	mov	r4, #5	; 0x5
    6e04:	e24b5020 	sub	r5, fp, #32	; 0x20
    6e08:	e1a00004 	mov	r0, r4
    6e0c:	e1a00004 	mov	r0, r4
    6e10:	e91ba830 	ldmdb	fp, {r4, r5, fp, sp, pc}

00006e14 <_write>:
    6e14:	e1a0c00d 	mov	ip, sp
    6e18:	e92dd8f0 	stmdb	sp!, {r4, r5, r6, r7, fp, ip, lr, pc}
    6e1c:	e24cb004 	sub	fp, ip, #4	; 0x4
    6e20:	e1a06002 	mov	r6, r2
    6e24:	e1a05001 	mov	r5, r1
    6e28:	e1a04000 	mov	r4, r0
    6e2c:	ebfffefa 	bl	6a1c <remap_handle>
    6e30:	ebfffeee 	bl	69f0 <findslot>
    6e34:	e1a02006 	mov	r2, r6
    6e38:	e1a07000 	mov	r7, r0
    6e3c:	e1a01005 	mov	r1, r5
    6e40:	e1a00004 	mov	r0, r4
    6e44:	ebffffe3 	bl	6dd8 <_swiwrite>
    6e48:	e1a02000 	mov	r2, r0
    6e4c:	e3e00000 	mvn	r0, #0	; 0x0
    6e50:	e1520000 	cmp	r2, r0
    6e54:	11520006 	cmpne	r2, r6
    6e58:	0a000008 	beq	6e80 <_write+0x6c>
    6e5c:	e59f3024 	ldr	r3, [pc, #36]	; 6e88 <_write+0x74>
    6e60:	e3570014 	cmp	r7, #20	; 0x14
    6e64:	e0831187 	add	r1, r3, r7, lsl #3
    6e68:	15913004 	ldrne	r3, [r1, #4]
    6e6c:	e0620006 	rsb	r0, r2, r6
    6e70:	10833000 	addne	r3, r3, r0
    6e74:	00620006 	rsbeq	r0, r2, r6
    6e78:	15813004 	strne	r3, [r1, #4]
    6e7c:	e91ba8f0 	ldmdb	fp, {r4, r5, r6, r7, fp, sp, pc}
    6e80:	e91b68f0 	ldmdb	fp, {r4, r5, r6, r7, fp, sp, lr}
    6e84:	eaffff60 	b	6c0c <error>
    6e88:	40000840 	andmi	r0, r0, r0, asr #16

00006e8c <_swiopen>:
    6e8c:	e1a0c00d 	mov	ip, sp
    6e90:	e92dd8f0 	stmdb	sp!, {r4, r5, r6, r7, fp, ip, lr, pc}
    6e94:	e24cb004 	sub	fp, ip, #4	; 0x4
    6e98:	e24dd00c 	sub	sp, sp, #12	; 0xc
    6e9c:	e1a07000 	mov	r7, r0
    6ea0:	e3e00000 	mvn	r0, #0	; 0x0
    6ea4:	e1a05001 	mov	r5, r1
    6ea8:	ebfffed0 	bl	69f0 <findslot>
    6eac:	e3500014 	cmp	r0, #20	; 0x14
    6eb0:	e1a06000 	mov	r6, r0
    6eb4:	03e00000 	mvneq	r0, #0	; 0x0
    6eb8:	091ba8f0 	ldmeqdb	fp, {r4, r5, r6, r7, fp, sp, pc}
    6ebc:	e2054002 	and	r4, r5, #2	; 0x2
    6ec0:	e3150c02 	tst	r5, #512	; 0x200
    6ec4:	13844004 	orrne	r4, r4, #4	; 0x4
    6ec8:	e3150b01 	tst	r5, #1024	; 0x400
    6ecc:	13844004 	orrne	r4, r4, #4	; 0x4
    6ed0:	e3150008 	tst	r5, #8	; 0x8
    6ed4:	13c44004 	bicne	r4, r4, #4	; 0x4
    6ed8:	e1a00007 	mov	r0, r7
    6edc:	13844008 	orrne	r4, r4, #8	; 0x8
    6ee0:	e50b7028 	str	r7, [fp, -#40]
    6ee4:	ebfffe9e 	bl	6964 <strlen>
    6ee8:	e3a05001 	mov	r5, #1	; 0x1
    6eec:	e50b4024 	str	r4, [fp, -#36]
    6ef0:	e50b0020 	str	r0, [fp, -#32]
    6ef4:	e24b4028 	sub	r4, fp, #40	; 0x28
    6ef8:	e1a00005 	mov	r0, r5
    6efc:	e3540000 	cmp	r4, #0	; 0x0
    6f00:	ba000006 	blt	6f20 <_swiopen+0x94>
    6f04:	e59f1020 	ldr	r1, [pc, #32]	; 6f2c <_swiopen+0xa0>
    6f08:	e3a03000 	mov	r3, #0	; 0x0
    6f0c:	e0812186 	add	r2, r1, r6, lsl #3
    6f10:	e2840020 	add	r0, r4, #32	; 0x20
    6f14:	e5823004 	str	r3, [r2, #4]
    6f18:	e7814186 	str	r4, [r1, r6, lsl #3]
    6f1c:	e91ba8f0 	ldmdb	fp, {r4, r5, r6, r7, fp, sp, pc}
    6f20:	e1a00004 	mov	r0, r4
    6f24:	ebffff38 	bl	6c0c <error>
    6f28:	e91ba8f0 	ldmdb	fp, {r4, r5, r6, r7, fp, sp, pc}
    6f2c:	40000840 	andmi	r0, r0, r0, asr #16

00006f30 <_open>:
    6f30:	e1a0c00d 	mov	ip, sp
    6f34:	e92d000e 	stmdb	sp!, {r1, r2, r3}
    6f38:	e92dd800 	stmdb	sp!, {fp, ip, lr, pc}
    6f3c:	e24cb010 	sub	fp, ip, #16	; 0x10
    6f40:	e59b1004 	ldr	r1, [fp, #4]
    6f44:	ebffffd0 	bl	6e8c <_swiopen>
    6f48:	ebffff39 	bl	6c34 <wrap>
    6f4c:	e91ba800 	ldmdb	fp, {fp, sp, pc}

00006f50 <_swiclose>:
    6f50:	e1a0c00d 	mov	ip, sp
    6f54:	e92dd830 	stmdb	sp!, {r4, r5, fp, ip, lr, pc}
    6f58:	e24cb004 	sub	fp, ip, #4	; 0x4
    6f5c:	e24dd004 	sub	sp, sp, #4	; 0x4
    6f60:	ebfffead 	bl	6a1c <remap_handle>
    6f64:	e50b0018 	str	r0, [fp, -#24]
    6f68:	ebfffea0 	bl	69f0 <findslot>
    6f6c:	e3500014 	cmp	r0, #20	; 0x14
    6f70:	159f3018 	ldrne	r3, [pc, #24]	; 6f90 <_swiclose+0x40>
    6f74:	13e02000 	mvnne	r2, #0	; 0x0
    6f78:	17832180 	strne	r2, [r3, r0, lsl #3]
    6f7c:	e3a04002 	mov	r4, #2	; 0x2
    6f80:	e24b5018 	sub	r5, fp, #24	; 0x18
    6f84:	e1a00004 	mov	r0, r4
    6f88:	e1a00004 	mov	r0, r4
    6f8c:	e91ba830 	ldmdb	fp, {r4, r5, fp, sp, pc}
    6f90:	40000840 	andmi	r0, r0, r0, asr #16

00006f94 <_close>:
    6f94:	e1a0c00d 	mov	ip, sp
    6f98:	e92dd800 	stmdb	sp!, {fp, ip, lr, pc}
    6f9c:	e24cb004 	sub	fp, ip, #4	; 0x4
    6fa0:	ebffffea 	bl	6f50 <_swiclose>
    6fa4:	e91b6800 	ldmdb	fp, {fp, sp, lr}
    6fa8:	eaffff21 	b	6c34 <wrap>

00006fac <_exit>:
    6fac:	e92d4030 	stmdb	sp!, {r4, r5, lr}
    6fb0:	e3a05802 	mov	r5, #131072	; 0x20000
    6fb4:	e3a04018 	mov	r4, #24	; 0x18
    6fb8:	e2855026 	add	r5, r5, #38	; 0x26
    6fbc:	e1a00004 	mov	r0, r4
    6fc0:	e8bd8030 	ldmia	sp!, {r4, r5, pc}

00006fc4 <_kill>:
    6fc4:	e92d4030 	stmdb	sp!, {r4, r5, lr}
    6fc8:	e3a05802 	mov	r5, #131072	; 0x20000
    6fcc:	e3a04018 	mov	r4, #24	; 0x18
    6fd0:	e2855026 	add	r5, r5, #38	; 0x26
    6fd4:	e1a00004 	mov	r0, r4
    6fd8:	e1a00004 	mov	r0, r4
    6fdc:	e8bd8030 	ldmia	sp!, {r4, r5, pc}

00006fe0 <_getpid>:
    6fe0:	e3a00001 	mov	r0, #1	; 0x1
    6fe4:	e1a0f00e 	mov	pc, lr

00006fe8 <_sbrk>:
    6fe8:	e1a0c00d 	mov	ip, sp
    6fec:	e92dd800 	stmdb	sp!, {fp, ip, lr, pc}
    6ff0:	e59f1044 	ldr	r1, [pc, #68]	; 703c <_sbrk+0x54>
    6ff4:	e5913000 	ldr	r3, [r1]
    6ff8:	e59f2040 	ldr	r2, [pc, #64]	; 7040 <_sbrk+0x58>
    6ffc:	e3530000 	cmp	r3, #0	; 0x0
    7000:	01a03002 	moveq	r3, r2
    7004:	e0830000 	add	r0, r3, r0
    7008:	05812000 	streq	r2, [r1]
    700c:	e150000d 	cmp	r0, sp
    7010:	e24cb004 	sub	fp, ip, #4	; 0x4
    7014:	e1a02003 	mov	r2, r3
    7018:	95810000 	strls	r0, [r1]
    701c:	8a000001 	bhi	7028 <_sbrk+0x40>
    7020:	e1a00002 	mov	r0, r2
    7024:	e91ba800 	ldmdb	fp, {fp, sp, pc}
    7028:	eb0000a6 	bl	72c8 <__errno>
    702c:	e3a0300c 	mov	r3, #12	; 0xc
    7030:	e3e02000 	mvn	r2, #0	; 0x0
    7034:	e5803000 	str	r3, [r0]
    7038:	eafffff8 	b	7020 <_sbrk+0x38>
    703c:	4000082c 	andmi	r0, r0, ip, lsr #16
    7040:	40001000 	andmi	r1, r0, r0

00007044 <_fstat>:
    7044:	e1a0c00d 	mov	ip, sp
    7048:	e92dd810 	stmdb	sp!, {r4, fp, ip, lr, pc}
    704c:	e1a00001 	mov	r0, r1
    7050:	e1a04001 	mov	r4, r1
    7054:	e24cb004 	sub	fp, ip, #4	; 0x4
    7058:	e3a01000 	mov	r1, #0	; 0x0
    705c:	e3a0203c 	mov	r2, #60	; 0x3c
    7060:	ebfff976 	bl	5640 <memset>
    7064:	e3a03b01 	mov	r3, #1024	; 0x400
    7068:	e3a02a02 	mov	r2, #8192	; 0x2000
    706c:	e3a00000 	mov	r0, #0	; 0x0
    7070:	e584302c 	str	r3, [r4, #44]
    7074:	e5842004 	str	r2, [r4, #4]
    7078:	e91ba810 	ldmdb	fp, {r4, fp, sp, pc}

0000707c <_stat>:
    707c:	e1a0c00d 	mov	ip, sp
    7080:	e92dd830 	stmdb	sp!, {r4, r5, fp, ip, lr, pc}
    7084:	e1a04001 	mov	r4, r1
    7088:	e24cb004 	sub	fp, ip, #4	; 0x4
    708c:	e3a01000 	mov	r1, #0	; 0x0
    7090:	ebffffa6 	bl	6f30 <_open>
    7094:	e3a01000 	mov	r1, #0	; 0x0
    7098:	e1a05000 	mov	r5, r0
    709c:	e1550001 	cmp	r5, r1
    70a0:	e1a00004 	mov	r0, r4
    70a4:	e3a0203c 	mov	r2, #60	; 0x3c
    70a8:	e3e03000 	mvn	r3, #0	; 0x0
    70ac:	ba000007 	blt	70d0 <_stat+0x54>
    70b0:	ebfff962 	bl	5640 <memset>
    70b4:	e3a03b01 	mov	r3, #1024	; 0x400
    70b8:	e3a02c81 	mov	r2, #33024	; 0x8100
    70bc:	e584302c 	str	r3, [r4, #44]
    70c0:	e5842004 	str	r2, [r4, #4]
    70c4:	e1a00005 	mov	r0, r5
    70c8:	ebffffa0 	bl	6f50 <_swiclose>
    70cc:	e3a03000 	mov	r3, #0	; 0x0
    70d0:	e1a00003 	mov	r0, r3
    70d4:	e91ba830 	ldmdb	fp, {r4, r5, fp, sp, pc}

000070d8 <_link>:
    70d8:	e3e00000 	mvn	r0, #0	; 0x0
    70dc:	e1a0f00e 	mov	pc, lr

000070e0 <_unlink>:
    70e0:	e3e00000 	mvn	r0, #0	; 0x0
    70e4:	e1a0f00e 	mov	pc, lr

000070e8 <_raise>:
    70e8:	e1a0f00e 	mov	pc, lr

000070ec <_gettimeofday>:
    70ec:	e3500000 	cmp	r0, #0	; 0x0
    70f0:	e92d40f0 	stmdb	sp!, {r4, r5, r6, r7, lr}
    70f4:	e1a06000 	mov	r6, r0
    70f8:	e1a07001 	mov	r7, r1
    70fc:	0a000004 	beq	7114 <_gettimeofday+0x28>
    7100:	e3a05011 	mov	r5, #17	; 0x11
    7104:	e3a04000 	mov	r4, #0	; 0x0
    7108:	e1a00005 	mov	r0, r5
    710c:	e5864004 	str	r4, [r6, #4]
    7110:	e5865000 	str	r5, [r6]
    7114:	e3a03000 	mov	r3, #0	; 0x0
    7118:	e1570003 	cmp	r7, r3
    711c:	e1a00003 	mov	r0, r3
    7120:	15873004 	strne	r3, [r7, #4]
    7124:	15873000 	strne	r3, [r7]
    7128:	e8bd80f0 	ldmia	sp!, {r4, r5, r6, r7, pc}

0000712c <_times>:
    712c:	e92d4070 	stmdb	sp!, {r4, r5, r6, lr}
    7130:	e1a05000 	mov	r5, r0
    7134:	e3a04010 	mov	r4, #16	; 0x10
    7138:	e3a06000 	mov	r6, #0	; 0x0
    713c:	e1a00004 	mov	r0, r4
    7140:	e1550006 	cmp	r5, r6
    7144:	e1a00004 	mov	r0, r4
    7148:	1585600c 	strne	r6, [r5, #12]
    714c:	15854000 	strne	r4, [r5]
    7150:	15856004 	strne	r6, [r5, #4]
    7154:	15856008 	strne	r6, [r5, #8]
    7158:	e8bd8070 	ldmia	sp!, {r4, r5, r6, pc}

0000715c <isatty>:
    715c:	e3a00001 	mov	r0, #1	; 0x1
    7160:	e1a0f00e 	mov	pc, lr

00007164 <_system>:
    7164:	e1a0c00d 	mov	ip, sp
    7168:	e3500000 	cmp	r0, #0	; 0x0
    716c:	e92dd800 	stmdb	sp!, {fp, ip, lr, pc}
    7170:	e24cb004 	sub	fp, ip, #4	; 0x4
    7174:	091ba800 	ldmeqdb	fp, {fp, sp, pc}
    7178:	eb000052 	bl	72c8 <__errno>
    717c:	e3a03058 	mov	r3, #88	; 0x58
    7180:	e5803000 	str	r3, [r0]
    7184:	e3e00000 	mvn	r0, #0	; 0x0
    7188:	e91ba800 	ldmdb	fp, {fp, sp, pc}

0000718c <_rename>:
    718c:	e1a0c00d 	mov	ip, sp
    7190:	e92dd800 	stmdb	sp!, {fp, ip, lr, pc}
    7194:	e24cb004 	sub	fp, ip, #4	; 0x4
    7198:	eb00004a 	bl	72c8 <__errno>
    719c:	e3a03058 	mov	r3, #88	; 0x58
    71a0:	e5803000 	str	r3, [r0]
    71a4:	e3e00000 	mvn	r0, #0	; 0x0
    71a8:	e91ba800 	ldmdb	fp, {fp, sp, pc}

000071ac <_write_r>:
    71ac:	e1a0c00d 	mov	ip, sp
    71b0:	e92dd830 	stmdb	sp!, {r4, r5, fp, ip, lr, pc}
    71b4:	e24cb004 	sub	fp, ip, #4	; 0x4
    71b8:	e59f4034 	ldr	r4, [pc, #52]	; 71f4 <_write_r+0x48>
    71bc:	e1a0c001 	mov	ip, r1
    71c0:	e1a05000 	mov	r5, r0
    71c4:	e1a01002 	mov	r1, r2
    71c8:	e1a0000c 	mov	r0, ip
    71cc:	e1a02003 	mov	r2, r3
    71d0:	e3a03000 	mov	r3, #0	; 0x0
    71d4:	e5843000 	str	r3, [r4]
    71d8:	ebffff0d 	bl	6e14 <_write>
    71dc:	e3700001 	cmn	r0, #1	; 0x1
    71e0:	191ba830 	ldmnedb	fp, {r4, r5, fp, sp, pc}
    71e4:	e5943000 	ldr	r3, [r4]
    71e8:	e3530000 	cmp	r3, #0	; 0x0
    71ec:	15853000 	strne	r3, [r5]
    71f0:	e91ba830 	ldmdb	fp, {r4, r5, fp, sp, pc}
    71f4:	40000b80 	andmi	r0, r0, r0, lsl #23

000071f8 <_calloc_r>:
    71f8:	e1a0c00d 	mov	ip, sp
    71fc:	e92dd810 	stmdb	sp!, {r4, fp, ip, lr, pc}
    7200:	e0010192 	mul	r1, r2, r1
    7204:	e24cb004 	sub	fp, ip, #4	; 0x4
    7208:	ebfff73f 	bl	4f0c <_malloc_r>
    720c:	e3500000 	cmp	r0, #0	; 0x0
    7210:	e1a04000 	mov	r4, r0
    7214:	091ba810 	ldmeqdb	fp, {r4, fp, sp, pc}
    7218:	e5103004 	ldr	r3, [r0, -#4]
    721c:	e3c33003 	bic	r3, r3, #3	; 0x3
    7220:	e2432004 	sub	r2, r3, #4	; 0x4
    7224:	e3520024 	cmp	r2, #36	; 0x24
    7228:	8a000013 	bhi	727c <_calloc_r+0x84>
    722c:	e3520013 	cmp	r2, #19	; 0x13
    7230:	e1a01000 	mov	r1, r0
    7234:	9a00000a 	bls	7264 <_calloc_r+0x6c>
    7238:	e3a03000 	mov	r3, #0	; 0x0
    723c:	e4813004 	str	r3, [r1], #4
    7240:	e352001b 	cmp	r2, #27	; 0x1b
    7244:	e5803004 	str	r3, [r0, #4]
    7248:	e2811004 	add	r1, r1, #4	; 0x4
    724c:	9a000004 	bls	7264 <_calloc_r+0x6c>
    7250:	e4813004 	str	r3, [r1], #4
    7254:	e4813004 	str	r3, [r1], #4
    7258:	e3520023 	cmp	r2, #35	; 0x23
    725c:	84813004 	strhi	r3, [r1], #4
    7260:	84813004 	strhi	r3, [r1], #4
    7264:	e3a03000 	mov	r3, #0	; 0x0
    7268:	e4813004 	str	r3, [r1], #4
    726c:	e4813004 	str	r3, [r1], #4
    7270:	e5813000 	str	r3, [r1]
    7274:	e1a00004 	mov	r0, r4
    7278:	e91ba810 	ldmdb	fp, {r4, fp, sp, pc}
    727c:	e3a01000 	mov	r1, #0	; 0x0
    7280:	ebfff8ee 	bl	5640 <memset>
    7284:	eafffffa 	b	7274 <_calloc_r+0x7c>

00007288 <_close_r>:
    7288:	e1a0c00d 	mov	ip, sp
    728c:	e92dd830 	stmdb	sp!, {r4, r5, fp, ip, lr, pc}
    7290:	e59f402c 	ldr	r4, [pc, #44]	; 72c4 <_close_r+0x3c>
    7294:	e3a03000 	mov	r3, #0	; 0x0
    7298:	e24cb004 	sub	fp, ip, #4	; 0x4
    729c:	e1a05000 	mov	r5, r0
    72a0:	e1a00001 	mov	r0, r1
    72a4:	e5843000 	str	r3, [r4]
    72a8:	ebffff39 	bl	6f94 <_close>
    72ac:	e3700001 	cmn	r0, #1	; 0x1
    72b0:	191ba830 	ldmnedb	fp, {r4, r5, fp, sp, pc}
    72b4:	e5943000 	ldr	r3, [r4]
    72b8:	e3530000 	cmp	r3, #0	; 0x0
    72bc:	15853000 	strne	r3, [r5]
    72c0:	e91ba830 	ldmdb	fp, {r4, r5, fp, sp, pc}
    72c4:	40000b80 	andmi	r0, r0, r0, lsl #23

000072c8 <__errno>:
    72c8:	e59f3004 	ldr	r3, [pc, #4]	; 72d4 <__errno+0xc>
    72cc:	e5930000 	ldr	r0, [r3]
    72d0:	e1a0f00e 	mov	pc, lr
    72d4:	4000039c 	mulmi	r0, ip, r3

000072d8 <_fstat_r>:
    72d8:	e1a0c00d 	mov	ip, sp
    72dc:	e92dd830 	stmdb	sp!, {r4, r5, fp, ip, lr, pc}
    72e0:	e24cb004 	sub	fp, ip, #4	; 0x4
    72e4:	e59f4030 	ldr	r4, [pc, #48]	; 731c <_fstat_r+0x44>
    72e8:	e1a0c001 	mov	ip, r1
    72ec:	e3a03000 	mov	r3, #0	; 0x0
    72f0:	e1a05000 	mov	r5, r0
    72f4:	e1a01002 	mov	r1, r2
    72f8:	e1a0000c 	mov	r0, ip
    72fc:	e5843000 	str	r3, [r4]
    7300:	ebffff4f 	bl	7044 <_fstat>
    7304:	e3700001 	cmn	r0, #1	; 0x1
    7308:	191ba830 	ldmnedb	fp, {r4, r5, fp, sp, pc}
    730c:	e5943000 	ldr	r3, [r4]
    7310:	e3530000 	cmp	r3, #0	; 0x0
    7314:	15853000 	strne	r3, [r5]
    7318:	e91ba830 	ldmdb	fp, {r4, r5, fp, sp, pc}
    731c:	40000b80 	andmi	r0, r0, r0, lsl #23

00007320 <_lseek_r>:
    7320:	e1a0c00d 	mov	ip, sp
    7324:	e92dd830 	stmdb	sp!, {r4, r5, fp, ip, lr, pc}
    7328:	e24cb004 	sub	fp, ip, #4	; 0x4
    732c:	e59f4034 	ldr	r4, [pc, #52]	; 7368 <_lseek_r+0x48>
    7330:	e1a0c001 	mov	ip, r1
    7334:	e1a05000 	mov	r5, r0
    7338:	e1a01002 	mov	r1, r2
    733c:	e1a0000c 	mov	r0, ip
    7340:	e1a02003 	mov	r2, r3
    7344:	e3a03000 	mov	r3, #0	; 0x0
    7348:	e5843000 	str	r3, [r4]
    734c:	ebfffe9b 	bl	6dc0 <_lseek>
    7350:	e3700001 	cmn	r0, #1	; 0x1
    7354:	191ba830 	ldmnedb	fp, {r4, r5, fp, sp, pc}
    7358:	e5943000 	ldr	r3, [r4]
    735c:	e3530000 	cmp	r3, #0	; 0x0
    7360:	15853000 	strne	r3, [r5]
    7364:	e91ba830 	ldmdb	fp, {r4, r5, fp, sp, pc}
    7368:	40000b80 	andmi	r0, r0, r0, lsl #23

0000736c <_read_r>:
    736c:	e1a0c00d 	mov	ip, sp
    7370:	e92dd830 	stmdb	sp!, {r4, r5, fp, ip, lr, pc}
    7374:	e24cb004 	sub	fp, ip, #4	; 0x4
    7378:	e59f4034 	ldr	r4, [pc, #52]	; 73b4 <_read_r+0x48>
    737c:	e1a0c001 	mov	ip, r1
    7380:	e1a05000 	mov	r5, r0
    7384:	e1a01002 	mov	r1, r2
    7388:	e1a0000c 	mov	r0, ip
    738c:	e1a02003 	mov	r2, r3
    7390:	e3a03000 	mov	r3, #0	; 0x0
    7394:	e5843000 	str	r3, [r4]
    7398:	ebfffe37 	bl	6c7c <_read>
    739c:	e3700001 	cmn	r0, #1	; 0x1
    73a0:	191ba830 	ldmnedb	fp, {r4, r5, fp, sp, pc}
    73a4:	e5943000 	ldr	r3, [r4]
    73a8:	e3530000 	cmp	r3, #0	; 0x0
    73ac:	15853000 	strne	r3, [r5]
    73b0:	e91ba830 	ldmdb	fp, {r4, r5, fp, sp, pc}
    73b4:	40000b80 	andmi	r0, r0, r0, lsl #23

000073b8 <cleanup_glue>:
    73b8:	e1a0c00d 	mov	ip, sp
    73bc:	e92dd830 	stmdb	sp!, {r4, r5, fp, ip, lr, pc}
    73c0:	e1a05001 	mov	r5, r1
    73c4:	e5911000 	ldr	r1, [r1]
    73c8:	e3510000 	cmp	r1, #0	; 0x0
    73cc:	e24cb004 	sub	fp, ip, #4	; 0x4
    73d0:	e1a04000 	mov	r4, r0
    73d4:	1a000003 	bne	73e8 <cleanup_glue+0x30>
    73d8:	e1a00004 	mov	r0, r4
    73dc:	e1a01005 	mov	r1, r5
    73e0:	e91b6830 	ldmdb	fp, {r4, r5, fp, sp, lr}
    73e4:	eafff3fc 	b	43dc <_free_r>
    73e8:	ebfffff2 	bl	73b8 <cleanup_glue>
    73ec:	eafffff9 	b	73d8 <cleanup_glue+0x20>

000073f0 <_reclaim_reent>:
    73f0:	e1a0c00d 	mov	ip, sp
    73f4:	e92dd870 	stmdb	sp!, {r4, r5, r6, fp, ip, lr, pc}
    73f8:	e59f30d8 	ldr	r3, [pc, #216]	; 74d8 <_reclaim_reent+0xe8>
    73fc:	e5932000 	ldr	r2, [r3]
    7400:	e1500002 	cmp	r0, r2
    7404:	e24cb004 	sub	fp, ip, #4	; 0x4
    7408:	e1a05000 	mov	r5, r0
    740c:	091ba870 	ldmeqdb	fp, {r4, r5, r6, fp, sp, pc}
    7410:	e590104c 	ldr	r1, [r0, #76]
    7414:	e3510000 	cmp	r1, #0	; 0x0
    7418:	0a00000f 	beq	745c <_reclaim_reent+0x6c>
    741c:	e3a06000 	mov	r6, #0	; 0x0
    7420:	e7914106 	ldr	r4, [r1, r6, lsl #2]
    7424:	e3540000 	cmp	r4, #0	; 0x0
    7428:	0a000006 	beq	7448 <_reclaim_reent+0x58>
    742c:	e1a01004 	mov	r1, r4
    7430:	e5944000 	ldr	r4, [r4]
    7434:	e1a00005 	mov	r0, r5
    7438:	ebfff3e7 	bl	43dc <_free_r>
    743c:	e3540000 	cmp	r4, #0	; 0x0
    7440:	1afffff9 	bne	742c <_reclaim_reent+0x3c>
    7444:	e595104c 	ldr	r1, [r5, #76]
    7448:	e2866001 	add	r6, r6, #1	; 0x1
    744c:	e356000e 	cmp	r6, #14	; 0xe
    7450:	dafffff2 	ble	7420 <_reclaim_reent+0x30>
    7454:	e1a00005 	mov	r0, r5
    7458:	ebfff3df 	bl	43dc <_free_r>
    745c:	e5951148 	ldr	r1, [r5, #328]
    7460:	e3510000 	cmp	r1, #0	; 0x0
    7464:	0a000009 	beq	7490 <_reclaim_reent+0xa0>
    7468:	e2856f53 	add	r6, r5, #332	; 0x14c
    746c:	e1510006 	cmp	r1, r6
    7470:	0a000006 	beq	7490 <_reclaim_reent+0xa0>
    7474:	e1a04001 	mov	r4, r1
    7478:	e1a01004 	mov	r1, r4
    747c:	e5944000 	ldr	r4, [r4]
    7480:	e1a00005 	mov	r0, r5
    7484:	ebfff3d4 	bl	43dc <_free_r>
    7488:	e1540006 	cmp	r4, r6
    748c:	1afffff9 	bne	7478 <_reclaim_reent+0x88>
    7490:	e5951054 	ldr	r1, [r5, #84]
    7494:	e3510000 	cmp	r1, #0	; 0x0
    7498:	1a00000b 	bne	74cc <_reclaim_reent+0xdc>
    749c:	e5953038 	ldr	r3, [r5, #56]
    74a0:	e3530000 	cmp	r3, #0	; 0x0
    74a4:	091ba870 	ldmeqdb	fp, {r4, r5, r6, fp, sp, pc}
    74a8:	e1a00005 	mov	r0, r5
    74ac:	e1a0e00f 	mov	lr, pc
    74b0:	e595f03c 	ldr	pc, [r5, #60]
    74b4:	e595125c 	ldr	r1, [r5, #604]
    74b8:	e3510000 	cmp	r1, #0	; 0x0
    74bc:	091ba870 	ldmeqdb	fp, {r4, r5, r6, fp, sp, pc}
    74c0:	e1a00005 	mov	r0, r5
    74c4:	e91b6870 	ldmdb	fp, {r4, r5, r6, fp, sp, lr}
    74c8:	eaffffba 	b	73b8 <cleanup_glue>
    74cc:	e1a00005 	mov	r0, r5
    74d0:	ebfff3c1 	bl	43dc <_free_r>
    74d4:	eafffff0 	b	749c <_reclaim_reent+0xac>
    74d8:	4000039c 	mulmi	r0, ip, r3

000074dc <_wrapup_reent>:
    74dc:	e1a0c00d 	mov	ip, sp
    74e0:	e92dd8f0 	stmdb	sp!, {r4, r5, r6, r7, fp, ip, lr, pc}
    74e4:	e3500000 	cmp	r0, #0	; 0x0
    74e8:	059f3060 	ldreq	r3, [pc, #96]	; 7550 <_wrapup_reent+0x74>
    74ec:	e1a07000 	mov	r7, r0
    74f0:	05937000 	ldreq	r7, [r3]
    74f4:	e5976148 	ldr	r6, [r7, #328]
    74f8:	e3560000 	cmp	r6, #0	; 0x0
    74fc:	e24cb004 	sub	fp, ip, #4	; 0x4
    7500:	0a00000b 	beq	7534 <_wrapup_reent+0x58>
    7504:	e5964004 	ldr	r4, [r6, #4]
    7508:	e2544001 	subs	r4, r4, #1	; 0x1
    750c:	4a000005 	bmi	7528 <_wrapup_reent+0x4c>
    7510:	e0865104 	add	r5, r6, r4, lsl #2
    7514:	e1a0e00f 	mov	lr, pc
    7518:	e595f008 	ldr	pc, [r5, #8]
    751c:	e2544001 	subs	r4, r4, #1	; 0x1
    7520:	e2455004 	sub	r5, r5, #4	; 0x4
    7524:	5afffffa 	bpl	7514 <_wrapup_reent+0x38>
    7528:	e5966000 	ldr	r6, [r6]
    752c:	e3560000 	cmp	r6, #0	; 0x0
    7530:	1afffff3 	bne	7504 <_wrapup_reent+0x28>
    7534:	e597303c 	ldr	r3, [r7, #60]
    7538:	e3530000 	cmp	r3, #0	; 0x0
    753c:	091ba8f0 	ldmeqdb	fp, {r4, r5, r6, r7, fp, sp, pc}
    7540:	e1a00007 	mov	r0, r7
    7544:	e1a0e00f 	mov	lr, pc
    7548:	e1a0f003 	mov	pc, r3
    754c:	e91ba8f0 	ldmdb	fp, {r4, r5, r6, r7, fp, sp, pc}
    7550:	4000039c 	mulmi	r0, ip, r3

00007554 <__udivsi3>:
    7554:	e3510000 	cmp	r1, #0	; 0x0
    7558:	0a00001f 	beq	75dc <Ldiv0>
    755c:	e3a03001 	mov	r3, #1	; 0x1
    7560:	e3a02000 	mov	r2, #0	; 0x0
    7564:	e1500001 	cmp	r0, r1
    7568:	3a000019 	bcc	75d4 <Lgot_result>

0000756c <Loop1>:
    756c:	e3510201 	cmp	r1, #268435456	; 0x10000000
    7570:	31510000 	cmpcc	r1, r0
    7574:	31a01201 	movcc	r1, r1, lsl #4
    7578:	31a03203 	movcc	r3, r3, lsl #4
    757c:	3afffffa 	bcc	756c <Loop1>

00007580 <Lbignum>:
    7580:	e3510102 	cmp	r1, #-2147483648	; 0x80000000
    7584:	31510000 	cmpcc	r1, r0
    7588:	31a01081 	movcc	r1, r1, lsl #1
    758c:	31a03083 	movcc	r3, r3, lsl #1
    7590:	3afffffa 	bcc	7580 <Lbignum>

00007594 <Loop3>:
    7594:	e1500001 	cmp	r0, r1
    7598:	20400001 	subcs	r0, r0, r1
    759c:	21822003 	orrcs	r2, r2, r3
    75a0:	e15000a1 	cmp	r0, r1, lsr #1
    75a4:	204000a1 	subcs	r0, r0, r1, lsr #1
    75a8:	218220a3 	orrcs	r2, r2, r3, lsr #1
    75ac:	e1500121 	cmp	r0, r1, lsr #2
    75b0:	20400121 	subcs	r0, r0, r1, lsr #2
    75b4:	21822123 	orrcs	r2, r2, r3, lsr #2
    75b8:	e15001a1 	cmp	r0, r1, lsr #3
    75bc:	204001a1 	subcs	r0, r0, r1, lsr #3
    75c0:	218221a3 	orrcs	r2, r2, r3, lsr #3
    75c4:	e3500000 	cmp	r0, #0	; 0x0
    75c8:	11b03223 	movnes	r3, r3, lsr #4
    75cc:	11a01221 	movne	r1, r1, lsr #4
    75d0:	1affffef 	bne	7594 <Loop3>

000075d4 <Lgot_result>:
    75d4:	e1a00002 	mov	r0, r2
    75d8:	e1a0f00e 	mov	pc, lr

000075dc <Ldiv0>:
    75dc:	e52de004 	str	lr, [sp, -#4]!
    75e0:	eb000001 	bl	75ec <__div0>
    75e4:	e3a00000 	mov	r0, #0	; 0x0
    75e8:	e8bd8000 	ldmia	sp!, {pc}

000075ec <__div0>:
    75ec:	e1a0f00e 	mov	pc, lr

000075f0 <__udivdi3>:
    75f0:	e1a0c00d 	mov	ip, sp
    75f4:	e92ddff0 	stmdb	sp!, {r4, r5, r6, r7, r8, r9, sl, fp, ip, lr, pc}
    75f8:	e24cb004 	sub	fp, ip, #4	; 0x4
    75fc:	e3a06000 	mov	r6, #0	; 0x0
    7600:	e3a05000 	mov	r5, #0	; 0x0
    7604:	e24dd01c 	sub	sp, sp, #28	; 0x1c
    7608:	e24bc030 	sub	ip, fp, #48	; 0x30
    760c:	e2534000 	subs	r4, r3, #0	; 0x0
    7610:	e1a08001 	mov	r8, r1
    7614:	e88c0060 	stmia	ip, {r5, r6}
    7618:	e1a09000 	mov	r9, r0
    761c:	e1a06002 	mov	r6, r2
    7620:	1a0000c2 	bne	7930 <__udivdi3+0x340>
    7624:	e1520001 	cmp	r2, r1
    7628:	9a000043 	bls	773c <__udivdi3+0x14c>
    762c:	e3520801 	cmp	r2, #65536	; 0x10000
    7630:	e1a01002 	mov	r1, r2
    7634:	2a00003c 	bcs	772c <__udivdi3+0x13c>
    7638:	e35200ff 	cmp	r2, #255	; 0xff
    763c:	83a00008 	movhi	r0, #8	; 0x8
    7640:	93a00000 	movls	r0, #0	; 0x0
    7644:	e59f2490 	ldr	r2, [pc, #1168]	; 7adc <__udivdi3+0x4ec>
    7648:	e1a01031 	mov	r1, r1, lsr r0
    764c:	e7d23001 	ldrb	r3, [r2, r1]
    7650:	e0833000 	add	r3, r3, r0
    7654:	e2732020 	rsbs	r2, r3, #32	; 0x20
    7658:	12623020 	rsbne	r3, r2, #32	; 0x20
    765c:	11a03339 	movne	r3, r9, lsr r3
    7660:	11a06216 	movne	r6, r6, lsl r2
    7664:	11838218 	orrne	r8, r3, r8, lsl r2
    7668:	e1a07826 	mov	r7, r6, lsr #16
    766c:	e1a00008 	mov	r0, r8
    7670:	e1a01007 	mov	r1, r7
    7674:	11a09219 	movne	r9, r9, lsl r2
    7678:	eb000681 	bl	9084 <__umodsi3>
    767c:	e1a01007 	mov	r1, r7
    7680:	e1a04000 	mov	r4, r0
    7684:	e1a00008 	mov	r0, r8
    7688:	ebffffb1 	bl	7554 <__udivsi3>
    768c:	e1a08806 	mov	r8, r6, lsl #16
    7690:	e1a08828 	mov	r8, r8, lsr #16
    7694:	e0020098 	mul	r2, r8, r0
    7698:	e1a03829 	mov	r3, r9, lsr #16
    769c:	e1834804 	orr	r4, r3, r4, lsl #16
    76a0:	e1540002 	cmp	r4, r2
    76a4:	e1a0a000 	mov	sl, r0
    76a8:	2a000005 	bcs	76c4 <__udivdi3+0xd4>
    76ac:	e0944006 	adds	r4, r4, r6
    76b0:	e240a001 	sub	sl, r0, #1	; 0x1
    76b4:	2a000002 	bcs	76c4 <__udivdi3+0xd4>
    76b8:	e1540002 	cmp	r4, r2
    76bc:	324aa001 	subcc	sl, sl, #1	; 0x1
    76c0:	30844006 	addcc	r4, r4, r6
    76c4:	e0624004 	rsb	r4, r2, r4
    76c8:	e1a01007 	mov	r1, r7
    76cc:	e1a00004 	mov	r0, r4
    76d0:	eb00066b 	bl	9084 <__umodsi3>
    76d4:	e1a01007 	mov	r1, r7
    76d8:	e1a05000 	mov	r5, r0
    76dc:	e1a00004 	mov	r0, r4
    76e0:	ebffff9b 	bl	7554 <__udivsi3>
    76e4:	e0020098 	mul	r2, r8, r0
    76e8:	e1a03809 	mov	r3, r9, lsl #16
    76ec:	e1a03823 	mov	r3, r3, lsr #16
    76f0:	e1835805 	orr	r5, r3, r5, lsl #16
    76f4:	e1550002 	cmp	r5, r2
    76f8:	2a000004 	bcs	7710 <__udivdi3+0x120>
    76fc:	e0955006 	adds	r5, r5, r6
    7700:	e2400001 	sub	r0, r0, #1	; 0x1
    7704:	2a000001 	bcs	7710 <__udivdi3+0x120>
    7708:	e1550002 	cmp	r5, r2
    770c:	32400001 	subcc	r0, r0, #1	; 0x1
    7710:	e180c80a 	orr	ip, r0, sl, lsl #16
    7714:	e3a07000 	mov	r7, #0	; 0x0
    7718:	e50bc030 	str	ip, [fp, -#48]
    771c:	e50b702c 	str	r7, [fp, -#44]
    7720:	e24b5030 	sub	r5, fp, #48	; 0x30
    7724:	e8950003 	ldmia	r5, {r0, r1}
    7728:	e91baff0 	ldmdb	fp, {r4, r5, r6, r7, r8, r9, sl, fp, sp, pc}
    772c:	e3520401 	cmp	r2, #16777216	; 0x1000000
    7730:	23a00018 	movcs	r0, #24	; 0x18
    7734:	33a00010 	movcc	r0, #16	; 0x10
    7738:	eaffffc1 	b	7644 <__udivdi3+0x54>
    773c:	e3520000 	cmp	r2, #0	; 0x0
    7740:	1a000003 	bne	7754 <__udivdi3+0x164>
    7744:	e1a01002 	mov	r1, r2
    7748:	e3a00001 	mov	r0, #1	; 0x1
    774c:	ebffff80 	bl	7554 <__udivsi3>
    7750:	e1a06000 	mov	r6, r0
    7754:	e3560801 	cmp	r6, #65536	; 0x10000
    7758:	2a000070 	bcs	7920 <__udivdi3+0x330>
    775c:	e35600ff 	cmp	r6, #255	; 0xff
    7760:	83a00008 	movhi	r0, #8	; 0x8
    7764:	93a00000 	movls	r0, #0	; 0x0
    7768:	e59f236c 	ldr	r2, [pc, #876]	; 7adc <__udivdi3+0x4ec>
    776c:	e1a01036 	mov	r1, r6, lsr r0
    7770:	e7d23001 	ldrb	r3, [r2, r1]
    7774:	e0833000 	add	r3, r3, r0
    7778:	e2732020 	rsbs	r2, r3, #32	; 0x20
    777c:	1a00002f 	bne	7840 <__udivdi3+0x250>
    7780:	e1a03806 	mov	r3, r6, lsl #16
    7784:	e1a03823 	mov	r3, r3, lsr #16
    7788:	e0668008 	rsb	r8, r6, r8
    778c:	e3a07001 	mov	r7, #1	; 0x1
    7790:	e1a0a826 	mov	sl, r6, lsr #16
    7794:	e50b3044 	str	r3, [fp, -#68]
    7798:	e1a00008 	mov	r0, r8
    779c:	e1a0100a 	mov	r1, sl
    77a0:	eb000637 	bl	9084 <__umodsi3>
    77a4:	e1a0100a 	mov	r1, sl
    77a8:	e1a04000 	mov	r4, r0
    77ac:	e1a00008 	mov	r0, r8
    77b0:	ebffff67 	bl	7554 <__udivsi3>
    77b4:	e51b2044 	ldr	r2, [fp, -#68]
    77b8:	e0020290 	mul	r2, r0, r2
    77bc:	e1a03829 	mov	r3, r9, lsr #16
    77c0:	e1834804 	orr	r4, r3, r4, lsl #16
    77c4:	e1540002 	cmp	r4, r2
    77c8:	e1a08000 	mov	r8, r0
    77cc:	2a000005 	bcs	77e8 <__udivdi3+0x1f8>
    77d0:	e0944006 	adds	r4, r4, r6
    77d4:	e2408001 	sub	r8, r0, #1	; 0x1
    77d8:	2a000002 	bcs	77e8 <__udivdi3+0x1f8>
    77dc:	e1540002 	cmp	r4, r2
    77e0:	32488001 	subcc	r8, r8, #1	; 0x1
    77e4:	30844006 	addcc	r4, r4, r6
    77e8:	e0624004 	rsb	r4, r2, r4
    77ec:	e1a0100a 	mov	r1, sl
    77f0:	e1a00004 	mov	r0, r4
    77f4:	eb000622 	bl	9084 <__umodsi3>
    77f8:	e1a0100a 	mov	r1, sl
    77fc:	e1a05000 	mov	r5, r0
    7800:	e1a00004 	mov	r0, r4
    7804:	ebffff52 	bl	7554 <__udivsi3>
    7808:	e51b2044 	ldr	r2, [fp, -#68]
    780c:	e0020290 	mul	r2, r0, r2
    7810:	e1a03809 	mov	r3, r9, lsl #16
    7814:	e1a03823 	mov	r3, r3, lsr #16
    7818:	e1835805 	orr	r5, r3, r5, lsl #16
    781c:	e1550002 	cmp	r5, r2
    7820:	2a000004 	bcs	7838 <__udivdi3+0x248>
    7824:	e0955006 	adds	r5, r5, r6
    7828:	e2400001 	sub	r0, r0, #1	; 0x1
    782c:	2a000001 	bcs	7838 <__udivdi3+0x248>
    7830:	e1550002 	cmp	r5, r2
    7834:	32400001 	subcc	r0, r0, #1	; 0x1
    7838:	e180c808 	orr	ip, r0, r8, lsl #16
    783c:	eaffffb5 	b	7718 <__udivdi3+0x128>
    7840:	e2621020 	rsb	r1, r2, #32	; 0x20
    7844:	e1a06216 	mov	r6, r6, lsl r2
    7848:	e1a07138 	mov	r7, r8, lsr r1
    784c:	e1a0a826 	mov	sl, r6, lsr #16
    7850:	e1a03139 	mov	r3, r9, lsr r1
    7854:	e1a00007 	mov	r0, r7
    7858:	e1a0100a 	mov	r1, sl
    785c:	e1838218 	orr	r8, r3, r8, lsl r2
    7860:	e1a09219 	mov	r9, r9, lsl r2
    7864:	eb000606 	bl	9084 <__umodsi3>
    7868:	e1a0100a 	mov	r1, sl
    786c:	e1a04000 	mov	r4, r0
    7870:	e1a00007 	mov	r0, r7
    7874:	ebffff36 	bl	7554 <__udivsi3>
    7878:	e1a05806 	mov	r5, r6, lsl #16
    787c:	e1a05825 	mov	r5, r5, lsr #16
    7880:	e1a02005 	mov	r2, r5
    7884:	e0020290 	mul	r2, r0, r2
    7888:	e1a03828 	mov	r3, r8, lsr #16
    788c:	e1834804 	orr	r4, r3, r4, lsl #16
    7890:	e1540002 	cmp	r4, r2
    7894:	e1a07000 	mov	r7, r0
    7898:	e50b5044 	str	r5, [fp, -#68]
    789c:	e50ba034 	str	sl, [fp, -#52]
    78a0:	e50b5038 	str	r5, [fp, -#56]
    78a4:	2a000005 	bcs	78c0 <__udivdi3+0x2d0>
    78a8:	e0944006 	adds	r4, r4, r6
    78ac:	e2407001 	sub	r7, r0, #1	; 0x1
    78b0:	2a000002 	bcs	78c0 <__udivdi3+0x2d0>
    78b4:	e1540002 	cmp	r4, r2
    78b8:	32477001 	subcc	r7, r7, #1	; 0x1
    78bc:	30844006 	addcc	r4, r4, r6
    78c0:	e0624004 	rsb	r4, r2, r4
    78c4:	e51b1034 	ldr	r1, [fp, -#52]
    78c8:	e1a00004 	mov	r0, r4
    78cc:	eb0005ec 	bl	9084 <__umodsi3>
    78d0:	e51b1034 	ldr	r1, [fp, -#52]
    78d4:	e1a05000 	mov	r5, r0
    78d8:	e1a00004 	mov	r0, r4
    78dc:	ebffff1c 	bl	7554 <__udivsi3>
    78e0:	e51b2038 	ldr	r2, [fp, -#56]
    78e4:	e0020290 	mul	r2, r0, r2
    78e8:	e1a03808 	mov	r3, r8, lsl #16
    78ec:	e1a03823 	mov	r3, r3, lsr #16
    78f0:	e1835805 	orr	r5, r3, r5, lsl #16
    78f4:	e1550002 	cmp	r5, r2
    78f8:	2a000005 	bcs	7914 <__udivdi3+0x324>
    78fc:	e0955006 	adds	r5, r5, r6
    7900:	e2400001 	sub	r0, r0, #1	; 0x1
    7904:	2a000002 	bcs	7914 <__udivdi3+0x324>
    7908:	e1550002 	cmp	r5, r2
    790c:	32400001 	subcc	r0, r0, #1	; 0x1
    7910:	30855006 	addcc	r5, r5, r6
    7914:	e1807807 	orr	r7, r0, r7, lsl #16
    7918:	e0628005 	rsb	r8, r2, r5
    791c:	eaffff9d 	b	7798 <__udivdi3+0x1a8>
    7920:	e3560401 	cmp	r6, #16777216	; 0x1000000
    7924:	23a00018 	movcs	r0, #24	; 0x18
    7928:	33a00010 	movcc	r0, #16	; 0x10
    792c:	eaffff8d 	b	7768 <__udivdi3+0x178>
    7930:	e1540001 	cmp	r4, r1
    7934:	83a07000 	movhi	r7, #0	; 0x0
    7938:	81a0c007 	movhi	ip, r7
    793c:	8affff75 	bhi	7718 <__udivdi3+0x128>
    7940:	e3540801 	cmp	r4, #65536	; 0x10000
    7944:	2a000060 	bcs	7acc <__udivdi3+0x4dc>
    7948:	e35400ff 	cmp	r4, #255	; 0xff
    794c:	83a00008 	movhi	r0, #8	; 0x8
    7950:	93a00000 	movls	r0, #0	; 0x0
    7954:	e59f2180 	ldr	r2, [pc, #384]	; 7adc <__udivdi3+0x4ec>
    7958:	e1a01034 	mov	r1, r4, lsr r0
    795c:	e7d23001 	ldrb	r3, [r2, r1]
    7960:	e0833000 	add	r3, r3, r0
    7964:	e2732020 	rsbs	r2, r3, #32	; 0x20
    7968:	1a000004 	bne	7980 <__udivdi3+0x390>
    796c:	e1580004 	cmp	r8, r4
    7970:	91590006 	cmpls	r9, r6
    7974:	23a0c001 	movcs	ip, #1	; 0x1
    7978:	31a0c002 	movcc	ip, r2
    797c:	eaffff64 	b	7714 <__udivdi3+0x124>
    7980:	e2621020 	rsb	r1, r2, #32	; 0x20
    7984:	e1a03136 	mov	r3, r6, lsr r1
    7988:	e1834214 	orr	r4, r3, r4, lsl r2
    798c:	e1a07138 	mov	r7, r8, lsr r1
    7990:	e1a0a824 	mov	sl, r4, lsr #16
    7994:	e1a03139 	mov	r3, r9, lsr r1
    7998:	e1a0c804 	mov	ip, r4, lsl #16
    799c:	e1a0100a 	mov	r1, sl
    79a0:	e1a00007 	mov	r0, r7
    79a4:	e1838218 	orr	r8, r3, r8, lsl r2
    79a8:	e1a09219 	mov	r9, r9, lsl r2
    79ac:	e1a06216 	mov	r6, r6, lsl r2
    79b0:	e50bc03c 	str	ip, [fp, -#60]
    79b4:	eb0005b2 	bl	9084 <__umodsi3>
    79b8:	e1a0100a 	mov	r1, sl
    79bc:	e1a05000 	mov	r5, r0
    79c0:	e1a00007 	mov	r0, r7
    79c4:	ebfffee2 	bl	7554 <__udivsi3>
    79c8:	e51b303c 	ldr	r3, [fp, -#60]
    79cc:	e1a02000 	mov	r2, r0
    79d0:	e1a03823 	mov	r3, r3, lsr #16
    79d4:	e0020293 	mul	r2, r3, r2
    79d8:	e50b303c 	str	r3, [fp, -#60]
    79dc:	e1a03828 	mov	r3, r8, lsr #16
    79e0:	e1835805 	orr	r5, r3, r5, lsl #16
    79e4:	e1550002 	cmp	r5, r2
    79e8:	e50b0040 	str	r0, [fp, -#64]
    79ec:	2a000007 	bcs	7a10 <__udivdi3+0x420>
    79f0:	e240c001 	sub	ip, r0, #1	; 0x1
    79f4:	e0955004 	adds	r5, r5, r4
    79f8:	e50bc040 	str	ip, [fp, -#64]
    79fc:	2a000003 	bcs	7a10 <__udivdi3+0x420>
    7a00:	e1550002 	cmp	r5, r2
    7a04:	324cc001 	subcc	ip, ip, #1	; 0x1
    7a08:	350bc040 	strcc	ip, [fp, -#64]
    7a0c:	30855004 	addcc	r5, r5, r4
    7a10:	e0625005 	rsb	r5, r2, r5
    7a14:	e1a0100a 	mov	r1, sl
    7a18:	e1a00005 	mov	r0, r5
    7a1c:	eb000598 	bl	9084 <__umodsi3>
    7a20:	e1a0100a 	mov	r1, sl
    7a24:	e1a07000 	mov	r7, r0
    7a28:	e1a00005 	mov	r0, r5
    7a2c:	ebfffec8 	bl	7554 <__udivsi3>
    7a30:	e51b203c 	ldr	r2, [fp, -#60]
    7a34:	e0020290 	mul	r2, r0, r2
    7a38:	e1a03808 	mov	r3, r8, lsl #16
    7a3c:	e1a03823 	mov	r3, r3, lsr #16
    7a40:	e1837807 	orr	r7, r3, r7, lsl #16
    7a44:	e1570002 	cmp	r7, r2
    7a48:	2a000005 	bcs	7a64 <__udivdi3+0x474>
    7a4c:	e0977004 	adds	r7, r7, r4
    7a50:	e2400001 	sub	r0, r0, #1	; 0x1
    7a54:	2a000002 	bcs	7a64 <__udivdi3+0x474>
    7a58:	e1570002 	cmp	r7, r2
    7a5c:	30877004 	addcc	r7, r7, r4
    7a60:	32400001 	subcc	r0, r0, #1	; 0x1
    7a64:	e51b3040 	ldr	r3, [fp, -#64]
    7a68:	e0627007 	rsb	r7, r2, r7
    7a6c:	e180c803 	orr	ip, r0, r3, lsl #16
    7a70:	e1a0082c 	mov	r0, ip, lsr #16
    7a74:	e1a03826 	mov	r3, r6, lsr #16
    7a78:	e1cc1800 	bic	r1, ip, r0, lsl #16
    7a7c:	e1c62803 	bic	r2, r6, r3, lsl #16
    7a80:	e00e0291 	mul	lr, r1, r2
    7a84:	e0020290 	mul	r2, r0, r2
    7a88:	e0010193 	mul	r1, r3, r1
    7a8c:	e0030390 	mul	r3, r0, r3
    7a90:	e0921001 	adds	r1, r2, r1
    7a94:	22833801 	addcs	r3, r3, #65536	; 0x10000
    7a98:	e09ee801 	adds	lr, lr, r1, lsl #16
    7a9c:	e0a33821 	adc	r3, r3, r1, lsr #16
    7aa0:	e1530007 	cmp	r3, r7
    7aa4:	8a000006 	bhi	7ac4 <__udivdi3+0x4d4>
    7aa8:	13a03000 	movne	r3, #0	; 0x0
    7aac:	03a03001 	moveq	r3, #1	; 0x1
    7ab0:	e15e0009 	cmp	lr, r9
    7ab4:	93a03000 	movls	r3, #0	; 0x0
    7ab8:	82033001 	andhi	r3, r3, #1	; 0x1
    7abc:	e3530000 	cmp	r3, #0	; 0x0
    7ac0:	0affff13 	beq	7714 <__udivdi3+0x124>
    7ac4:	e24cc001 	sub	ip, ip, #1	; 0x1
    7ac8:	eaffff11 	b	7714 <__udivdi3+0x124>
    7acc:	e3540401 	cmp	r4, #16777216	; 0x1000000
    7ad0:	23a00018 	movcs	r0, #24	; 0x18
    7ad4:	33a00010 	movcc	r0, #16	; 0x10
    7ad8:	eaffff9d 	b	7954 <__udivdi3+0x364>
    7adc:	00009904 	andeq	r9, r0, r4, lsl #18

00007ae0 <__umoddi3>:
    7ae0:	e1a0c00d 	mov	ip, sp
    7ae4:	e92ddff0 	stmdb	sp!, {r4, r5, r6, r7, r8, r9, sl, fp, ip, lr, pc}
    7ae8:	e24cb004 	sub	fp, ip, #4	; 0x4
    7aec:	e3a06000 	mov	r6, #0	; 0x0
    7af0:	e3a05000 	mov	r5, #0	; 0x0
    7af4:	e24dd028 	sub	sp, sp, #40	; 0x28
    7af8:	e24bc030 	sub	ip, fp, #48	; 0x30
    7afc:	e2534000 	subs	r4, r3, #0	; 0x0
    7b00:	e1a09000 	mov	r9, r0
    7b04:	e90c0060 	stmdb	ip, {r5, r6}
    7b08:	e1a07001 	mov	r7, r1
    7b0c:	e1a06002 	mov	r6, r2
    7b10:	1a0000bc 	bne	7e08 <__umoddi3+0x328>
    7b14:	e1520001 	cmp	r2, r1
    7b18:	9a00004b 	bls	7c4c <__umoddi3+0x16c>
    7b1c:	e3520801 	cmp	r2, #65536	; 0x10000
    7b20:	e1a01002 	mov	r1, r2
    7b24:	2a000044 	bcs	7c3c <__umoddi3+0x15c>
    7b28:	e35200ff 	cmp	r2, #255	; 0xff
    7b2c:	83a00008 	movhi	r0, #8	; 0x8
    7b30:	93a00000 	movls	r0, #0	; 0x0
    7b34:	e59f24f0 	ldr	r2, [pc, #1264]	; 802c <__umoddi3+0x54c>
    7b38:	e1a01031 	mov	r1, r1, lsr r0
    7b3c:	e7d23001 	ldrb	r3, [r2, r1]
    7b40:	e0833000 	add	r3, r3, r0
    7b44:	e2733020 	rsbs	r3, r3, #32	; 0x20
    7b48:	e50b3040 	str	r3, [fp, -#64]
    7b4c:	0a000005 	beq	7b68 <__umoddi3+0x88>
    7b50:	e51b2040 	ldr	r2, [fp, -#64]
    7b54:	e2633020 	rsb	r3, r3, #32	; 0x20
    7b58:	e1a03339 	mov	r3, r9, lsr r3
    7b5c:	e1837217 	orr	r7, r3, r7, lsl r2
    7b60:	e1a06216 	mov	r6, r6, lsl r2
    7b64:	e1a09219 	mov	r9, r9, lsl r2
    7b68:	e1a08826 	mov	r8, r6, lsr #16
    7b6c:	e1a00007 	mov	r0, r7
    7b70:	e1a01008 	mov	r1, r8
    7b74:	eb000542 	bl	9084 <__umodsi3>
    7b78:	e1a01008 	mov	r1, r8
    7b7c:	e1a05000 	mov	r5, r0
    7b80:	e1a00007 	mov	r0, r7
    7b84:	ebfffe72 	bl	7554 <__udivsi3>
    7b88:	e1a07806 	mov	r7, r6, lsl #16
    7b8c:	e1a07827 	mov	r7, r7, lsr #16
    7b90:	e0020097 	mul	r2, r7, r0
    7b94:	e1a03829 	mov	r3, r9, lsr #16
    7b98:	e1835805 	orr	r5, r3, r5, lsl #16
    7b9c:	e1550002 	cmp	r5, r2
    7ba0:	2a000003 	bcs	7bb4 <__umoddi3+0xd4>
    7ba4:	e0955006 	adds	r5, r5, r6
    7ba8:	2a000001 	bcs	7bb4 <__umoddi3+0xd4>
    7bac:	e1550002 	cmp	r5, r2
    7bb0:	30855006 	addcc	r5, r5, r6
    7bb4:	e0625005 	rsb	r5, r2, r5
    7bb8:	e1a01008 	mov	r1, r8
    7bbc:	e1a00005 	mov	r0, r5
    7bc0:	eb00052f 	bl	9084 <__umodsi3>
    7bc4:	e1a01008 	mov	r1, r8
    7bc8:	e1a04000 	mov	r4, r0
    7bcc:	e1a00005 	mov	r0, r5
    7bd0:	ebfffe5f 	bl	7554 <__udivsi3>
    7bd4:	e0020097 	mul	r2, r7, r0
    7bd8:	e1a03809 	mov	r3, r9, lsl #16
    7bdc:	e1a03823 	mov	r3, r3, lsr #16
    7be0:	e1834804 	orr	r4, r3, r4, lsl #16
    7be4:	e1540002 	cmp	r4, r2
    7be8:	2a000003 	bcs	7bfc <__umoddi3+0x11c>
    7bec:	e0944006 	adds	r4, r4, r6
    7bf0:	2a000001 	bcs	7bfc <__umoddi3+0x11c>
    7bf4:	e1540002 	cmp	r4, r2
    7bf8:	30844006 	addcc	r4, r4, r6
    7bfc:	e24b5030 	sub	r5, fp, #48	; 0x30
    7c00:	e3550000 	cmp	r5, #0	; 0x0
    7c04:	e0629004 	rsb	r9, r2, r4
    7c08:	0a000008 	beq	7c30 <__umoddi3+0x150>
    7c0c:	e51b6040 	ldr	r6, [fp, -#64]
    7c10:	e3a0c000 	mov	ip, #0	; 0x0
    7c14:	e1a09639 	mov	r9, r9, lsr r6
    7c18:	e50b9038 	str	r9, [fp, -#56]
    7c1c:	e50bc034 	str	ip, [fp, -#52]
    7c20:	e24b2030 	sub	r2, fp, #48	; 0x30
    7c24:	e912000c 	ldmdb	r2, {r2, r3}
    7c28:	e24b4030 	sub	r4, fp, #48	; 0x30
    7c2c:	e884000c 	stmia	r4, {r2, r3}
    7c30:	e24b3030 	sub	r3, fp, #48	; 0x30
    7c34:	e8930003 	ldmia	r3, {r0, r1}
    7c38:	e91baff0 	ldmdb	fp, {r4, r5, r6, r7, r8, r9, sl, fp, sp, pc}
    7c3c:	e3520401 	cmp	r2, #16777216	; 0x1000000
    7c40:	23a00018 	movcs	r0, #24	; 0x18
    7c44:	33a00010 	movcc	r0, #16	; 0x10
    7c48:	eaffffb9 	b	7b34 <__umoddi3+0x54>
    7c4c:	e3520000 	cmp	r2, #0	; 0x0
    7c50:	1a000003 	bne	7c64 <__umoddi3+0x184>
    7c54:	e1a01002 	mov	r1, r2
    7c58:	e3a00001 	mov	r0, #1	; 0x1
    7c5c:	ebfffe3c 	bl	7554 <__udivsi3>
    7c60:	e1a06000 	mov	r6, r0
    7c64:	e3560801 	cmp	r6, #65536	; 0x10000
    7c68:	2a000062 	bcs	7df8 <__umoddi3+0x318>
    7c6c:	e35600ff 	cmp	r6, #255	; 0xff
    7c70:	83a00008 	movhi	r0, #8	; 0x8
    7c74:	93a00000 	movls	r0, #0	; 0x0
    7c78:	e59f23ac 	ldr	r2, [pc, #940]	; 802c <__umoddi3+0x54c>
    7c7c:	e1a01036 	mov	r1, r6, lsr r0
    7c80:	e7d23001 	ldrb	r3, [r2, r1]
    7c84:	e0833000 	add	r3, r3, r0
    7c88:	e2733020 	rsbs	r3, r3, #32	; 0x20
    7c8c:	e50b3040 	str	r3, [fp, -#64]
    7c90:	1a000020 	bne	7d18 <__umoddi3+0x238>
    7c94:	e1a03806 	mov	r3, r6, lsl #16
    7c98:	e1a03823 	mov	r3, r3, lsr #16
    7c9c:	e0667007 	rsb	r7, r6, r7
    7ca0:	e1a08826 	mov	r8, r6, lsr #16
    7ca4:	e50b3050 	str	r3, [fp, -#80]
    7ca8:	e1a01008 	mov	r1, r8
    7cac:	e1a00007 	mov	r0, r7
    7cb0:	eb0004f3 	bl	9084 <__umodsi3>
    7cb4:	e1a01008 	mov	r1, r8
    7cb8:	e1a05000 	mov	r5, r0
    7cbc:	e1a00007 	mov	r0, r7
    7cc0:	ebfffe23 	bl	7554 <__udivsi3>
    7cc4:	e51b2050 	ldr	r2, [fp, -#80]
    7cc8:	e0020290 	mul	r2, r0, r2
    7ccc:	e1a03829 	mov	r3, r9, lsr #16
    7cd0:	e1835805 	orr	r5, r3, r5, lsl #16
    7cd4:	e1550002 	cmp	r5, r2
    7cd8:	2a000003 	bcs	7cec <__umoddi3+0x20c>
    7cdc:	e0955006 	adds	r5, r5, r6
    7ce0:	2a000001 	bcs	7cec <__umoddi3+0x20c>
    7ce4:	e1550002 	cmp	r5, r2
    7ce8:	30855006 	addcc	r5, r5, r6
    7cec:	e0625005 	rsb	r5, r2, r5
    7cf0:	e1a01008 	mov	r1, r8
    7cf4:	e1a00005 	mov	r0, r5
    7cf8:	eb0004e1 	bl	9084 <__umodsi3>
    7cfc:	e1a01008 	mov	r1, r8
    7d00:	e1a04000 	mov	r4, r0
    7d04:	e1a00005 	mov	r0, r5
    7d08:	ebfffe11 	bl	7554 <__udivsi3>
    7d0c:	e51b2050 	ldr	r2, [fp, -#80]
    7d10:	e0020290 	mul	r2, r0, r2
    7d14:	eaffffaf 	b	7bd8 <__umoddi3+0xf8>
    7d18:	e51b5040 	ldr	r5, [fp, -#64]
    7d1c:	e51b4040 	ldr	r4, [fp, -#64]
    7d20:	e1a06516 	mov	r6, r6, lsl r5
    7d24:	e2644020 	rsb	r4, r4, #32	; 0x20
    7d28:	e1a0a437 	mov	sl, r7, lsr r4
    7d2c:	e1a08826 	mov	r8, r6, lsr #16
    7d30:	e1a03439 	mov	r3, r9, lsr r4
    7d34:	e1a0c806 	mov	ip, r6, lsl #16
    7d38:	e1a0000a 	mov	r0, sl
    7d3c:	e1a01008 	mov	r1, r8
    7d40:	e1837517 	orr	r7, r3, r7, lsl r5
    7d44:	e50b403c 	str	r4, [fp, -#60]
    7d48:	e50bc050 	str	ip, [fp, -#80]
    7d4c:	eb0004cc 	bl	9084 <__umodsi3>
    7d50:	e1a01008 	mov	r1, r8
    7d54:	e1a05000 	mov	r5, r0
    7d58:	e1a0000a 	mov	r0, sl
    7d5c:	ebfffdfc 	bl	7554 <__udivsi3>
    7d60:	e51b2050 	ldr	r2, [fp, -#80]
    7d64:	e1a02822 	mov	r2, r2, lsr #16
    7d68:	e50b2050 	str	r2, [fp, -#80]
    7d6c:	e0020290 	mul	r2, r0, r2
    7d70:	e1a03827 	mov	r3, r7, lsr #16
    7d74:	e1835805 	orr	r5, r3, r5, lsl #16
    7d78:	e51b4050 	ldr	r4, [fp, -#80]
    7d7c:	e51b3040 	ldr	r3, [fp, -#64]
    7d80:	e1550002 	cmp	r5, r2
    7d84:	e1a09319 	mov	r9, r9, lsl r3
    7d88:	e1a0a008 	mov	sl, r8
    7d8c:	e50b4044 	str	r4, [fp, -#68]
    7d90:	2a000003 	bcs	7da4 <__umoddi3+0x2c4>
    7d94:	e0955006 	adds	r5, r5, r6
    7d98:	2a000001 	bcs	7da4 <__umoddi3+0x2c4>
    7d9c:	e1550002 	cmp	r5, r2
    7da0:	30855006 	addcc	r5, r5, r6
    7da4:	e0625005 	rsb	r5, r2, r5
    7da8:	e1a0100a 	mov	r1, sl
    7dac:	e1a00005 	mov	r0, r5
    7db0:	eb0004b3 	bl	9084 <__umodsi3>
    7db4:	e1a0100a 	mov	r1, sl
    7db8:	e1a04000 	mov	r4, r0
    7dbc:	e1a00005 	mov	r0, r5
    7dc0:	ebfffde3 	bl	7554 <__udivsi3>
    7dc4:	e51b2044 	ldr	r2, [fp, -#68]
    7dc8:	e0020290 	mul	r2, r0, r2
    7dcc:	e1a03807 	mov	r3, r7, lsl #16
    7dd0:	e1a03823 	mov	r3, r3, lsr #16
    7dd4:	e1834804 	orr	r4, r3, r4, lsl #16
    7dd8:	e1540002 	cmp	r4, r2
    7ddc:	2a000003 	bcs	7df0 <__umoddi3+0x310>
    7de0:	e0944006 	adds	r4, r4, r6
    7de4:	2a000001 	bcs	7df0 <__umoddi3+0x310>
    7de8:	e1540002 	cmp	r4, r2
    7dec:	30844006 	addcc	r4, r4, r6
    7df0:	e0627004 	rsb	r7, r2, r4
    7df4:	eaffffab 	b	7ca8 <__umoddi3+0x1c8>
    7df8:	e3560401 	cmp	r6, #16777216	; 0x1000000
    7dfc:	23a00018 	movcs	r0, #24	; 0x18
    7e00:	33a00010 	movcc	r0, #16	; 0x10
    7e04:	eaffff9b 	b	7c78 <__umoddi3+0x198>
    7e08:	e1540001 	cmp	r4, r1
    7e0c:	9a000006 	bls	7e2c <__umoddi3+0x34c>
    7e10:	e50b0038 	str	r0, [fp, -#56]
    7e14:	e50b1034 	str	r1, [fp, -#52]
    7e18:	e24b3030 	sub	r3, fp, #48	; 0x30
    7e1c:	e9130018 	ldmdb	r3, {r3, r4}
    7e20:	e24b5030 	sub	r5, fp, #48	; 0x30
    7e24:	e8850018 	stmia	r5, {r3, r4}
    7e28:	eaffff80 	b	7c30 <__umoddi3+0x150>
    7e2c:	e3540801 	cmp	r4, #65536	; 0x10000
    7e30:	2a000079 	bcs	801c <__umoddi3+0x53c>
    7e34:	e35400ff 	cmp	r4, #255	; 0xff
    7e38:	83a00008 	movhi	r0, #8	; 0x8
    7e3c:	93a00000 	movls	r0, #0	; 0x0
    7e40:	e59f21e4 	ldr	r2, [pc, #484]	; 802c <__umoddi3+0x54c>
    7e44:	e1a01034 	mov	r1, r4, lsr r0
    7e48:	e7d23001 	ldrb	r3, [r2, r1]
    7e4c:	e0833000 	add	r3, r3, r0
    7e50:	e2733020 	rsbs	r3, r3, #32	; 0x20
    7e54:	e50b3040 	str	r3, [fp, -#64]
    7e58:	1a00000b 	bne	7e8c <__umoddi3+0x3ac>
    7e5c:	e1570004 	cmp	r7, r4
    7e60:	91590006 	cmpls	r9, r6
    7e64:	3a000002 	bcc	7e74 <__umoddi3+0x394>
    7e68:	e0595006 	subs	r5, r9, r6
    7e6c:	e0c77004 	sbc	r7, r7, r4
    7e70:	e1a09005 	mov	r9, r5
    7e74:	e24b6030 	sub	r6, fp, #48	; 0x30
    7e78:	e3560000 	cmp	r6, #0	; 0x0
    7e7c:	150b9038 	strne	r9, [fp, -#56]
    7e80:	0affff6a 	beq	7c30 <__umoddi3+0x150>
    7e84:	e50b7034 	str	r7, [fp, -#52]
    7e88:	eaffff64 	b	7c20 <__umoddi3+0x140>
    7e8c:	e51b3040 	ldr	r3, [fp, -#64]
    7e90:	e2633020 	rsb	r3, r3, #32	; 0x20
    7e94:	e50b303c 	str	r3, [fp, -#60]
    7e98:	e24b5040 	sub	r5, fp, #64	; 0x40
    7e9c:	e8951020 	ldmia	r5, {r5, ip}
    7ea0:	e1a03336 	mov	r3, r6, lsr r3
    7ea4:	e1834514 	orr	r4, r3, r4, lsl r5
    7ea8:	e1a0ac37 	mov	sl, r7, lsr ip
    7eac:	e1a03c39 	mov	r3, r9, lsr ip
    7eb0:	e1a02824 	mov	r2, r4, lsr #16
    7eb4:	e1a01002 	mov	r1, r2
    7eb8:	e1837517 	orr	r7, r3, r7, lsl r5
    7ebc:	e1a0000a 	mov	r0, sl
    7ec0:	e1a03804 	mov	r3, r4, lsl #16
    7ec4:	e50b2048 	str	r2, [fp, -#72]
    7ec8:	e50b304c 	str	r3, [fp, -#76]
    7ecc:	eb00046c 	bl	9084 <__umodsi3>
    7ed0:	e51b1048 	ldr	r1, [fp, -#72]
    7ed4:	e1a08000 	mov	r8, r0
    7ed8:	e1a0000a 	mov	r0, sl
    7edc:	ebfffd9c 	bl	7554 <__udivsi3>
    7ee0:	e51b504c 	ldr	r5, [fp, -#76]
    7ee4:	e1a05825 	mov	r5, r5, lsr #16
    7ee8:	e1a02005 	mov	r2, r5
    7eec:	e0020290 	mul	r2, r0, r2
    7ef0:	e1a03827 	mov	r3, r7, lsr #16
    7ef4:	e51bc040 	ldr	ip, [fp, -#64]
    7ef8:	e1838808 	orr	r8, r3, r8, lsl #16
    7efc:	e1580002 	cmp	r8, r2
    7f00:	e1a0a000 	mov	sl, r0
    7f04:	e50b504c 	str	r5, [fp, -#76]
    7f08:	e1a06c16 	mov	r6, r6, lsl ip
    7f0c:	e1a09c19 	mov	r9, r9, lsl ip
    7f10:	2a000005 	bcs	7f2c <__umoddi3+0x44c>
    7f14:	e0988004 	adds	r8, r8, r4
    7f18:	e240a001 	sub	sl, r0, #1	; 0x1
    7f1c:	2a000002 	bcs	7f2c <__umoddi3+0x44c>
    7f20:	e1580002 	cmp	r8, r2
    7f24:	324aa001 	subcc	sl, sl, #1	; 0x1
    7f28:	30888004 	addcc	r8, r8, r4
    7f2c:	e0628008 	rsb	r8, r2, r8
    7f30:	e51b1048 	ldr	r1, [fp, -#72]
    7f34:	e1a00008 	mov	r0, r8
    7f38:	eb000451 	bl	9084 <__umodsi3>
    7f3c:	e51b1048 	ldr	r1, [fp, -#72]
    7f40:	e1a05000 	mov	r5, r0
    7f44:	e1a00008 	mov	r0, r8
    7f48:	ebfffd81 	bl	7554 <__udivsi3>
    7f4c:	e51b204c 	ldr	r2, [fp, -#76]
    7f50:	e0020290 	mul	r2, r0, r2
    7f54:	e1a03807 	mov	r3, r7, lsl #16
    7f58:	e1a03823 	mov	r3, r3, lsr #16
    7f5c:	e1835805 	orr	r5, r3, r5, lsl #16
    7f60:	e1550002 	cmp	r5, r2
    7f64:	2a000005 	bcs	7f80 <__umoddi3+0x4a0>
    7f68:	e0955004 	adds	r5, r5, r4
    7f6c:	e2400001 	sub	r0, r0, #1	; 0x1
    7f70:	2a000002 	bcs	7f80 <__umoddi3+0x4a0>
    7f74:	e1550002 	cmp	r5, r2
    7f78:	32400001 	subcc	r0, r0, #1	; 0x1
    7f7c:	30855004 	addcc	r5, r5, r4
    7f80:	e0625005 	rsb	r5, r2, r5
    7f84:	e180380a 	orr	r3, r0, sl, lsl #16
    7f88:	e1a00823 	mov	r0, r3, lsr #16
    7f8c:	e1a0c826 	mov	ip, r6, lsr #16
    7f90:	e1c31800 	bic	r1, r3, r0, lsl #16
    7f94:	e1c6280c 	bic	r2, r6, ip, lsl #16
    7f98:	e00e0291 	mul	lr, r1, r2
    7f9c:	e0020290 	mul	r2, r0, r2
    7fa0:	e001019c 	mul	r1, ip, r1
    7fa4:	e00c0c90 	mul	ip, r0, ip
    7fa8:	e0921001 	adds	r1, r2, r1
    7fac:	228cc801 	addcs	ip, ip, #65536	; 0x10000
    7fb0:	e09ee801 	adds	lr, lr, r1, lsl #16
    7fb4:	e0acc821 	adc	ip, ip, r1, lsr #16
    7fb8:	e15c0005 	cmp	ip, r5
    7fbc:	8a000006 	bhi	7fdc <__umoddi3+0x4fc>
    7fc0:	13a03000 	movne	r3, #0	; 0x0
    7fc4:	03a03001 	moveq	r3, #1	; 0x1
    7fc8:	e15e0009 	cmp	lr, r9
    7fcc:	93a03000 	movls	r3, #0	; 0x0
    7fd0:	82033001 	andhi	r3, r3, #1	; 0x1
    7fd4:	e3530000 	cmp	r3, #0	; 0x0
    7fd8:	0a000002 	beq	7fe8 <__umoddi3+0x508>
    7fdc:	e05e2006 	subs	r2, lr, r6
    7fe0:	e0ccc004 	sbc	ip, ip, r4
    7fe4:	e1a0e002 	mov	lr, r2
    7fe8:	e24b3030 	sub	r3, fp, #48	; 0x30
    7fec:	e3530000 	cmp	r3, #0	; 0x0
    7ff0:	0affff0e 	beq	7c30 <__umoddi3+0x150>
    7ff4:	e059400e 	subs	r4, r9, lr
    7ff8:	e0c5700c 	sbc	r7, r5, ip
    7ffc:	e24b5040 	sub	r5, fp, #64	; 0x40
    8000:	e8950060 	ldmia	r5, {r5, r6}
    8004:	e1a03534 	mov	r3, r4, lsr r5
    8008:	e1833617 	orr	r3, r3, r7, lsl r6
    800c:	e50b3038 	str	r3, [fp, -#56]
    8010:	e1a09004 	mov	r9, r4
    8014:	e1a07537 	mov	r7, r7, lsr r5
    8018:	eaffff99 	b	7e84 <__umoddi3+0x3a4>
    801c:	e3540401 	cmp	r4, #16777216	; 0x1000000
    8020:	23a00018 	movcs	r0, #24	; 0x18
    8024:	33a00010 	movcc	r0, #16	; 0x10
    8028:	eaffff84 	b	7e40 <__umoddi3+0x360>
    802c:	00009904 	andeq	r9, r0, r4, lsl #18

00008030 <_fpadd_parts>:
    8030:	e1a0c00d 	mov	ip, sp
    8034:	e92ddff0 	stmdb	sp!, {r4, r5, r6, r7, r8, r9, sl, fp, ip, lr, pc}
    8038:	e24cb004 	sub	fp, ip, #4	; 0x4
    803c:	e24dd010 	sub	sp, sp, #16	; 0x10
    8040:	e1a07001 	mov	r7, r1
    8044:	e1a08002 	mov	r8, r2
    8048:	e1a06000 	mov	r6, r0
    804c:	eb000101 	bl	8458 <isnan>
    8050:	e3500000 	cmp	r0, #0	; 0x0
    8054:	0a000001 	beq	8060 <_fpadd_parts+0x30>
    8058:	e1a00006 	mov	r0, r6
    805c:	e91baff0 	ldmdb	fp, {r4, r5, r6, r7, r8, r9, sl, fp, sp, pc}
    8060:	e1a00007 	mov	r0, r7
    8064:	eb0000fb 	bl	8458 <isnan>
    8068:	e3500000 	cmp	r0, #0	; 0x0
    806c:	0a000001 	beq	8078 <_fpadd_parts+0x48>
    8070:	e1a00007 	mov	r0, r7
    8074:	e91baff0 	ldmdb	fp, {r4, r5, r6, r7, r8, r9, sl, fp, sp, pc}
    8078:	e1a00006 	mov	r0, r6
    807c:	eb0000fa 	bl	846c <isinf>
    8080:	e3500000 	cmp	r0, #0	; 0x0
    8084:	0a000009 	beq	80b0 <_fpadd_parts+0x80>
    8088:	e1a00007 	mov	r0, r7
    808c:	eb0000f6 	bl	846c <isinf>
    8090:	e3500000 	cmp	r0, #0	; 0x0
    8094:	0affffef 	beq	8058 <_fpadd_parts+0x28>
    8098:	e5972004 	ldr	r2, [r7, #4]
    809c:	e5963004 	ldr	r3, [r6, #4]
    80a0:	e1530002 	cmp	r3, r2
    80a4:	0affffeb 	beq	8058 <_fpadd_parts+0x28>
    80a8:	e91b6ff0 	ldmdb	fp, {r4, r5, r6, r7, r8, r9, sl, fp, sp, lr}
    80ac:	ea0000e6 	b	844c <nan>
    80b0:	e1a00007 	mov	r0, r7
    80b4:	eb0000ec 	bl	846c <isinf>
    80b8:	e3500000 	cmp	r0, #0	; 0x0
    80bc:	1affffeb 	bne	8070 <_fpadd_parts+0x40>
    80c0:	e1a00007 	mov	r0, r7
    80c4:	eb0000ed 	bl	8480 <iszero>
    80c8:	e3500000 	cmp	r0, #0	; 0x0
    80cc:	0a00000f 	beq	8110 <_fpadd_parts+0xe0>
    80d0:	e1a00006 	mov	r0, r6
    80d4:	eb0000e9 	bl	8480 <iszero>
    80d8:	e3500000 	cmp	r0, #0	; 0x0
    80dc:	0affffdd 	beq	8058 <_fpadd_parts+0x28>
    80e0:	e1a0e006 	mov	lr, r6
    80e4:	e8be000f 	ldmia	lr!, {r0, r1, r2, r3}
    80e8:	e1a0c008 	mov	ip, r8
    80ec:	e8ac000f 	stmia	ip!, {r0, r1, r2, r3}
    80f0:	e59e3000 	ldr	r3, [lr]
    80f4:	e58c3000 	str	r3, [ip]
    80f8:	e5962004 	ldr	r2, [r6, #4]
    80fc:	e5973004 	ldr	r3, [r7, #4]
    8100:	e1a00008 	mov	r0, r8
    8104:	e0022003 	and	r2, r2, r3
    8108:	e5882004 	str	r2, [r8, #4]
    810c:	e91baff0 	ldmdb	fp, {r4, r5, r6, r7, r8, r9, sl, fp, sp, pc}
    8110:	e1a00006 	mov	r0, r6
    8114:	eb0000d9 	bl	8480 <iszero>
    8118:	e3500000 	cmp	r0, #0	; 0x0
    811c:	1affffd3 	bne	8070 <_fpadd_parts+0x40>
    8120:	e286200c 	add	r2, r6, #12	; 0xc
    8124:	e5960008 	ldr	r0, [r6, #8]
    8128:	e597c008 	ldr	ip, [r7, #8]
    812c:	e8920030 	ldmia	r2, {r4, r5}
    8130:	e24be030 	sub	lr, fp, #48	; 0x30
    8134:	e06c3000 	rsb	r3, ip, r0
    8138:	e88e0030 	stmia	lr, {r4, r5}
    813c:	e3530000 	cmp	r3, #0	; 0x0
    8140:	b2633000 	rsblt	r3, r3, #0	; 0x0
    8144:	e353003f 	cmp	r3, #63	; 0x3f
    8148:	e287300c 	add	r3, r7, #12	; 0xc
    814c:	e8930600 	ldmia	r3, {r9, sl}
    8150:	ca000080 	bgt	8358 <_fpadd_parts+0x328>
    8154:	e150000c 	cmp	r0, ip
    8158:	da00000c 	ble	8190 <_fpadd_parts+0x160>
    815c:	e06cc000 	rsb	ip, ip, r0
    8160:	e3a02000 	mov	r2, #0	; 0x0
    8164:	e3a01001 	mov	r1, #1	; 0x1
    8168:	e1a030a9 	mov	r3, r9, lsr #1
    816c:	e0094001 	and	r4, r9, r1
    8170:	e00a5002 	and	r5, sl, r2
    8174:	e1831f8a 	orr	r1, r3, sl, lsl #31
    8178:	e1a020aa 	mov	r2, sl, lsr #1
    817c:	e25cc001 	subs	ip, ip, #1	; 0x1
    8180:	e1849001 	orr	r9, r4, r1
    8184:	e185a002 	orr	sl, r5, r2
    8188:	1afffff4 	bne	8160 <_fpadd_parts+0x130>
    818c:	e1a0c000 	mov	ip, r0
    8190:	e15c0000 	cmp	ip, r0
    8194:	da000015 	ble	81f0 <_fpadd_parts+0x1c0>
    8198:	e060000c 	rsb	r0, r0, ip
    819c:	e51b2030 	ldr	r2, [fp, -#48]
    81a0:	e24b1030 	sub	r1, fp, #48	; 0x30
    81a4:	e8910030 	ldmia	r1, {r4, r5}
    81a8:	e1a030a2 	mov	r3, r2, lsr #1
    81ac:	e3a02000 	mov	r2, #0	; 0x0
    81b0:	e3a01001 	mov	r1, #1	; 0x1
    81b4:	e0044001 	and	r4, r4, r1
    81b8:	e0055002 	and	r5, r5, r2
    81bc:	e24b2030 	sub	r2, fp, #48	; 0x30
    81c0:	e9020030 	stmdb	r2, {r4, r5}
    81c4:	e51b402c 	ldr	r4, [fp, -#44]
    81c8:	e24b5030 	sub	r5, fp, #48	; 0x30
    81cc:	e1831f84 	orr	r1, r3, r4, lsl #31
    81d0:	e1a020a4 	mov	r2, r4, lsr #1
    81d4:	e9150018 	ldmdb	r5, {r3, r4}
    81d8:	e2500001 	subs	r0, r0, #1	; 0x1
    81dc:	e1833001 	orr	r3, r3, r1
    81e0:	e1844002 	orr	r4, r4, r2
    81e4:	e8850018 	stmia	r5, {r3, r4}
    81e8:	01a0000c 	moveq	r0, ip
    81ec:	1affffea 	bne	819c <_fpadd_parts+0x16c>
    81f0:	e5961004 	ldr	r1, [r6, #4]
    81f4:	e5973004 	ldr	r3, [r7, #4]
    81f8:	e1510003 	cmp	r1, r3
    81fc:	0a00004c 	beq	8334 <_fpadd_parts+0x304>
    8200:	e3510000 	cmp	r1, #0	; 0x0
    8204:	0a000045 	beq	8320 <_fpadd_parts+0x2f0>
    8208:	e24be030 	sub	lr, fp, #48	; 0x30
    820c:	e89e0030 	ldmia	lr, {r4, r5}
    8210:	e0594004 	subs	r4, r9, r4
    8214:	e0ca5005 	sbc	r5, sl, r5
    8218:	e3550000 	cmp	r5, #0	; 0x0
    821c:	ba000035 	blt	82f8 <_fpadd_parts+0x2c8>
    8220:	e288700c 	add	r7, r8, #12	; 0xc
    8224:	e3a03000 	mov	r3, #0	; 0x0
    8228:	e5883004 	str	r3, [r8, #4]
    822c:	e5880008 	str	r0, [r8, #8]
    8230:	e8870030 	stmia	r7, {r4, r5}
    8234:	e8970006 	ldmia	r7, {r1, r2}
    8238:	e3e04000 	mvn	r4, #0	; 0x0
    823c:	e3e03000 	mvn	r3, #0	; 0x0
    8240:	e0911003 	adds	r1, r1, r3
    8244:	e0a22004 	adc	r2, r2, r4
    8248:	e372021f 	cmn	r2, #-268435455	; 0xf0000001
    824c:	8a000011 	bhi	8298 <_fpadd_parts+0x268>
    8250:	0a000025 	beq	82ec <_fpadd_parts+0x2bc>
    8254:	e8970018 	ldmia	r7, {r3, r4}
    8258:	e1a02084 	mov	r2, r4, lsl #1
    825c:	e1824fa3 	orr	r4, r2, r3, lsr #31
    8260:	e3e01000 	mvn	r1, #0	; 0x0
    8264:	e3e00000 	mvn	r0, #0	; 0x0
    8268:	e1a03083 	mov	r3, r3, lsl #1
    826c:	e5982008 	ldr	r2, [r8, #8]
    8270:	e0900003 	adds	r0, r0, r3
    8274:	e0a11004 	adc	r1, r1, r4
    8278:	e2422001 	sub	r2, r2, #1	; 0x1
    827c:	e371021f 	cmn	r1, #-268435455	; 0xf0000001
    8280:	e5882008 	str	r2, [r8, #8]
    8284:	e8870018 	stmia	r7, {r3, r4}
    8288:	8a000002 	bhi	8298 <_fpadd_parts+0x268>
    828c:	1afffff0 	bne	8254 <_fpadd_parts+0x224>
    8290:	e3700002 	cmn	r0, #2	; 0x2
    8294:	9affffee 	bls	8254 <_fpadd_parts+0x224>
    8298:	e5973004 	ldr	r3, [r7, #4]
    829c:	e3a02003 	mov	r2, #3	; 0x3
    82a0:	e373021e 	cmn	r3, #-536870911	; 0xe0000001
    82a4:	e5882000 	str	r2, [r8]
    82a8:	9a00000d 	bls	82e4 <_fpadd_parts+0x2b4>
    82ac:	e8970006 	ldmia	r7, {r1, r2}
    82b0:	e3a04000 	mov	r4, #0	; 0x0
    82b4:	e3a03001 	mov	r3, #1	; 0x1
    82b8:	e1a0c0a1 	mov	ip, r1, lsr #1
    82bc:	e0015003 	and	r5, r1, r3
    82c0:	e0026004 	and	r6, r2, r4
    82c4:	e5980008 	ldr	r0, [r8, #8]
    82c8:	e18c3f82 	orr	r3, ip, r2, lsl #31
    82cc:	e1a040a2 	mov	r4, r2, lsr #1
    82d0:	e1851003 	orr	r1, r5, r3
    82d4:	e1862004 	orr	r2, r6, r4
    82d8:	e2800001 	add	r0, r0, #1	; 0x1
    82dc:	e8870006 	stmia	r7, {r1, r2}
    82e0:	e5880008 	str	r0, [r8, #8]
    82e4:	e1a00008 	mov	r0, r8
    82e8:	e91baff0 	ldmdb	fp, {r4, r5, r6, r7, r8, r9, sl, fp, sp, pc}
    82ec:	e3710002 	cmn	r1, #2	; 0x2
    82f0:	9affffd7 	bls	8254 <_fpadd_parts+0x224>
    82f4:	eaffffe7 	b	8298 <_fpadd_parts+0x268>
    82f8:	e1a03004 	mov	r3, r4
    82fc:	e1a04005 	mov	r4, r5
    8300:	e2733000 	rsbs	r3, r3, #0	; 0x0
    8304:	e2e44000 	rsc	r4, r4, #0	; 0x0
    8308:	e288700c 	add	r7, r8, #12	; 0xc
    830c:	e3a02001 	mov	r2, #1	; 0x1
    8310:	e8870018 	stmia	r7, {r3, r4}
    8314:	e5882004 	str	r2, [r8, #4]
    8318:	e5880008 	str	r0, [r8, #8]
    831c:	eaffffc4 	b	8234 <_fpadd_parts+0x204>
    8320:	e24b1030 	sub	r1, fp, #48	; 0x30
    8324:	e8910030 	ldmia	r1, {r4, r5}
    8328:	e0544009 	subs	r4, r4, r9
    832c:	e0c5500a 	sbc	r5, r5, sl
    8330:	eaffffb8 	b	8218 <_fpadd_parts+0x1e8>
    8334:	e24b4030 	sub	r4, fp, #48	; 0x30
    8338:	e894000c 	ldmia	r4, {r2, r3}
    833c:	e0922009 	adds	r2, r2, r9
    8340:	e0a3300a 	adc	r3, r3, sl
    8344:	e288700c 	add	r7, r8, #12	; 0xc
    8348:	e887000c 	stmia	r7, {r2, r3}
    834c:	e5881004 	str	r1, [r8, #4]
    8350:	e5880008 	str	r0, [r8, #8]
    8354:	eaffffcf 	b	8298 <_fpadd_parts+0x268>
    8358:	e150000c 	cmp	r0, ip
    835c:	c3a0a000 	movgt	sl, #0	; 0x0
    8360:	c3a09000 	movgt	r9, #0	; 0x0
    8364:	caffffa1 	bgt	81f0 <_fpadd_parts+0x1c0>
    8368:	e3a02000 	mov	r2, #0	; 0x0
    836c:	e3a01000 	mov	r1, #0	; 0x0
    8370:	e24b3030 	sub	r3, fp, #48	; 0x30
    8374:	e8830006 	stmia	r3, {r1, r2}
    8378:	e1a0000c 	mov	r0, ip
    837c:	eaffff9b 	b	81f0 <_fpadd_parts+0x1c0>

00008380 <__adddf3>:
    8380:	e1a0c00d 	mov	ip, sp
    8384:	e92dd9f0 	stmdb	sp!, {r4, r5, r6, r7, r8, fp, ip, lr, pc}
    8388:	e24cb004 	sub	fp, ip, #4	; 0x4
    838c:	e24bc064 	sub	ip, fp, #100	; 0x64
    8390:	e24dd04c 	sub	sp, sp, #76	; 0x4c
    8394:	e24b8034 	sub	r8, fp, #52	; 0x34
    8398:	e1a05001 	mov	r5, r1
    839c:	e1a04000 	mov	r4, r0
    83a0:	e24b606c 	sub	r6, fp, #108	; 0x6c
    83a4:	e1a0000c 	mov	r0, ip
    83a8:	e1a01008 	mov	r1, r8
    83ac:	e24b7048 	sub	r7, fp, #72	; 0x48
    83b0:	e886000c 	stmia	r6, {r2, r3}
    83b4:	e88c0030 	stmia	ip, {r4, r5}
    83b8:	eb00041a 	bl	9428 <__unpack_d>
    83bc:	e1a00006 	mov	r0, r6
    83c0:	e1a01007 	mov	r1, r7
    83c4:	eb000417 	bl	9428 <__unpack_d>
    83c8:	e1a01007 	mov	r1, r7
    83cc:	e24b205c 	sub	r2, fp, #92	; 0x5c
    83d0:	e1a00008 	mov	r0, r8
    83d4:	ebffff15 	bl	8030 <_fpadd_parts>
    83d8:	eb00036d 	bl	9194 <__pack_d>
    83dc:	e91ba9f0 	ldmdb	fp, {r4, r5, r6, r7, r8, fp, sp, pc}

000083e0 <__subdf3>:
    83e0:	e1a0c00d 	mov	ip, sp
    83e4:	e92dd9f0 	stmdb	sp!, {r4, r5, r6, r7, r8, fp, ip, lr, pc}
    83e8:	e24cb004 	sub	fp, ip, #4	; 0x4
    83ec:	e24bc064 	sub	ip, fp, #100	; 0x64
    83f0:	e24dd04c 	sub	sp, sp, #76	; 0x4c
    83f4:	e24b8034 	sub	r8, fp, #52	; 0x34
    83f8:	e1a05001 	mov	r5, r1
    83fc:	e1a04000 	mov	r4, r0
    8400:	e24b606c 	sub	r6, fp, #108	; 0x6c
    8404:	e1a0000c 	mov	r0, ip
    8408:	e1a01008 	mov	r1, r8
    840c:	e24b7048 	sub	r7, fp, #72	; 0x48
    8410:	e886000c 	stmia	r6, {r2, r3}
    8414:	e88c0030 	stmia	ip, {r4, r5}
    8418:	eb000402 	bl	9428 <__unpack_d>
    841c:	e1a00006 	mov	r0, r6
    8420:	e1a01007 	mov	r1, r7
    8424:	eb0003ff 	bl	9428 <__unpack_d>
    8428:	e51b3044 	ldr	r3, [fp, -#68]
    842c:	e1a01007 	mov	r1, r7
    8430:	e2233001 	eor	r3, r3, #1	; 0x1
    8434:	e24b205c 	sub	r2, fp, #92	; 0x5c
    8438:	e1a00008 	mov	r0, r8
    843c:	e50b3044 	str	r3, [fp, -#68]
    8440:	ebfffefa 	bl	8030 <_fpadd_parts>
    8444:	eb000352 	bl	9194 <__pack_d>
    8448:	e91ba9f0 	ldmdb	fp, {r4, r5, r6, r7, r8, fp, sp, pc}

0000844c <nan>:
    844c:	e59f0000 	ldr	r0, [pc, #0]	; 8454 <nan+0x8>
    8450:	e1a0f00e 	mov	pc, lr
    8454:	000098f0 	streqd	r9, [r0], -r0

00008458 <isnan>:
    8458:	e5900000 	ldr	r0, [r0]
    845c:	e3500001 	cmp	r0, #1	; 0x1
    8460:	83a00000 	movhi	r0, #0	; 0x0
    8464:	93a00001 	movls	r0, #1	; 0x1
    8468:	e1a0f00e 	mov	pc, lr

0000846c <isinf>:
    846c:	e5900000 	ldr	r0, [r0]
    8470:	e3500004 	cmp	r0, #4	; 0x4
    8474:	13a00000 	movne	r0, #0	; 0x0
    8478:	03a00001 	moveq	r0, #1	; 0x1
    847c:	e1a0f00e 	mov	pc, lr

00008480 <iszero>:
    8480:	e5900000 	ldr	r0, [r0]
    8484:	e3500002 	cmp	r0, #2	; 0x2
    8488:	13a00000 	movne	r0, #0	; 0x0
    848c:	03a00001 	moveq	r0, #1	; 0x1
    8490:	e1a0f00e 	mov	pc, lr

00008494 <__muldf3>:
    8494:	e1a0c00d 	mov	ip, sp
    8498:	e92ddff0 	stmdb	sp!, {r4, r5, r6, r7, r8, r9, sl, fp, ip, lr, pc}
    849c:	e24cb004 	sub	fp, ip, #4	; 0x4
    84a0:	e24bc06c 	sub	ip, fp, #108	; 0x6c
    84a4:	e24dd084 	sub	sp, sp, #132	; 0x84
    84a8:	e1a05001 	mov	r5, r1
    84ac:	e1a04000 	mov	r4, r0
    84b0:	e24b703c 	sub	r7, fp, #60	; 0x3c
    84b4:	e24b6074 	sub	r6, fp, #116	; 0x74
    84b8:	e1a0000c 	mov	r0, ip
    84bc:	e1a01007 	mov	r1, r7
    84c0:	e88c0030 	stmia	ip, {r4, r5}
    84c4:	e886000c 	stmia	r6, {r2, r3}
    84c8:	e24ba050 	sub	sl, fp, #80	; 0x50
    84cc:	eb0003d5 	bl	9428 <__unpack_d>
    84d0:	e1a00006 	mov	r0, r6
    84d4:	e1a0100a 	mov	r1, sl
    84d8:	eb0003d2 	bl	9428 <__unpack_d>
    84dc:	e1a00007 	mov	r0, r7
    84e0:	eb0000df 	bl	8864 <isnan>
    84e4:	e3500000 	cmp	r0, #0	; 0x0
    84e8:	e3a09000 	mov	r9, #0	; 0x0
    84ec:	e3a08000 	mov	r8, #0	; 0x0
    84f0:	0a000007 	beq	8514 <__muldf3+0x80>
    84f4:	e51b3038 	ldr	r3, [fp, -#56]
    84f8:	e51b204c 	ldr	r2, [fp, -#76]
    84fc:	e1a00007 	mov	r0, r7
    8500:	e0533002 	subs	r3, r3, r2
    8504:	13a03001 	movne	r3, #1	; 0x1
    8508:	e50b3038 	str	r3, [fp, -#56]
    850c:	eb000320 	bl	9194 <__pack_d>
    8510:	e91baff0 	ldmdb	fp, {r4, r5, r6, r7, r8, r9, sl, fp, sp, pc}
    8514:	e1a0000a 	mov	r0, sl
    8518:	eb0000d1 	bl	8864 <isnan>
    851c:	e3500000 	cmp	r0, #0	; 0x0
    8520:	0a000006 	beq	8540 <__muldf3+0xac>
    8524:	e51b204c 	ldr	r2, [fp, -#76]
    8528:	e51b3038 	ldr	r3, [fp, -#56]
    852c:	e1a0000a 	mov	r0, sl
    8530:	e0533002 	subs	r3, r3, r2
    8534:	13a03001 	movne	r3, #1	; 0x1
    8538:	e50b304c 	str	r3, [fp, -#76]
    853c:	eafffff2 	b	850c <__muldf3+0x78>
    8540:	e1a00007 	mov	r0, r7
    8544:	eb0000cb 	bl	8878 <isinf>
    8548:	e3500000 	cmp	r0, #0	; 0x0
    854c:	0a000005 	beq	8568 <__muldf3+0xd4>
    8550:	e1a0000a 	mov	r0, sl
    8554:	eb0000cc 	bl	888c <iszero>
    8558:	e3500000 	cmp	r0, #0	; 0x0
    855c:	0affffe4 	beq	84f4 <__muldf3+0x60>
    8560:	eb0000bc 	bl	8858 <nan>
    8564:	eaffffe8 	b	850c <__muldf3+0x78>
    8568:	e1a0000a 	mov	r0, sl
    856c:	eb0000c1 	bl	8878 <isinf>
    8570:	e3500000 	cmp	r0, #0	; 0x0
    8574:	0a000004 	beq	858c <__muldf3+0xf8>
    8578:	e1a00007 	mov	r0, r7
    857c:	eb0000c2 	bl	888c <iszero>
    8580:	e3500000 	cmp	r0, #0	; 0x0
    8584:	0affffe6 	beq	8524 <__muldf3+0x90>
    8588:	eafffff4 	b	8560 <__muldf3+0xcc>
    858c:	e1a00007 	mov	r0, r7
    8590:	eb0000bd 	bl	888c <iszero>
    8594:	e3500000 	cmp	r0, #0	; 0x0
    8598:	1affffd5 	bne	84f4 <__muldf3+0x60>
    859c:	e1a0000a 	mov	r0, sl
    85a0:	eb0000b9 	bl	888c <iszero>
    85a4:	e3500000 	cmp	r0, #0	; 0x0
    85a8:	1affffdd 	bne	8524 <__muldf3+0x90>
    85ac:	e24b3044 	sub	r3, fp, #68	; 0x44
    85b0:	e8930006 	ldmia	r3, {r1, r2}
    85b4:	e51bc030 	ldr	ip, [fp, -#48]
    85b8:	e1a01002 	mov	r1, r2
    85bc:	e0832c91 	umull	r2, r3, r1, ip
    85c0:	e24b4080 	sub	r4, fp, #128	; 0x80
    85c4:	e804000c 	stmda	r4, {r2, r3}
    85c8:	e24b2030 	sub	r2, fp, #48	; 0x30
    85cc:	e8920060 	ldmia	r2, {r5, r6}
    85d0:	e1a03006 	mov	r3, r6
    85d4:	e1a0e003 	mov	lr, r3
    85d8:	e24b3080 	sub	r3, fp, #128	; 0x80
    85dc:	e51b0044 	ldr	r0, [fp, -#68]
    85e0:	e8130060 	ldmda	r3, {r5, r6}
    85e4:	e0a6509e 	umlal	r5, r6, lr, r0
    85e8:	e0832e91 	umull	r2, r3, r1, lr
    85ec:	e51b4080 	ldr	r4, [fp, -#128]
    85f0:	e24be090 	sub	lr, fp, #144	; 0x90
    85f4:	e1540006 	cmp	r4, r6
    85f8:	e24b4090 	sub	r4, fp, #144	; 0x90
    85fc:	e984000c 	stmib	r4, {r2, r3}
    8600:	e80e0300 	stmda	lr, {r8, r9}
    8604:	e0821c90 	umull	r1, r2, r0, ip
    8608:	8a000003 	bhi	861c <__muldf3+0x188>
    860c:	1a000006 	bne	862c <__muldf3+0x198>
    8610:	e51b0084 	ldr	r0, [fp, -#132]
    8614:	e1500005 	cmp	r0, r5
    8618:	9a000003 	bls	862c <__muldf3+0x198>
    861c:	e28f3f89 	add	r3, pc, #548	; 0x224
    8620:	e8930018 	ldmia	r3, {r3, r4}
    8624:	e24bc090 	sub	ip, fp, #144	; 0x90
    8628:	e80c0018 	stmda	ip, {r3, r4}
    862c:	e1a03005 	mov	r3, r5
    8630:	e3a04000 	mov	r4, #0	; 0x0
    8634:	e3a0e000 	mov	lr, #0	; 0x0
    8638:	e50b3080 	str	r3, [fp, -#128]
    863c:	e50be084 	str	lr, [fp, -#132]
    8640:	e24b3080 	sub	r3, fp, #128	; 0x80
    8644:	e8130018 	ldmda	r3, {r3, r4}
    8648:	e0933001 	adds	r3, r3, r1
    864c:	e0a44002 	adc	r4, r4, r2
    8650:	e24bc0a0 	sub	ip, fp, #160	; 0xa0
    8654:	e1520004 	cmp	r2, r4
    8658:	e98c0018 	stmib	ip, {r3, r4}
    865c:	8a000002 	bhi	866c <__muldf3+0x1d8>
    8660:	1a000008 	bne	8688 <__muldf3+0x1f4>
    8664:	e1510003 	cmp	r1, r3
    8668:	9a000006 	bls	8688 <__muldf3+0x1f4>
    866c:	e24b2090 	sub	r2, fp, #144	; 0x90
    8670:	e8120003 	ldmda	r2, {r0, r1}
    8674:	e3a04000 	mov	r4, #0	; 0x0
    8678:	e3a03001 	mov	r3, #1	; 0x1
    867c:	e0900003 	adds	r0, r0, r3
    8680:	e0a11004 	adc	r1, r1, r4
    8684:	e8020003 	stmda	r2, {r0, r1}
    8688:	e1a03006 	mov	r3, r6
    868c:	e3a04000 	mov	r4, #0	; 0x0
    8690:	e1a09004 	mov	r9, r4
    8694:	e1a08003 	mov	r8, r3
    8698:	e24b4090 	sub	r4, fp, #144	; 0x90
    869c:	e9940018 	ldmib	r4, {r3, r4}
    86a0:	e24b6090 	sub	r6, fp, #144	; 0x90
    86a4:	e59a0008 	ldr	r0, [sl, #8]
    86a8:	e5972008 	ldr	r2, [r7, #8]
    86ac:	e8160060 	ldmda	r6, {r5, r6}
    86b0:	e0988003 	adds	r8, r8, r3
    86b4:	e59a1004 	ldr	r1, [sl, #4]
    86b8:	e5973004 	ldr	r3, [r7, #4]
    86bc:	e0a99004 	adc	r9, r9, r4
    86c0:	e0822000 	add	r2, r2, r0
    86c4:	e0988005 	adds	r8, r8, r5
    86c8:	e24b00a0 	sub	r0, fp, #160	; 0xa0
    86cc:	e0a99006 	adc	r9, r9, r6
    86d0:	e2822004 	add	r2, r2, #4	; 0x4
    86d4:	e0533001 	subs	r3, r3, r1
    86d8:	13a03001 	movne	r3, #1	; 0x1
    86dc:	e9900003 	ldmib	r0, {r0, r1}
    86e0:	e50b205c 	str	r2, [fp, -#92]
    86e4:	e379021e 	cmn	r9, #-536870911	; 0xe0000001
    86e8:	e24b2080 	sub	r2, fp, #128	; 0x80
    86ec:	e50b3060 	str	r3, [fp, -#96]
    86f0:	e9820003 	stmib	r2, {r0, r1}
    86f4:	9a00001d 	bls	8770 <__muldf3+0x2dc>
    86f8:	e24b107c 	sub	r1, fp, #124	; 0x7c
    86fc:	e8910022 	ldmia	r1, {r1, r5}
    8700:	e1a020a8 	mov	r2, r8, lsr #1
    8704:	e1823f89 	orr	r3, r2, r9, lsl #31
    8708:	e1a060a5 	mov	r6, r5, lsr #1
    870c:	e1a020a1 	mov	r2, r1, lsr #1
    8710:	e51b005c 	ldr	r0, [fp, -#92]
    8714:	e1822f85 	orr	r2, r2, r5, lsl #31
    8718:	e50b60a8 	str	r6, [fp, -#168]
    871c:	e3a06000 	mov	r6, #0	; 0x0
    8720:	e3a05001 	mov	r5, #1	; 0x1
    8724:	e0081005 	and	r1, r8, r5
    8728:	e1a040a9 	mov	r4, r9, lsr #1
    872c:	e2800001 	add	r0, r0, #1	; 0x1
    8730:	e3510000 	cmp	r1, #0	; 0x0
    8734:	e50b20ac 	str	r2, [fp, -#172]
    8738:	e1a09004 	mov	r9, r4
    873c:	e1a08003 	mov	r8, r3
    8740:	e50b005c 	str	r0, [fp, -#92]
    8744:	0a000007 	beq	8768 <__muldf3+0x2d4>
    8748:	e24b20b0 	sub	r2, fp, #176	; 0xb0
    874c:	e9920003 	ldmib	r2, {r0, r1}
    8750:	e28f20f8 	add	r2, pc, #248	; 0xf8
    8754:	e892000c 	ldmia	r2, {r2, r3}
    8758:	e1811003 	orr	r1, r1, r3
    875c:	e1800002 	orr	r0, r0, r2
    8760:	e24b3080 	sub	r3, fp, #128	; 0x80
    8764:	e9830003 	stmib	r3, {r0, r1}
    8768:	e379021e 	cmn	r9, #-536870911	; 0xe0000001
    876c:	8affffe1 	bhi	86f8 <__muldf3+0x264>
    8770:	e379021f 	cmn	r9, #-268435455	; 0xf0000001
    8774:	8a000012 	bhi	87c4 <__muldf3+0x330>
    8778:	e51b5078 	ldr	r5, [fp, -#120]
    877c:	e51b607c 	ldr	r6, [fp, -#124]
    8780:	e51bc05c 	ldr	ip, [fp, -#92]
    8784:	e1a00085 	mov	r0, r5, lsl #1
    8788:	e1804fa6 	orr	r4, r0, r6, lsr #31
    878c:	e1a00089 	mov	r0, r9, lsl #1
    8790:	e1a03086 	mov	r3, r6, lsl #1
    8794:	e1802fa8 	orr	r2, r0, r8, lsr #31
    8798:	e24cc001 	sub	ip, ip, #1	; 0x1
    879c:	e1a01088 	mov	r1, r8, lsl #1
    87a0:	e24be080 	sub	lr, fp, #128	; 0x80
    87a4:	e3550000 	cmp	r5, #0	; 0x0
    87a8:	e98e0018 	stmib	lr, {r3, r4}
    87ac:	e50bc05c 	str	ip, [fp, -#92]
    87b0:	e1a09002 	mov	r9, r2
    87b4:	e1a08001 	mov	r8, r1
    87b8:	ba00001d 	blt	8834 <__muldf3+0x3a0>
    87bc:	e379021f 	cmn	r9, #-268435455	; 0xf0000001
    87c0:	9affffec 	bls	8778 <__muldf3+0x2e4>
    87c4:	e20830ff 	and	r3, r8, #255	; 0xff
    87c8:	e3a04000 	mov	r4, #0	; 0x0
    87cc:	e3530080 	cmp	r3, #128	; 0x80
    87d0:	0a000006 	beq	87f0 <__muldf3+0x35c>
    87d4:	e24b2064 	sub	r2, fp, #100	; 0x64
    87d8:	e282300c 	add	r3, r2, #12	; 0xc
    87dc:	e8830300 	stmia	r3, {r8, r9}
    87e0:	e3a02003 	mov	r2, #3	; 0x3
    87e4:	e50b2064 	str	r2, [fp, -#100]
    87e8:	e24b0064 	sub	r0, fp, #100	; 0x64
    87ec:	eaffff46 	b	850c <__muldf3+0x78>
    87f0:	e3540000 	cmp	r4, #0	; 0x0
    87f4:	1afffff6 	bne	87d4 <__muldf3+0x340>
    87f8:	e3a02000 	mov	r2, #0	; 0x0
    87fc:	e3a01c01 	mov	r1, #256	; 0x100
    8800:	e0083001 	and	r3, r8, r1
    8804:	e0094002 	and	r4, r9, r2
    8808:	e1933004 	orrs	r3, r3, r4
    880c:	1a000003 	bne	8820 <__muldf3+0x38c>
    8810:	e24b007c 	sub	r0, fp, #124	; 0x7c
    8814:	e8900003 	ldmia	r0, {r0, r1}
    8818:	e1900001 	orrs	r0, r0, r1
    881c:	0affffec 	beq	87d4 <__muldf3+0x340>
    8820:	e3a04000 	mov	r4, #0	; 0x0
    8824:	e3a03080 	mov	r3, #128	; 0x80
    8828:	e0988003 	adds	r8, r8, r3
    882c:	e0a99004 	adc	r9, r9, r4
    8830:	eaffffe7 	b	87d4 <__muldf3+0x340>
    8834:	e3a04000 	mov	r4, #0	; 0x0
    8838:	e3a03001 	mov	r3, #1	; 0x1
    883c:	e1888003 	orr	r8, r8, r3
    8840:	e1899004 	orr	r9, r9, r4
    8844:	eaffffdc 	b	87bc <__muldf3+0x328>
    8848:	00000000 	andeq	r0, r0, r0
    884c:	00000001 	andeq	r0, r0, r1
    8850:	00000000 	andeq	r0, r0, r0
    8854:	80000000 	andhi	r0, r0, r0

00008858 <nan>:
    8858:	e59f0000 	ldr	r0, [pc, #0]	; 8860 <nan+0x8>
    885c:	e1a0f00e 	mov	pc, lr
    8860:	000098f0 	streqd	r9, [r0], -r0

00008864 <isnan>:
    8864:	e5900000 	ldr	r0, [r0]
    8868:	e3500001 	cmp	r0, #1	; 0x1
    886c:	83a00000 	movhi	r0, #0	; 0x0
    8870:	93a00001 	movls	r0, #1	; 0x1
    8874:	e1a0f00e 	mov	pc, lr

00008878 <isinf>:
    8878:	e5900000 	ldr	r0, [r0]
    887c:	e3500004 	cmp	r0, #4	; 0x4
    8880:	13a00000 	movne	r0, #0	; 0x0
    8884:	03a00001 	moveq	r0, #1	; 0x1
    8888:	e1a0f00e 	mov	pc, lr

0000888c <iszero>:
    888c:	e5900000 	ldr	r0, [r0]
    8890:	e3500002 	cmp	r0, #2	; 0x2
    8894:	13a00000 	movne	r0, #0	; 0x0
    8898:	03a00001 	moveq	r0, #1	; 0x1
    889c:	e1a0f00e 	mov	pc, lr

000088a0 <__divdf3>:
    88a0:	e1a0c00d 	mov	ip, sp
    88a4:	e92ddff0 	stmdb	sp!, {r4, r5, r6, r7, r8, r9, sl, fp, ip, lr, pc}
    88a8:	e24cb004 	sub	fp, ip, #4	; 0x4
    88ac:	e24bc058 	sub	ip, fp, #88	; 0x58
    88b0:	e24dd050 	sub	sp, sp, #80	; 0x50
    88b4:	e24b803c 	sub	r8, fp, #60	; 0x3c
    88b8:	e24b6060 	sub	r6, fp, #96	; 0x60
    88bc:	e1a05001 	mov	r5, r1
    88c0:	e1a04000 	mov	r4, r0
    88c4:	e886000c 	stmia	r6, {r2, r3}
    88c8:	e1a0000c 	mov	r0, ip
    88cc:	e1a01008 	mov	r1, r8
    88d0:	e24b7050 	sub	r7, fp, #80	; 0x50
    88d4:	e88c0030 	stmia	ip, {r4, r5}
    88d8:	eb0002d2 	bl	9428 <__unpack_d>
    88dc:	e1a00006 	mov	r0, r6
    88e0:	e1a01007 	mov	r1, r7
    88e4:	eb0002cf 	bl	9428 <__unpack_d>
    88e8:	e1a00008 	mov	r0, r8
    88ec:	eb00008f 	bl	8b30 <isnan>
    88f0:	e3500000 	cmp	r0, #0	; 0x0
    88f4:	0a000002 	beq	8904 <__divdf3+0x64>
    88f8:	e1a00008 	mov	r0, r8
    88fc:	eb000224 	bl	9194 <__pack_d>
    8900:	e91baff0 	ldmdb	fp, {r4, r5, r6, r7, r8, r9, sl, fp, sp, pc}
    8904:	e1a00007 	mov	r0, r7
    8908:	eb000088 	bl	8b30 <isnan>
    890c:	e3500000 	cmp	r0, #0	; 0x0
    8910:	11a00007 	movne	r0, r7
    8914:	1afffff8 	bne	88fc <__divdf3+0x5c>
    8918:	e51b3038 	ldr	r3, [fp, -#56]
    891c:	e51b204c 	ldr	r2, [fp, -#76]
    8920:	e1a00008 	mov	r0, r8
    8924:	e0233002 	eor	r3, r3, r2
    8928:	e50b3038 	str	r3, [fp, -#56]
    892c:	eb000084 	bl	8b44 <isinf>
    8930:	e3500000 	cmp	r0, #0	; 0x0
    8934:	0a000005 	beq	8950 <__divdf3+0xb0>
    8938:	e51b203c 	ldr	r2, [fp, -#60]
    893c:	e51b3050 	ldr	r3, [fp, -#80]
    8940:	e1520003 	cmp	r2, r3
    8944:	1affffeb 	bne	88f8 <__divdf3+0x58>
    8948:	eb000075 	bl	8b24 <nan>
    894c:	eaffffea 	b	88fc <__divdf3+0x5c>
    8950:	e1a00008 	mov	r0, r8
    8954:	eb00007f 	bl	8b58 <iszero>
    8958:	e3500000 	cmp	r0, #0	; 0x0
    895c:	e1a04000 	mov	r4, r0
    8960:	1afffff4 	bne	8938 <__divdf3+0x98>
    8964:	e1a00007 	mov	r0, r7
    8968:	eb000075 	bl	8b44 <isinf>
    896c:	e3500000 	cmp	r0, #0	; 0x0
    8970:	0a000006 	beq	8990 <__divdf3+0xf0>
    8974:	e3a02000 	mov	r2, #0	; 0x0
    8978:	e3a01000 	mov	r1, #0	; 0x0
    897c:	e24b3030 	sub	r3, fp, #48	; 0x30
    8980:	e1a00008 	mov	r0, r8
    8984:	e50b4034 	str	r4, [fp, -#52]
    8988:	e8830006 	stmia	r3, {r1, r2}
    898c:	eaffffda 	b	88fc <__divdf3+0x5c>
    8990:	e1a00007 	mov	r0, r7
    8994:	eb00006f 	bl	8b58 <iszero>
    8998:	e3500000 	cmp	r0, #0	; 0x0
    899c:	13a03004 	movne	r3, #4	; 0x4
    89a0:	11a00008 	movne	r0, r8
    89a4:	150b303c 	strne	r3, [fp, -#60]
    89a8:	1affffd3 	bne	88fc <__divdf3+0x5c>
    89ac:	e24b3044 	sub	r3, fp, #68	; 0x44
    89b0:	e8930003 	ldmia	r3, {r0, r1}
    89b4:	e24b2060 	sub	r2, fp, #96	; 0x60
    89b8:	e9020003 	stmdb	r2, {r0, r1}
    89bc:	e24b3030 	sub	r3, fp, #48	; 0x30
    89c0:	e8930600 	ldmia	r3, {r9, sl}
    89c4:	e51b2034 	ldr	r2, [fp, -#52]
    89c8:	e51b3048 	ldr	r3, [fp, -#72]
    89cc:	e51b4064 	ldr	r4, [fp, -#100]
    89d0:	e0632002 	rsb	r2, r3, r2
    89d4:	e154000a 	cmp	r4, sl
    89d8:	e50b2034 	str	r2, [fp, -#52]
    89dc:	8a000003 	bhi	89f0 <__divdf3+0x150>
    89e0:	1a000009 	bne	8a0c <__divdf3+0x16c>
    89e4:	e51b0068 	ldr	r0, [fp, -#104]
    89e8:	e1500009 	cmp	r0, r9
    89ec:	9a000006 	bls	8a0c <__divdf3+0x16c>
    89f0:	e2423001 	sub	r3, r2, #1	; 0x1
    89f4:	e1a0008a 	mov	r0, sl, lsl #1
    89f8:	e1802fa9 	orr	r2, r0, r9, lsr #31
    89fc:	e1a01089 	mov	r1, r9, lsl #1
    8a00:	e50b3034 	str	r3, [fp, -#52]
    8a04:	e1a0a002 	mov	sl, r2
    8a08:	e1a09001 	mov	r9, r1
    8a0c:	e3a02000 	mov	r2, #0	; 0x0
    8a10:	e3a01000 	mov	r1, #0	; 0x0
    8a14:	e24b3070 	sub	r3, fp, #112	; 0x70
    8a18:	e8830006 	stmia	r3, {r1, r2}
    8a1c:	e28f40f8 	add	r4, pc, #248	; 0xf8
    8a20:	e8940030 	ldmia	r4, {r4, r5}
    8a24:	e51b0064 	ldr	r0, [fp, -#100]
    8a28:	e1a030a4 	mov	r3, r4, lsr #1
    8a2c:	e1833f85 	orr	r3, r3, r5, lsl #31
    8a30:	e1a010a5 	mov	r1, r5, lsr #1
    8a34:	e150000a 	cmp	r0, sl
    8a38:	e50b3078 	str	r3, [fp, -#120]
    8a3c:	e50b1074 	str	r1, [fp, -#116]
    8a40:	8a00000c 	bhi	8a78 <__divdf3+0x1d8>
    8a44:	1a000002 	bne	8a54 <__divdf3+0x1b4>
    8a48:	e51b2068 	ldr	r2, [fp, -#104]
    8a4c:	e1520009 	cmp	r2, r9
    8a50:	8a000008 	bhi	8a78 <__divdf3+0x1d8>
    8a54:	e24b1060 	sub	r1, fp, #96	; 0x60
    8a58:	e9110003 	ldmdb	r1, {r0, r1}
    8a5c:	e0599000 	subs	r9, r9, r0
    8a60:	e0caa001 	sbc	sl, sl, r1
    8a64:	e24b0070 	sub	r0, fp, #112	; 0x70
    8a68:	e890000c 	ldmia	r0, {r2, r3}
    8a6c:	e1822004 	orr	r2, r2, r4
    8a70:	e1833005 	orr	r3, r3, r5
    8a74:	e880000c 	stmia	r0, {r2, r3}
    8a78:	e24b1070 	sub	r1, fp, #112	; 0x70
    8a7c:	e9110030 	ldmdb	r1, {r4, r5}
    8a80:	e1a0308a 	mov	r3, sl, lsl #1
    8a84:	e1837fa9 	orr	r7, r3, r9, lsr #31
    8a88:	e1a06089 	mov	r6, r9, lsl #1
    8a8c:	e1942005 	orrs	r2, r4, r5
    8a90:	e1a0a007 	mov	sl, r7
    8a94:	e1a09006 	mov	r9, r6
    8a98:	1affffe1 	bne	8a24 <__divdf3+0x184>
    8a9c:	e55b3070 	ldrb	r3, [fp, -#112]
    8aa0:	e3a04000 	mov	r4, #0	; 0x0
    8aa4:	e3530080 	cmp	r3, #128	; 0x80
    8aa8:	0a000004 	beq	8ac0 <__divdf3+0x220>
    8aac:	e24b2070 	sub	r2, fp, #112	; 0x70
    8ab0:	e8920006 	ldmia	r2, {r1, r2}
    8ab4:	e288300c 	add	r3, r8, #12	; 0xc
    8ab8:	e8830006 	stmia	r3, {r1, r2}
    8abc:	eaffff8d 	b	88f8 <__divdf3+0x58>
    8ac0:	e3540000 	cmp	r4, #0	; 0x0
    8ac4:	1afffff8 	bne	8aac <__divdf3+0x20c>
    8ac8:	e24b0070 	sub	r0, fp, #112	; 0x70
    8acc:	e8900018 	ldmia	r0, {r3, r4}
    8ad0:	e3a02000 	mov	r2, #0	; 0x0
    8ad4:	e3a01c01 	mov	r1, #256	; 0x100
    8ad8:	e0033001 	and	r3, r3, r1
    8adc:	e0044002 	and	r4, r4, r2
    8ae0:	e1933004 	orrs	r3, r3, r4
    8ae4:	0a000006 	beq	8b04 <__divdf3+0x264>
    8ae8:	e3a04000 	mov	r4, #0	; 0x0
    8aec:	e3a03080 	mov	r3, #128	; 0x80
    8af0:	e8900006 	ldmia	r0, {r1, r2}
    8af4:	e0911003 	adds	r1, r1, r3
    8af8:	e0a22004 	adc	r2, r2, r4
    8afc:	e8800006 	stmia	r0, {r1, r2}
    8b00:	eaffffe9 	b	8aac <__divdf3+0x20c>
    8b04:	e199900a 	orrs	r9, r9, sl
    8b08:	0affffe7 	beq	8aac <__divdf3+0x20c>
    8b0c:	e3a04000 	mov	r4, #0	; 0x0
    8b10:	e3a03080 	mov	r3, #128	; 0x80
    8b14:	e24b0070 	sub	r0, fp, #112	; 0x70
    8b18:	eafffff4 	b	8af0 <__divdf3+0x250>
    8b1c:	00000000 	andeq	r0, r0, r0
    8b20:	10000000 	andne	r0, r0, r0

00008b24 <nan>:
    8b24:	e59f0000 	ldr	r0, [pc, #0]	; 8b2c <nan+0x8>
    8b28:	e1a0f00e 	mov	pc, lr
    8b2c:	000098f0 	streqd	r9, [r0], -r0

00008b30 <isnan>:
    8b30:	e5900000 	ldr	r0, [r0]
    8b34:	e3500001 	cmp	r0, #1	; 0x1
    8b38:	83a00000 	movhi	r0, #0	; 0x0
    8b3c:	93a00001 	movls	r0, #1	; 0x1
    8b40:	e1a0f00e 	mov	pc, lr

00008b44 <isinf>:
    8b44:	e5900000 	ldr	r0, [r0]
    8b48:	e3500004 	cmp	r0, #4	; 0x4
    8b4c:	13a00000 	movne	r0, #0	; 0x0
    8b50:	03a00001 	moveq	r0, #1	; 0x1
    8b54:	e1a0f00e 	mov	pc, lr

00008b58 <iszero>:
    8b58:	e5900000 	ldr	r0, [r0]
    8b5c:	e3500002 	cmp	r0, #2	; 0x2
    8b60:	13a00000 	movne	r0, #0	; 0x0
    8b64:	03a00001 	moveq	r0, #1	; 0x1
    8b68:	e1a0f00e 	mov	pc, lr

00008b6c <__eqdf2>:
    8b6c:	e1a0c00d 	mov	ip, sp
    8b70:	e92dd9f0 	stmdb	sp!, {r4, r5, r6, r7, r8, fp, ip, lr, pc}
    8b74:	e24cb004 	sub	fp, ip, #4	; 0x4
    8b78:	e24bc050 	sub	ip, fp, #80	; 0x50
    8b7c:	e24dd038 	sub	sp, sp, #56	; 0x38
    8b80:	e24b8034 	sub	r8, fp, #52	; 0x34
    8b84:	e1a05001 	mov	r5, r1
    8b88:	e1a04000 	mov	r4, r0
    8b8c:	e24b7048 	sub	r7, fp, #72	; 0x48
    8b90:	e1a0000c 	mov	r0, ip
    8b94:	e24b6058 	sub	r6, fp, #88	; 0x58
    8b98:	e1a01008 	mov	r1, r8
    8b9c:	e886000c 	stmia	r6, {r2, r3}
    8ba0:	e88c0030 	stmia	ip, {r4, r5}
    8ba4:	eb00021f 	bl	9428 <__unpack_d>
    8ba8:	e1a00006 	mov	r0, r6
    8bac:	e1a01007 	mov	r1, r7
    8bb0:	eb00021c 	bl	9428 <__unpack_d>
    8bb4:	e1a00008 	mov	r0, r8
    8bb8:	eb00000d 	bl	8bf4 <isnan>
    8bbc:	e1a03000 	mov	r3, r0
    8bc0:	e3530000 	cmp	r3, #0	; 0x0
    8bc4:	e1a00007 	mov	r0, r7
    8bc8:	0a000001 	beq	8bd4 <__eqdf2+0x68>
    8bcc:	e3a00001 	mov	r0, #1	; 0x1
    8bd0:	e91ba9f0 	ldmdb	fp, {r4, r5, r6, r7, r8, fp, sp, pc}
    8bd4:	eb000006 	bl	8bf4 <isnan>
    8bd8:	e1a03000 	mov	r3, r0
    8bdc:	e3530000 	cmp	r3, #0	; 0x0
    8be0:	e1a00008 	mov	r0, r8
    8be4:	e1a01007 	mov	r1, r7
    8be8:	1afffff7 	bne	8bcc <__eqdf2+0x60>
    8bec:	eb000260 	bl	9574 <__fpcmp_parts_d>
    8bf0:	e91ba9f0 	ldmdb	fp, {r4, r5, r6, r7, r8, fp, sp, pc}

00008bf4 <isnan>:
    8bf4:	e5900000 	ldr	r0, [r0]
    8bf8:	e3500001 	cmp	r0, #1	; 0x1
    8bfc:	83a00000 	movhi	r0, #0	; 0x0
    8c00:	93a00001 	movls	r0, #1	; 0x1
    8c04:	e1a0f00e 	mov	pc, lr

00008c08 <__nedf2>:
    8c08:	e1a0c00d 	mov	ip, sp
    8c0c:	e92dd9f0 	stmdb	sp!, {r4, r5, r6, r7, r8, fp, ip, lr, pc}
    8c10:	e24cb004 	sub	fp, ip, #4	; 0x4
    8c14:	e24bc050 	sub	ip, fp, #80	; 0x50
    8c18:	e24dd038 	sub	sp, sp, #56	; 0x38
    8c1c:	e24b8034 	sub	r8, fp, #52	; 0x34
    8c20:	e1a05001 	mov	r5, r1
    8c24:	e1a04000 	mov	r4, r0
    8c28:	e24b7048 	sub	r7, fp, #72	; 0x48
    8c2c:	e1a0000c 	mov	r0, ip
    8c30:	e24b6058 	sub	r6, fp, #88	; 0x58
    8c34:	e1a01008 	mov	r1, r8
    8c38:	e886000c 	stmia	r6, {r2, r3}
    8c3c:	e88c0030 	stmia	ip, {r4, r5}
    8c40:	eb0001f8 	bl	9428 <__unpack_d>
    8c44:	e1a00006 	mov	r0, r6
    8c48:	e1a01007 	mov	r1, r7
    8c4c:	eb0001f5 	bl	9428 <__unpack_d>
    8c50:	e1a00008 	mov	r0, r8
    8c54:	eb00000d 	bl	8c90 <isnan>
    8c58:	e1a03000 	mov	r3, r0
    8c5c:	e3530000 	cmp	r3, #0	; 0x0
    8c60:	e1a00007 	mov	r0, r7
    8c64:	0a000001 	beq	8c70 <__nedf2+0x68>
    8c68:	e3a00001 	mov	r0, #1	; 0x1
    8c6c:	e91ba9f0 	ldmdb	fp, {r4, r5, r6, r7, r8, fp, sp, pc}
    8c70:	eb000006 	bl	8c90 <isnan>
    8c74:	e1a03000 	mov	r3, r0
    8c78:	e3530000 	cmp	r3, #0	; 0x0
    8c7c:	e1a00008 	mov	r0, r8
    8c80:	e1a01007 	mov	r1, r7
    8c84:	1afffff7 	bne	8c68 <__nedf2+0x60>
    8c88:	eb000239 	bl	9574 <__fpcmp_parts_d>
    8c8c:	e91ba9f0 	ldmdb	fp, {r4, r5, r6, r7, r8, fp, sp, pc}

00008c90 <isnan>:
    8c90:	e5900000 	ldr	r0, [r0]
    8c94:	e3500001 	cmp	r0, #1	; 0x1
    8c98:	83a00000 	movhi	r0, #0	; 0x0
    8c9c:	93a00001 	movls	r0, #1	; 0x1
    8ca0:	e1a0f00e 	mov	pc, lr

00008ca4 <__gtdf2>:
    8ca4:	e1a0c00d 	mov	ip, sp
    8ca8:	e92dd9f0 	stmdb	sp!, {r4, r5, r6, r7, r8, fp, ip, lr, pc}
    8cac:	e24cb004 	sub	fp, ip, #4	; 0x4
    8cb0:	e24bc050 	sub	ip, fp, #80	; 0x50
    8cb4:	e24dd038 	sub	sp, sp, #56	; 0x38
    8cb8:	e24b8034 	sub	r8, fp, #52	; 0x34
    8cbc:	e1a05001 	mov	r5, r1
    8cc0:	e1a04000 	mov	r4, r0
    8cc4:	e24b7048 	sub	r7, fp, #72	; 0x48
    8cc8:	e1a0000c 	mov	r0, ip
    8ccc:	e24b6058 	sub	r6, fp, #88	; 0x58
    8cd0:	e1a01008 	mov	r1, r8
    8cd4:	e886000c 	stmia	r6, {r2, r3}
    8cd8:	e88c0030 	stmia	ip, {r4, r5}
    8cdc:	eb0001d1 	bl	9428 <__unpack_d>
    8ce0:	e1a00006 	mov	r0, r6
    8ce4:	e1a01007 	mov	r1, r7
    8ce8:	eb0001ce 	bl	9428 <__unpack_d>
    8cec:	e1a00008 	mov	r0, r8
    8cf0:	eb00000d 	bl	8d2c <isnan>
    8cf4:	e1a03000 	mov	r3, r0
    8cf8:	e3530000 	cmp	r3, #0	; 0x0
    8cfc:	e1a00007 	mov	r0, r7
    8d00:	1a000005 	bne	8d1c <__gtdf2+0x78>
    8d04:	eb000008 	bl	8d2c <isnan>
    8d08:	e1a03000 	mov	r3, r0
    8d0c:	e3530000 	cmp	r3, #0	; 0x0
    8d10:	e1a00008 	mov	r0, r8
    8d14:	e1a01007 	mov	r1, r7
    8d18:	0a000001 	beq	8d24 <__gtdf2+0x80>
    8d1c:	e3e00000 	mvn	r0, #0	; 0x0
    8d20:	e91ba9f0 	ldmdb	fp, {r4, r5, r6, r7, r8, fp, sp, pc}
    8d24:	eb000212 	bl	9574 <__fpcmp_parts_d>
    8d28:	e91ba9f0 	ldmdb	fp, {r4, r5, r6, r7, r8, fp, sp, pc}

00008d2c <isnan>:
    8d2c:	e5900000 	ldr	r0, [r0]
    8d30:	e3500001 	cmp	r0, #1	; 0x1
    8d34:	83a00000 	movhi	r0, #0	; 0x0
    8d38:	93a00001 	movls	r0, #1	; 0x1
    8d3c:	e1a0f00e 	mov	pc, lr

00008d40 <__gedf2>:
    8d40:	e1a0c00d 	mov	ip, sp
    8d44:	e92dd9f0 	stmdb	sp!, {r4, r5, r6, r7, r8, fp, ip, lr, pc}
    8d48:	e24cb004 	sub	fp, ip, #4	; 0x4
    8d4c:	e24bc050 	sub	ip, fp, #80	; 0x50
    8d50:	e24dd038 	sub	sp, sp, #56	; 0x38
    8d54:	e24b8034 	sub	r8, fp, #52	; 0x34
    8d58:	e1a05001 	mov	r5, r1
    8d5c:	e1a04000 	mov	r4, r0
    8d60:	e24b7048 	sub	r7, fp, #72	; 0x48
    8d64:	e1a0000c 	mov	r0, ip
    8d68:	e24b6058 	sub	r6, fp, #88	; 0x58
    8d6c:	e1a01008 	mov	r1, r8
    8d70:	e886000c 	stmia	r6, {r2, r3}
    8d74:	e88c0030 	stmia	ip, {r4, r5}
    8d78:	eb0001aa 	bl	9428 <__unpack_d>
    8d7c:	e1a00006 	mov	r0, r6
    8d80:	e1a01007 	mov	r1, r7
    8d84:	eb0001a7 	bl	9428 <__unpack_d>
    8d88:	e1a00008 	mov	r0, r8
    8d8c:	eb00000d 	bl	8dc8 <isnan>
    8d90:	e1a03000 	mov	r3, r0
    8d94:	e3530000 	cmp	r3, #0	; 0x0
    8d98:	e1a00007 	mov	r0, r7
    8d9c:	1a000005 	bne	8db8 <__gedf2+0x78>
    8da0:	eb000008 	bl	8dc8 <isnan>
    8da4:	e1a03000 	mov	r3, r0
    8da8:	e3530000 	cmp	r3, #0	; 0x0
    8dac:	e1a00008 	mov	r0, r8
    8db0:	e1a01007 	mov	r1, r7
    8db4:	0a000001 	beq	8dc0 <__gedf2+0x80>
    8db8:	e3e00000 	mvn	r0, #0	; 0x0
    8dbc:	e91ba9f0 	ldmdb	fp, {r4, r5, r6, r7, r8, fp, sp, pc}
    8dc0:	eb0001eb 	bl	9574 <__fpcmp_parts_d>
    8dc4:	e91ba9f0 	ldmdb	fp, {r4, r5, r6, r7, r8, fp, sp, pc}

00008dc8 <isnan>:
    8dc8:	e5900000 	ldr	r0, [r0]
    8dcc:	e3500001 	cmp	r0, #1	; 0x1
    8dd0:	83a00000 	movhi	r0, #0	; 0x0
    8dd4:	93a00001 	movls	r0, #1	; 0x1
    8dd8:	e1a0f00e 	mov	pc, lr

00008ddc <__ltdf2>:
    8ddc:	e1a0c00d 	mov	ip, sp
    8de0:	e92dd9f0 	stmdb	sp!, {r4, r5, r6, r7, r8, fp, ip, lr, pc}
    8de4:	e24cb004 	sub	fp, ip, #4	; 0x4
    8de8:	e24bc050 	sub	ip, fp, #80	; 0x50
    8dec:	e24dd038 	sub	sp, sp, #56	; 0x38
    8df0:	e24b8034 	sub	r8, fp, #52	; 0x34
    8df4:	e1a05001 	mov	r5, r1
    8df8:	e1a04000 	mov	r4, r0
    8dfc:	e24b7048 	sub	r7, fp, #72	; 0x48
    8e00:	e1a0000c 	mov	r0, ip
    8e04:	e24b6058 	sub	r6, fp, #88	; 0x58
    8e08:	e1a01008 	mov	r1, r8
    8e0c:	e886000c 	stmia	r6, {r2, r3}
    8e10:	e88c0030 	stmia	ip, {r4, r5}
    8e14:	eb000183 	bl	9428 <__unpack_d>
    8e18:	e1a00006 	mov	r0, r6
    8e1c:	e1a01007 	mov	r1, r7
    8e20:	eb000180 	bl	9428 <__unpack_d>
    8e24:	e1a00008 	mov	r0, r8
    8e28:	eb00000d 	bl	8e64 <isnan>
    8e2c:	e1a03000 	mov	r3, r0
    8e30:	e3530000 	cmp	r3, #0	; 0x0
    8e34:	e1a00007 	mov	r0, r7
    8e38:	0a000001 	beq	8e44 <__ltdf2+0x68>
    8e3c:	e3a00001 	mov	r0, #1	; 0x1
    8e40:	e91ba9f0 	ldmdb	fp, {r4, r5, r6, r7, r8, fp, sp, pc}
    8e44:	eb000006 	bl	8e64 <isnan>
    8e48:	e1a03000 	mov	r3, r0
    8e4c:	e3530000 	cmp	r3, #0	; 0x0
    8e50:	e1a00008 	mov	r0, r8
    8e54:	e1a01007 	mov	r1, r7
    8e58:	1afffff7 	bne	8e3c <__ltdf2+0x60>
    8e5c:	eb0001c4 	bl	9574 <__fpcmp_parts_d>
    8e60:	e91ba9f0 	ldmdb	fp, {r4, r5, r6, r7, r8, fp, sp, pc}

00008e64 <isnan>:
    8e64:	e5900000 	ldr	r0, [r0]
    8e68:	e3500001 	cmp	r0, #1	; 0x1
    8e6c:	83a00000 	movhi	r0, #0	; 0x0
    8e70:	93a00001 	movls	r0, #1	; 0x1
    8e74:	e1a0f00e 	mov	pc, lr

00008e78 <__floatsidf>:
    8e78:	e1a0c00d 	mov	ip, sp
    8e7c:	e92dd810 	stmdb	sp!, {r4, fp, ip, lr, pc}
    8e80:	e3a03003 	mov	r3, #3	; 0x3
    8e84:	e24cb004 	sub	fp, ip, #4	; 0x4
    8e88:	e3500000 	cmp	r0, #0	; 0x0
    8e8c:	e24dd014 	sub	sp, sp, #20	; 0x14
    8e90:	e1a02fa0 	mov	r2, r0, lsr #31
    8e94:	e50b3024 	str	r3, [fp, -#36]
    8e98:	03a03002 	moveq	r3, #2	; 0x2
    8e9c:	e50b2020 	str	r2, [fp, -#32]
    8ea0:	050b3024 	streq	r3, [fp, -#36]
    8ea4:	0a00001b 	beq	8f18 <__floatsidf+0xa0>
    8ea8:	e3a0303c 	mov	r3, #60	; 0x3c
    8eac:	e3520000 	cmp	r2, #0	; 0x0
    8eb0:	e50b301c 	str	r3, [fp, -#28]
    8eb4:	01a03000 	moveq	r3, r0
    8eb8:	01a04fc3 	moveq	r4, r3, asr #31
    8ebc:	0a000003 	beq	8ed0 <__floatsidf+0x58>
    8ec0:	e3500102 	cmp	r0, #-2147483648	; 0x80000000
    8ec4:	12603000 	rsbne	r3, r0, #0	; 0x0
    8ec8:	11a04fc3 	movne	r4, r3, asr #31
    8ecc:	0a000014 	beq	8f24 <__floatsidf+0xac>
    8ed0:	e24b2010 	sub	r2, fp, #16	; 0x10
    8ed4:	e9020018 	stmdb	r2, {r3, r4}
    8ed8:	e51b3014 	ldr	r3, [fp, -#20]
    8edc:	e373021f 	cmn	r3, #-268435455	; 0xf0000001
    8ee0:	8a00000c 	bhi	8f18 <__floatsidf+0xa0>
    8ee4:	e24b2010 	sub	r2, fp, #16	; 0x10
    8ee8:	e9120018 	ldmdb	r2, {r3, r4}
    8eec:	e1a02084 	mov	r2, r4, lsl #1
    8ef0:	e1824fa3 	orr	r4, r2, r3, lsr #31
    8ef4:	e1a03083 	mov	r3, r3, lsl #1
    8ef8:	e24b2010 	sub	r2, fp, #16	; 0x10
    8efc:	e9020018 	stmdb	r2, {r3, r4}
    8f00:	e51b2014 	ldr	r2, [fp, -#20]
    8f04:	e51b301c 	ldr	r3, [fp, -#28]
    8f08:	e372021f 	cmn	r2, #-268435455	; 0xf0000001
    8f0c:	e2433001 	sub	r3, r3, #1	; 0x1
    8f10:	e50b301c 	str	r3, [fp, -#28]
    8f14:	9afffff2 	bls	8ee4 <__floatsidf+0x6c>
    8f18:	e24b0024 	sub	r0, fp, #36	; 0x24
    8f1c:	eb00009c 	bl	9194 <__pack_d>
    8f20:	e91ba810 	ldmdb	fp, {r4, fp, sp, pc}
    8f24:	e28f0004 	add	r0, pc, #4	; 0x4
    8f28:	e8900003 	ldmia	r0, {r0, r1}
    8f2c:	e91ba810 	ldmdb	fp, {r4, fp, sp, pc}
    8f30:	c1e00000 	mvngt	r0, r0
    8f34:	00000000 	andeq	r0, r0, r0

00008f38 <__fixdfsi>:
    8f38:	e1a0c00d 	mov	ip, sp
    8f3c:	e92dd830 	stmdb	sp!, {r4, r5, fp, ip, lr, pc}
    8f40:	e24cb004 	sub	fp, ip, #4	; 0x4
    8f44:	e1a04001 	mov	r4, r1
    8f48:	e1a03000 	mov	r3, r0
    8f4c:	e24b2030 	sub	r2, fp, #48	; 0x30
    8f50:	e24dd01c 	sub	sp, sp, #28	; 0x1c
    8f54:	e24b5028 	sub	r5, fp, #40	; 0x28
    8f58:	e1a00002 	mov	r0, r2
    8f5c:	e1a01005 	mov	r1, r5
    8f60:	e8820018 	stmia	r2, {r3, r4}
    8f64:	eb00012f 	bl	9428 <__unpack_d>
    8f68:	e1a00005 	mov	r0, r5
    8f6c:	eb000028 	bl	9014 <iszero>
    8f70:	e3500000 	cmp	r0, #0	; 0x0
    8f74:	e1a04000 	mov	r4, r0
    8f78:	13a00000 	movne	r0, #0	; 0x0
    8f7c:	191ba830 	ldmnedb	fp, {r4, r5, fp, sp, pc}
    8f80:	e1a00005 	mov	r0, r5
    8f84:	eb000018 	bl	8fec <isnan>
    8f88:	e3500000 	cmp	r0, #0	; 0x0
    8f8c:	11a00004 	movne	r0, r4
    8f90:	191ba830 	ldmnedb	fp, {r4, r5, fp, sp, pc}
    8f94:	e1a00005 	mov	r0, r5
    8f98:	eb000018 	bl	9000 <isinf>
    8f9c:	e3500000 	cmp	r0, #0	; 0x0
    8fa0:	1a000004 	bne	8fb8 <__fixdfsi+0x80>
    8fa4:	e51b3020 	ldr	r3, [fp, -#32]
    8fa8:	e3530000 	cmp	r3, #0	; 0x0
    8fac:	b91ba830 	ldmltdb	fp, {r4, r5, fp, sp, pc}
    8fb0:	e353001e 	cmp	r3, #30	; 0x1e
    8fb4:	da000004 	ble	8fcc <__fixdfsi+0x94>
    8fb8:	e51b3024 	ldr	r3, [fp, -#36]
    8fbc:	e3530000 	cmp	r3, #0	; 0x0
    8fc0:	03e00102 	mvneq	r0, #-2147483648	; 0x80000000
    8fc4:	13a00102 	movne	r0, #-2147483648	; 0x80000000
    8fc8:	e91ba830 	ldmdb	fp, {r4, r5, fp, sp, pc}
    8fcc:	e263203c 	rsb	r2, r3, #60	; 0x3c
    8fd0:	e24b3020 	sub	r3, fp, #32	; 0x20
    8fd4:	e9930003 	ldmib	r3, {r0, r1}
    8fd8:	eb000059 	bl	9144 <__lshrdi3>
    8fdc:	e51b3024 	ldr	r3, [fp, -#36]
    8fe0:	e3530000 	cmp	r3, #0	; 0x0
    8fe4:	12600000 	rsbne	r0, r0, #0	; 0x0
    8fe8:	e91ba830 	ldmdb	fp, {r4, r5, fp, sp, pc}

00008fec <isnan>:
    8fec:	e5900000 	ldr	r0, [r0]
    8ff0:	e3500001 	cmp	r0, #1	; 0x1
    8ff4:	83a00000 	movhi	r0, #0	; 0x0
    8ff8:	93a00001 	movls	r0, #1	; 0x1
    8ffc:	e1a0f00e 	mov	pc, lr

00009000 <isinf>:
    9000:	e5900000 	ldr	r0, [r0]
    9004:	e3500004 	cmp	r0, #4	; 0x4
    9008:	13a00000 	movne	r0, #0	; 0x0
    900c:	03a00001 	moveq	r0, #1	; 0x1
    9010:	e1a0f00e 	mov	pc, lr

00009014 <iszero>:
    9014:	e5900000 	ldr	r0, [r0]
    9018:	e3500002 	cmp	r0, #2	; 0x2
    901c:	13a00000 	movne	r0, #0	; 0x0
    9020:	03a00001 	moveq	r0, #1	; 0x1
    9024:	e1a0f00e 	mov	pc, lr

00009028 <__negdf2>:
    9028:	e1a0c00d 	mov	ip, sp
    902c:	e92dd810 	stmdb	sp!, {r4, fp, ip, lr, pc}
    9030:	e24cb004 	sub	fp, ip, #4	; 0x4
    9034:	e24bc02c 	sub	ip, fp, #44	; 0x2c
    9038:	e24dd01c 	sub	sp, sp, #28	; 0x1c
    903c:	e24b4024 	sub	r4, fp, #36	; 0x24
    9040:	e1a03001 	mov	r3, r1
    9044:	e1a02000 	mov	r2, r0
    9048:	e1a0000c 	mov	r0, ip
    904c:	e1a01004 	mov	r1, r4
    9050:	e88c000c 	stmia	ip, {r2, r3}
    9054:	eb0000f3 	bl	9428 <__unpack_d>
    9058:	e1a00004 	mov	r0, r4
    905c:	eb000002 	bl	906c <flip_sign>
    9060:	e1a00004 	mov	r0, r4
    9064:	eb00004a 	bl	9194 <__pack_d>
    9068:	e91ba810 	ldmdb	fp, {r4, fp, sp, pc}

0000906c <flip_sign>:
    906c:	e5903004 	ldr	r3, [r0, #4]
    9070:	e3530000 	cmp	r3, #0	; 0x0
    9074:	13a03000 	movne	r3, #0	; 0x0
    9078:	03a03001 	moveq	r3, #1	; 0x1
    907c:	e5803004 	str	r3, [r0, #4]
    9080:	e1a0f00e 	mov	pc, lr

00009084 <__umodsi3>:
    9084:	e3510000 	cmp	r1, #0	; 0x0
    9088:	0a000029 	beq	9134 <Ldiv0>
    908c:	e3510001 	cmp	r1, #1	; 0x1
    9090:	11500001 	cmpne	r0, r1
    9094:	03a00000 	moveq	r0, #0	; 0x0
    9098:	31a0f00e 	movcc	pc, lr
    909c:	e3a03001 	mov	r3, #1	; 0x1

000090a0 <Loop1>:
    90a0:	e3510201 	cmp	r1, #268435456	; 0x10000000
    90a4:	31510000 	cmpcc	r1, r0
    90a8:	31a01201 	movcc	r1, r1, lsl #4
    90ac:	31a03203 	movcc	r3, r3, lsl #4
    90b0:	3afffffa 	bcc	90a0 <Loop1>

000090b4 <Lbignum>:
    90b4:	e3510102 	cmp	r1, #-2147483648	; 0x80000000
    90b8:	31510000 	cmpcc	r1, r0
    90bc:	31a01081 	movcc	r1, r1, lsl #1
    90c0:	31a03083 	movcc	r3, r3, lsl #1
    90c4:	3afffffa 	bcc	90b4 <Lbignum>

000090c8 <Loop3>:
    90c8:	e3a02000 	mov	r2, #0	; 0x0
    90cc:	e1500001 	cmp	r0, r1
    90d0:	20400001 	subcs	r0, r0, r1
    90d4:	e15000a1 	cmp	r0, r1, lsr #1
    90d8:	204000a1 	subcs	r0, r0, r1, lsr #1
    90dc:	218220e3 	orrcs	r2, r2, r3, ror #1
    90e0:	e1500121 	cmp	r0, r1, lsr #2
    90e4:	20400121 	subcs	r0, r0, r1, lsr #2
    90e8:	21822163 	orrcs	r2, r2, r3, ror #2
    90ec:	e15001a1 	cmp	r0, r1, lsr #3
    90f0:	204001a1 	subcs	r0, r0, r1, lsr #3
    90f4:	218221e3 	orrcs	r2, r2, r3, ror #3
    90f8:	e1a0c003 	mov	ip, r3
    90fc:	e3500000 	cmp	r0, #0	; 0x0
    9100:	11b03223 	movnes	r3, r3, lsr #4
    9104:	11a01221 	movne	r1, r1, lsr #4
    9108:	1affffee 	bne	90c8 <Loop3>

0000910c <Lfixup_dividend>:
    910c:	e212220e 	ands	r2, r2, #-536870912	; 0xe0000000
    9110:	131c0007 	tstne	ip, #7	; 0x7
    9114:	0a000005 	beq	9130 <Lgot_result>
    9118:	e11201ec 	tst	r2, ip, ror #3
    911c:	108001a1 	addne	r0, r0, r1, lsr #3
    9120:	e112016c 	tst	r2, ip, ror #2
    9124:	10800121 	addne	r0, r0, r1, lsr #2
    9128:	e11200ec 	tst	r2, ip, ror #1
    912c:	108000a1 	addne	r0, r0, r1, lsr #1

00009130 <Lgot_result>:
    9130:	e1a0f00e 	mov	pc, lr

00009134 <Ldiv0>:
    9134:	e52de004 	str	lr, [sp, -#4]!
    9138:	ebfff92b 	bl	75ec <__div0>
    913c:	e3a00000 	mov	r0, #0	; 0x0
    9140:	e8bd8000 	ldmia	sp!, {pc}

00009144 <__lshrdi3>:
    9144:	e3520000 	cmp	r2, #0	; 0x0
    9148:	e92d4070 	stmdb	sp!, {r4, r5, r6, lr}
    914c:	e262c020 	rsb	ip, r2, #32	; 0x20
    9150:	e1a04001 	mov	r4, r1
    9154:	e1a03000 	mov	r3, r0
    9158:	e3a06000 	mov	r6, #0	; 0x0
    915c:	e3a05000 	mov	r5, #0	; 0x0
    9160:	0a000008 	beq	9188 <__lshrdi3+0x44>
    9164:	e35c0000 	cmp	ip, #0	; 0x0
    9168:	e1a03230 	mov	r3, r0, lsr r2
    916c:	e26ce000 	rsb	lr, ip, #0	; 0x0
    9170:	d3a06000 	movle	r6, #0	; 0x0
    9174:	d1a05e31 	movle	r5, r1, lsr lr
    9178:	c1a06231 	movgt	r6, r1, lsr r2
    917c:	c1835c11 	orrgt	r5, r3, r1, lsl ip
    9180:	e1a04006 	mov	r4, r6
    9184:	e1a03005 	mov	r3, r5
    9188:	e1a01004 	mov	r1, r4
    918c:	e1a00003 	mov	r0, r3
    9190:	e8bd8070 	ldmia	sp!, {r4, r5, r6, pc}

00009194 <__pack_d>:
    9194:	e1a0c00d 	mov	ip, sp
    9198:	e92dddf0 	stmdb	sp!, {r4, r5, r6, r7, r8, sl, fp, ip, lr, pc}
    919c:	e24cb004 	sub	fp, ip, #4	; 0x4
    91a0:	e24dd008 	sub	sp, sp, #8	; 0x8
    91a4:	e280300c 	add	r3, r0, #12	; 0xc
    91a8:	e1a04000 	mov	r4, r0
    91ac:	e8930060 	ldmia	r3, {r5, r6}
    91b0:	e5908004 	ldr	r8, [r0, #4]
    91b4:	eb00008c 	bl	93ec <isnan>
    91b8:	e3500000 	cmp	r0, #0	; 0x0
    91bc:	e3a07000 	mov	r7, #0	; 0x0
    91c0:	0a00001c 	beq	9238 <__pack_d+0xa4>
    91c4:	e28f3f86 	add	r3, pc, #536	; 0x218
    91c8:	e8930018 	ldmia	r3, {r3, r4}
    91cc:	e3a07e7f 	mov	r7, #2032	; 0x7f0
    91d0:	e1855003 	orr	r5, r5, r3
    91d4:	e1866004 	orr	r6, r6, r4
    91d8:	e287700f 	add	r7, r7, #15	; 0xf
    91dc:	e51b3028 	ldr	r3, [fp, -#40]
    91e0:	e1a03a23 	mov	r3, r3, lsr #20
    91e4:	e1833606 	orr	r3, r3, r6, lsl #12
    91e8:	e1a03663 	mov	r3, r3, ror #12
    91ec:	e50b3028 	str	r3, [fp, -#40]
    91f0:	e15b32b6 	ldrh	r3, [fp, -#38]
    91f4:	e1a02a87 	mov	r2, r7, lsl #21
    91f8:	e3c33c7f 	bic	r3, r3, #32512	; 0x7f00
    91fc:	e1a02aa2 	mov	r2, r2, lsr #21
    9200:	e3c330f0 	bic	r3, r3, #240	; 0xf0
    9204:	e1833202 	orr	r3, r3, r2, lsl #4
    9208:	e14b32b6 	strh	r3, [fp, -#38]
    920c:	e55b2025 	ldrb	r2, [fp, -#37]
    9210:	e2083001 	and	r3, r8, #1	; 0x1
    9214:	e3c22080 	bic	r2, r2, #128	; 0x80
    9218:	e1822383 	orr	r2, r2, r3, lsl #7
    921c:	e54b2025 	strb	r2, [fp, -#37]
    9220:	e51b3028 	ldr	r3, [fp, -#40]
    9224:	e50b5028 	str	r5, [fp, -#40]
    9228:	e50b302c 	str	r3, [fp, -#44]
    922c:	e24b3030 	sub	r3, fp, #48	; 0x30
    9230:	e9930003 	ldmib	r3, {r0, r1}
    9234:	e91badf0 	ldmdb	fp, {r4, r5, r6, r7, r8, sl, fp, sp, pc}
    9238:	e1a00004 	mov	r0, r4
    923c:	eb00006f 	bl	9400 <isinf>
    9240:	e3500000 	cmp	r0, #0	; 0x0
    9244:	0a000004 	beq	925c <__pack_d+0xc8>
    9248:	e3a07e7f 	mov	r7, #2032	; 0x7f0
    924c:	e287700f 	add	r7, r7, #15	; 0xf
    9250:	e3a06000 	mov	r6, #0	; 0x0
    9254:	e3a05000 	mov	r5, #0	; 0x0
    9258:	eaffffdf 	b	91dc <__pack_d+0x48>
    925c:	e1a00004 	mov	r0, r4
    9260:	eb00006b 	bl	9414 <iszero>
    9264:	e3500000 	cmp	r0, #0	; 0x0
    9268:	1afffff8 	bne	9250 <__pack_d+0xbc>
    926c:	e1953006 	orrs	r3, r5, r6
    9270:	0affffd9 	beq	91dc <__pack_d+0x48>
    9274:	e5940008 	ldr	r0, [r4, #8]
    9278:	e3e03fff 	mvn	r3, #1020	; 0x3fc
    927c:	e2433001 	sub	r3, r3, #1	; 0x1
    9280:	e1500003 	cmp	r0, r3
    9284:	aa000035 	bge	9360 <__pack_d+0x1cc>
    9288:	e260a3bf 	rsb	sl, r0, #-67108862	; 0xfc000002
    928c:	e28aa7ff 	add	sl, sl, #66846720	; 0x3fc0000
    9290:	e28aabff 	add	sl, sl, #261120	; 0x3fc00
    9294:	e35a0038 	cmp	sl, #56	; 0x38
    9298:	da00001c 	ble	9310 <__pack_d+0x17c>
    929c:	e3a06000 	mov	r6, #0	; 0x0
    92a0:	e3a05000 	mov	r5, #0	; 0x0
    92a4:	e20530ff 	and	r3, r5, #255	; 0xff
    92a8:	e3a04000 	mov	r4, #0	; 0x0
    92ac:	e3530080 	cmp	r3, #128	; 0x80
    92b0:	0a00000b 	beq	92e4 <__pack_d+0x150>
    92b4:	e3a04000 	mov	r4, #0	; 0x0
    92b8:	e3a0307f 	mov	r3, #127	; 0x7f
    92bc:	e0955003 	adds	r5, r5, r3
    92c0:	e0a66004 	adc	r6, r6, r4
    92c4:	e3560201 	cmp	r6, #268435456	; 0x10000000
    92c8:	e1a02425 	mov	r2, r5, lsr #8
    92cc:	23a07001 	movcs	r7, #1	; 0x1
    92d0:	e1823c06 	orr	r3, r2, r6, lsl #24
    92d4:	e1a04426 	mov	r4, r6, lsr #8
    92d8:	e1a06004 	mov	r6, r4
    92dc:	e1a05003 	mov	r5, r3
    92e0:	eaffffbd 	b	91dc <__pack_d+0x48>
    92e4:	e3540000 	cmp	r4, #0	; 0x0
    92e8:	1afffff1 	bne	92b4 <__pack_d+0x120>
    92ec:	e3a02000 	mov	r2, #0	; 0x0
    92f0:	e3a01c01 	mov	r1, #256	; 0x100
    92f4:	e0053001 	and	r3, r5, r1
    92f8:	e0064002 	and	r4, r6, r2
    92fc:	e1933004 	orrs	r3, r3, r4
    9300:	0affffef 	beq	92c4 <__pack_d+0x130>
    9304:	e3a04000 	mov	r4, #0	; 0x0
    9308:	e3a03080 	mov	r3, #128	; 0x80
    930c:	eaffffea 	b	92bc <__pack_d+0x128>
    9310:	e1a0200a 	mov	r2, sl
    9314:	e3a01000 	mov	r1, #0	; 0x0
    9318:	e3a00001 	mov	r0, #1	; 0x1
    931c:	eb000102 	bl	972c <__ashldi3>
    9320:	e3e04000 	mvn	r4, #0	; 0x0
    9324:	e3e03000 	mvn	r3, #0	; 0x0
    9328:	e0933000 	adds	r3, r3, r0
    932c:	e0a44001 	adc	r4, r4, r1
    9330:	e0062004 	and	r2, r6, r4
    9334:	e0051003 	and	r1, r5, r3
    9338:	e1911002 	orrs	r1, r1, r2
    933c:	e1a01006 	mov	r1, r6
    9340:	e1a00005 	mov	r0, r5
    9344:	e1a0200a 	mov	r2, sl
    9348:	03a04000 	moveq	r4, #0	; 0x0
    934c:	13a04001 	movne	r4, #1	; 0x1
    9350:	ebffff7b 	bl	9144 <__lshrdi3>
    9354:	e1805004 	orr	r5, r0, r4
    9358:	e1816fc4 	orr	r6, r1, r4, asr #31
    935c:	eaffffd0 	b	92a4 <__pack_d+0x110>
    9360:	e3500b01 	cmp	r0, #1024	; 0x400
    9364:	aaffffb7 	bge	9248 <__pack_d+0xb4>
    9368:	e20530ff 	and	r3, r5, #255	; 0xff
    936c:	e3a04000 	mov	r4, #0	; 0x0
    9370:	e2807fff 	add	r7, r0, #1020	; 0x3fc
    9374:	e3530080 	cmp	r3, #128	; 0x80
    9378:	e2877003 	add	r7, r7, #3	; 0x3
    937c:	0a00000d 	beq	93b8 <__pack_d+0x224>
    9380:	e3a04000 	mov	r4, #0	; 0x0
    9384:	e3a0307f 	mov	r3, #127	; 0x7f
    9388:	e0955003 	adds	r5, r5, r3
    938c:	e0a66004 	adc	r6, r6, r4
    9390:	e376021e 	cmn	r6, #-536870911	; 0xe0000001
    9394:	9a000005 	bls	93b0 <__pack_d+0x21c>
    9398:	e1a020a5 	mov	r2, r5, lsr #1
    939c:	e1823f86 	orr	r3, r2, r6, lsl #31
    93a0:	e1a040a6 	mov	r4, r6, lsr #1
    93a4:	e2877001 	add	r7, r7, #1	; 0x1
    93a8:	e1a06004 	mov	r6, r4
    93ac:	e1a05003 	mov	r5, r3
    93b0:	e1a02425 	mov	r2, r5, lsr #8
    93b4:	eaffffc5 	b	92d0 <__pack_d+0x13c>
    93b8:	e3540000 	cmp	r4, #0	; 0x0
    93bc:	1affffef 	bne	9380 <__pack_d+0x1ec>
    93c0:	e3a02000 	mov	r2, #0	; 0x0
    93c4:	e3a01c01 	mov	r1, #256	; 0x100
    93c8:	e0053001 	and	r3, r5, r1
    93cc:	e0064002 	and	r4, r6, r2
    93d0:	e1933004 	orrs	r3, r3, r4
    93d4:	0affffed 	beq	9390 <__pack_d+0x1fc>
    93d8:	e3a04000 	mov	r4, #0	; 0x0
    93dc:	e3a03080 	mov	r3, #128	; 0x80
    93e0:	eaffffe8 	b	9388 <__pack_d+0x1f4>
    93e4:	00000000 	andeq	r0, r0, r0
    93e8:	00080000 	andeq	r0, r8, r0

000093ec <isnan>:
    93ec:	e5900000 	ldr	r0, [r0]
    93f0:	e3500001 	cmp	r0, #1	; 0x1
    93f4:	83a00000 	movhi	r0, #0	; 0x0
    93f8:	93a00001 	movls	r0, #1	; 0x1
    93fc:	e1a0f00e 	mov	pc, lr

00009400 <isinf>:
    9400:	e5900000 	ldr	r0, [r0]
    9404:	e3500004 	cmp	r0, #4	; 0x4
    9408:	13a00000 	movne	r0, #0	; 0x0
    940c:	03a00001 	moveq	r0, #1	; 0x1
    9410:	e1a0f00e 	mov	pc, lr

00009414 <iszero>:
    9414:	e5900000 	ldr	r0, [r0]
    9418:	e3500002 	cmp	r0, #2	; 0x2
    941c:	13a00000 	movne	r0, #0	; 0x0
    9420:	03a00001 	moveq	r0, #1	; 0x1
    9424:	e1a0f00e 	mov	pc, lr

00009428 <__unpack_d>:
    9428:	e92d40f0 	stmdb	sp!, {r4, r5, r6, r7, lr}
    942c:	e590c000 	ldr	ip, [r0]
    9430:	e24dd008 	sub	sp, sp, #8	; 0x8
    9434:	e58dc004 	str	ip, [sp, #4]
    9438:	e1dd30b6 	ldrh	r3, [sp, #6]
    943c:	e1a03223 	mov	r3, r3, lsr #4
    9440:	e1a0ea83 	mov	lr, r3, lsl #21
    9444:	e5dd3007 	ldrb	r3, [sp, #7]
    9448:	e5902004 	ldr	r2, [r0, #4]
    944c:	e1a0eaae 	mov	lr, lr, lsr #21
    9450:	e1a07001 	mov	r7, r1
    9454:	e1a033a3 	mov	r3, r3, lsr #7
    9458:	e3cc64ff 	bic	r6, ip, #-16777216	; 0xff000000
    945c:	e3a01e7f 	mov	r1, #2032	; 0x7f0
    9460:	e35e0000 	cmp	lr, #0	; 0x0
    9464:	e5873004 	str	r3, [r7, #4]
    9468:	e1a05002 	mov	r5, r2
    946c:	e58d2000 	str	r2, [sp]
    9470:	e3c6660f 	bic	r6, r6, #15728640	; 0xf00000
    9474:	e281100f 	add	r1, r1, #15	; 0xf
    9478:	1a00001e 	bne	94f8 <__unpack_d+0xd0>
    947c:	e1923006 	orrs	r3, r2, r6
    9480:	03a03002 	moveq	r3, #2	; 0x2
    9484:	0a000019 	beq	94f0 <__unpack_d+0xc8>
    9488:	e1a01406 	mov	r1, r6, lsl #8
    948c:	e1a03405 	mov	r3, r5, lsl #8
    9490:	e1814c25 	orr	r4, r1, r5, lsr #24
    9494:	e1a06004 	mov	r6, r4
    9498:	e1a05003 	mov	r5, r3
    949c:	e3e02fff 	mvn	r2, #1020	; 0x3fc
    94a0:	e2422001 	sub	r2, r2, #1	; 0x1
    94a4:	e3a03003 	mov	r3, #3	; 0x3
    94a8:	e376021f 	cmn	r6, #-268435455	; 0xf0000001
    94ac:	e5872008 	str	r2, [r7, #8]
    94b0:	e5873000 	str	r3, [r7]
    94b4:	8a000009 	bhi	94e0 <__unpack_d+0xb8>
    94b8:	e1a01086 	mov	r1, r6, lsl #1
    94bc:	e5972008 	ldr	r2, [r7, #8]
    94c0:	e1814fa5 	orr	r4, r1, r5, lsr #31
    94c4:	e1a03085 	mov	r3, r5, lsl #1
    94c8:	e1a06004 	mov	r6, r4
    94cc:	e1a05003 	mov	r5, r3
    94d0:	e2422001 	sub	r2, r2, #1	; 0x1
    94d4:	e376021f 	cmn	r6, #-268435455	; 0xf0000001
    94d8:	e5872008 	str	r2, [r7, #8]
    94dc:	9afffff5 	bls	94b8 <__unpack_d+0x90>
    94e0:	e287300c 	add	r3, r7, #12	; 0xc
    94e4:	e8830060 	stmia	r3, {r5, r6}
    94e8:	e28dd008 	add	sp, sp, #8	; 0x8
    94ec:	e8bd80f0 	ldmia	sp!, {r4, r5, r6, r7, pc}
    94f0:	e5873000 	str	r3, [r7]
    94f4:	eafffffb 	b	94e8 <__unpack_d+0xc0>
    94f8:	e15e0001 	cmp	lr, r1
    94fc:	0a00000d 	beq	9538 <__unpack_d+0x110>
    9500:	e1a02406 	mov	r2, r6, lsl #8
    9504:	e1824c25 	orr	r4, r2, r5, lsr #24
    9508:	e24e0fff 	sub	r0, lr, #1020	; 0x3fc
    950c:	e28f1050 	add	r1, pc, #80	; 0x50
    9510:	e8910006 	ldmia	r1, {r1, r2}
    9514:	e1a03405 	mov	r3, r5, lsl #8
    9518:	e2400003 	sub	r0, r0, #3	; 0x3
    951c:	e1835001 	orr	r5, r3, r1
    9520:	e1846002 	orr	r6, r4, r2
    9524:	e287300c 	add	r3, r7, #12	; 0xc
    9528:	e5870008 	str	r0, [r7, #8]
    952c:	e8830060 	stmia	r3, {r5, r6}
    9530:	e3a03003 	mov	r3, #3	; 0x3
    9534:	eaffffed 	b	94f0 <__unpack_d+0xc8>
    9538:	e1923006 	orrs	r3, r2, r6
    953c:	03a03004 	moveq	r3, #4	; 0x4
    9540:	0affffea 	beq	94f0 <__unpack_d+0xc8>
    9544:	e28f1020 	add	r1, pc, #32	; 0x20
    9548:	e8910006 	ldmia	r1, {r1, r2}
    954c:	e0053001 	and	r3, r5, r1
    9550:	e0064002 	and	r4, r6, r2
    9554:	e1933004 	orrs	r3, r3, r4
    9558:	13a03001 	movne	r3, #1	; 0x1
    955c:	e5873000 	str	r3, [r7]
    9560:	eaffffde 	b	94e0 <__unpack_d+0xb8>
    9564:	00000000 	andeq	r0, r0, r0
    9568:	10000000 	andne	r0, r0, r0
    956c:	00000000 	andeq	r0, r0, r0
    9570:	00080000 	andeq	r0, r8, r0

00009574 <__fpcmp_parts_d>:
    9574:	e1a0c00d 	mov	ip, sp
    9578:	e92dd870 	stmdb	sp!, {r4, r5, r6, fp, ip, lr, pc}
    957c:	e24cb004 	sub	fp, ip, #4	; 0x4
    9580:	e1a04001 	mov	r4, r1
    9584:	e1a05000 	mov	r5, r0
    9588:	eb000058 	bl	96f0 <isnan>
    958c:	e3500000 	cmp	r0, #0	; 0x0
    9590:	0a000001 	beq	959c <__fpcmp_parts_d+0x28>
    9594:	e3a00001 	mov	r0, #1	; 0x1
    9598:	e91ba870 	ldmdb	fp, {r4, r5, r6, fp, sp, pc}
    959c:	e1a00004 	mov	r0, r4
    95a0:	eb000052 	bl	96f0 <isnan>
    95a4:	e3500000 	cmp	r0, #0	; 0x0
    95a8:	1afffff9 	bne	9594 <__fpcmp_parts_d+0x20>
    95ac:	e1a00005 	mov	r0, r5
    95b0:	eb000053 	bl	9704 <isinf>
    95b4:	e3500000 	cmp	r0, #0	; 0x0
    95b8:	0a000006 	beq	95d8 <__fpcmp_parts_d+0x64>
    95bc:	e1a00004 	mov	r0, r4
    95c0:	eb00004f 	bl	9704 <isinf>
    95c4:	e3500000 	cmp	r0, #0	; 0x0
    95c8:	15942004 	ldrne	r2, [r4, #4]
    95cc:	15953004 	ldrne	r3, [r5, #4]
    95d0:	10630002 	rsbne	r0, r3, r2
    95d4:	191ba870 	ldmnedb	fp, {r4, r5, r6, fp, sp, pc}
    95d8:	e1a00005 	mov	r0, r5
    95dc:	eb000048 	bl	9704 <isinf>
    95e0:	e3500000 	cmp	r0, #0	; 0x0
    95e4:	0a000004 	beq	95fc <__fpcmp_parts_d+0x88>
    95e8:	e5953004 	ldr	r3, [r5, #4]
    95ec:	e3530000 	cmp	r3, #0	; 0x0
    95f0:	03a00001 	moveq	r0, #1	; 0x1
    95f4:	13e00000 	mvnne	r0, #0	; 0x0
    95f8:	e91ba870 	ldmdb	fp, {r4, r5, r6, fp, sp, pc}
    95fc:	e1a00004 	mov	r0, r4
    9600:	eb00003f 	bl	9704 <isinf>
    9604:	e3500000 	cmp	r0, #0	; 0x0
    9608:	e1a06000 	mov	r6, r0
    960c:	0a000004 	beq	9624 <__fpcmp_parts_d+0xb0>
    9610:	e5943004 	ldr	r3, [r4, #4]
    9614:	e3530000 	cmp	r3, #0	; 0x0
    9618:	03e00000 	mvneq	r0, #0	; 0x0
    961c:	13a00001 	movne	r0, #1	; 0x1
    9620:	e91ba870 	ldmdb	fp, {r4, r5, r6, fp, sp, pc}
    9624:	e1a00005 	mov	r0, r5
    9628:	eb00003a 	bl	9718 <iszero>
    962c:	e3500000 	cmp	r0, #0	; 0x0
    9630:	0a000003 	beq	9644 <__fpcmp_parts_d+0xd0>
    9634:	e1a00004 	mov	r0, r4
    9638:	eb000036 	bl	9718 <iszero>
    963c:	e3500000 	cmp	r0, #0	; 0x0
    9640:	1a000028 	bne	96e8 <__fpcmp_parts_d+0x174>
    9644:	e1a00005 	mov	r0, r5
    9648:	eb000032 	bl	9718 <iszero>
    964c:	e3500000 	cmp	r0, #0	; 0x0
    9650:	1affffee 	bne	9610 <__fpcmp_parts_d+0x9c>
    9654:	e1a00004 	mov	r0, r4
    9658:	eb00002e 	bl	9718 <iszero>
    965c:	e3500000 	cmp	r0, #0	; 0x0
    9660:	1affffe0 	bne	95e8 <__fpcmp_parts_d+0x74>
    9664:	e5951004 	ldr	r1, [r5, #4]
    9668:	e5943004 	ldr	r3, [r4, #4]
    966c:	e1510003 	cmp	r1, r3
    9670:	0a000001 	beq	967c <__fpcmp_parts_d+0x108>
    9674:	e3510000 	cmp	r1, #0	; 0x0
    9678:	eaffffdc 	b	95f0 <__fpcmp_parts_d+0x7c>
    967c:	e5952008 	ldr	r2, [r5, #8]
    9680:	e5943008 	ldr	r3, [r4, #8]
    9684:	e1520003 	cmp	r2, r3
    9688:	cafffff9 	bgt	9674 <__fpcmp_parts_d+0x100>
    968c:	aa000001 	bge	9698 <__fpcmp_parts_d+0x124>
    9690:	e3510000 	cmp	r1, #0	; 0x0
    9694:	eaffffdf 	b	9618 <__fpcmp_parts_d+0xa4>
    9698:	e285c00c 	add	ip, r5, #12	; 0xc
    969c:	e284000c 	add	r0, r4, #12	; 0xc
    96a0:	e59c2004 	ldr	r2, [ip, #4]
    96a4:	e5903004 	ldr	r3, [r0, #4]
    96a8:	e1520003 	cmp	r2, r3
    96ac:	8afffff0 	bhi	9674 <__fpcmp_parts_d+0x100>
    96b0:	1a000003 	bne	96c4 <__fpcmp_parts_d+0x150>
    96b4:	e595200c 	ldr	r2, [r5, #12]
    96b8:	e594300c 	ldr	r3, [r4, #12]
    96bc:	e1520003 	cmp	r2, r3
    96c0:	8affffeb 	bhi	9674 <__fpcmp_parts_d+0x100>
    96c4:	e5902004 	ldr	r2, [r0, #4]
    96c8:	e59c3004 	ldr	r3, [ip, #4]
    96cc:	e1520003 	cmp	r2, r3
    96d0:	8affffee 	bhi	9690 <__fpcmp_parts_d+0x11c>
    96d4:	1a000003 	bne	96e8 <__fpcmp_parts_d+0x174>
    96d8:	e594200c 	ldr	r2, [r4, #12]
    96dc:	e595300c 	ldr	r3, [r5, #12]
    96e0:	e1520003 	cmp	r2, r3
    96e4:	8affffe9 	bhi	9690 <__fpcmp_parts_d+0x11c>
    96e8:	e3a00000 	mov	r0, #0	; 0x0
    96ec:	e91ba870 	ldmdb	fp, {r4, r5, r6, fp, sp, pc}

000096f0 <isnan>:
    96f0:	e5900000 	ldr	r0, [r0]
    96f4:	e3500001 	cmp	r0, #1	; 0x1
    96f8:	83a00000 	movhi	r0, #0	; 0x0
    96fc:	93a00001 	movls	r0, #1	; 0x1
    9700:	e1a0f00e 	mov	pc, lr

00009704 <isinf>:
    9704:	e5900000 	ldr	r0, [r0]
    9708:	e3500004 	cmp	r0, #4	; 0x4
    970c:	13a00000 	movne	r0, #0	; 0x0
    9710:	03a00001 	moveq	r0, #1	; 0x1
    9714:	e1a0f00e 	mov	pc, lr

00009718 <iszero>:
    9718:	e5900000 	ldr	r0, [r0]
    971c:	e3500002 	cmp	r0, #2	; 0x2
    9720:	13a00000 	movne	r0, #0	; 0x0
    9724:	03a00001 	moveq	r0, #1	; 0x1
    9728:	e1a0f00e 	mov	pc, lr

0000972c <__ashldi3>:
    972c:	e3520000 	cmp	r2, #0	; 0x0
    9730:	e92d4070 	stmdb	sp!, {r4, r5, r6, lr}
    9734:	e262c020 	rsb	ip, r2, #32	; 0x20
    9738:	e1a04001 	mov	r4, r1
    973c:	e1a03000 	mov	r3, r0
    9740:	e3a06000 	mov	r6, #0	; 0x0
    9744:	e3a05000 	mov	r5, #0	; 0x0
    9748:	0a000008 	beq	9770 <__ashldi3+0x44>
    974c:	e35c0000 	cmp	ip, #0	; 0x0
    9750:	e1a03211 	mov	r3, r1, lsl r2
    9754:	e26ce000 	rsb	lr, ip, #0	; 0x0
    9758:	d3a05000 	movle	r5, #0	; 0x0
    975c:	d1a06e10 	movle	r6, r0, lsl lr
    9760:	c1a05210 	movgt	r5, r0, lsl r2
    9764:	c1836c30 	orrgt	r6, r3, r0, lsr ip
    9768:	e1a04006 	mov	r4, r6
    976c:	e1a03005 	mov	r3, r5
    9770:	e1a01004 	mov	r1, r4
    9774:	e1a00003 	mov	r0, r3
    9778:	e8bd8070 	ldmia	sp!, {r4, r5, r6, pc}

0000977c <blanks.0>:
    977c:	20202020 20202020 20202020 20202020                     

0000978c <zeroes.1>:
    978c:	30303030 30303030 30303030 30303030     0000000000000000

0000979c <lconv>:
    979c:	00009a70 00009ac0 00009ac0 00009ac0     p...............
    97ac:	00009ac0 00009ac0 00009ac0 00009ac0     ................
    97bc:	00009ac0 00009ac0 ffffffff ffffffff     ................

000097cc <p05.0>:
    97cc:	00000005 00000019 0000007d              ........}...

000097d8 <__mprec_tens>:
    97d8:	3ff00000 00000000 40240000 00000000     ...?......$@....
    97e8:	40590000 00000000 408f4000 00000000     ..Y@.....@.@....
    97f8:	40c38800 00000000 40f86a00 00000000     ...@.....j.@....
    9808:	412e8480 00000000 416312d0 00000000     ...A......cA....
    9818:	4197d784 00000000 41cdcd65 00000000     ...A....e..A....
    9828:	4202a05f 20000000 42374876 e8000000     _..B... vH7B....
    9838:	426d1a94 a2000000 42a2309c e5400000     ..mB.....0.B..@.
    9848:	42d6bcc4 1e900000 430c6bf5 26340000     ...B.....k.C..4&
    9858:	4341c379 37e08000 43763457 85d8a000     y.AC...7W4vC....
    9868:	43abc16d 674ec800 43e158e4 60913d00     m..C..Ng.X.C.=.`
    9878:	4415af1d 78b58c40 444b1ae4 d6e2ef50     ...D@..x..KDP...
    9888:	4480f0cf 064dd592 44b52d02 c7e14af6     ...D..M..-.D.J..
    9898:	44ea7843 79d99db4                       Cx.D...y

000098a0 <__mprec_bigtens>:
    98a0:	4341c379 37e08000 4693b8b5 b5056e17     y.AC...7...F.n..
    98b0:	4d384f03 e93ff9f5 5a827748 f9301d32     .O8M..?.Hw.Z2.0.
    98c0:	75154fdd 7f73bf3c                       .O.u<.s.

000098c8 <__mprec_tinytens>:
    98c8:	3c9cd2b2 97d889bc 3949f623 d5a8a733     ...<....#.I93...
    98d8:	32a50ffd 44f4a73d 255bba08 cf8c979d     ...2=..D..[%....
    98e8:	0ac80628 64ac6f43                       (...Co.d

000098f0 <__thenan_df>:
	...

00009904 <__clz_tab>:
    9904:	02020100 03030303 04040404 04040404     ................
    9914:	05050505 05050505 05050505 05050505     ................
    9924:	06060606 06060606 06060606 06060606     ................
    9934:	06060606 06060606 06060606 06060606     ................
    9944:	07070707 07070707 07070707 07070707     ................
    9954:	07070707 07070707 07070707 07070707     ................
    9964:	07070707 07070707 07070707 07070707     ................
    9974:	07070707 07070707 07070707 07070707     ................
    9984:	08080808 08080808 08080808 08080808     ................
    9994:	08080808 08080808 08080808 08080808     ................
    99a4:	08080808 08080808 08080808 08080808     ................
    99b4:	08080808 08080808 08080808 08080808     ................
    99c4:	08080808 08080808 08080808 08080808     ................
    99d4:	08080808 08080808 08080808 08080808     ................
    99e4:	08080808 08080808 08080808 08080808     ................
    99f4:	08080808 08080808 08080808 08080808     ................
    9a04:	5f435452 454d4954 3230253a 30253a64     RTC_TIME:%02d:%0
    9a14:	253a6432 0a643230 45544144 3230253a     2d:%02d.DATE:%02
    9a24:	30253a64 253a6432 0a643430 20796144     d:%02d:%04d.Day 
    9a34:	7720666f 3a6b6565 64323025 7961440a     of week:%02d.Day
    9a44:	20666f20 72616579 3330253a 000a0a64      of year:%03d...
    9a54:	20677562 76206e69 69727066 3a66746e     bug in vfprintf:
    9a64:	64616220 73616220 00000065 0000002e      bad base.......
    9a74:	00000030 33323130 37363534 42413938     0...0123456789AB
    9a84:	46454443 00000000 00666e49 004e614e     CDEF....Inf.NaN.
    9a94:	33323130 37363534 62613938 66656463     0123456789abcdef
    9aa4:	00000000 6c756e28 0000296c 69666e49     ....(null)..Infi
    9ab4:	7974696e 00000000 00000043 00000000     nity....C.......
    9ac4:	2d4f5349 39353838 0000312d 0074743a     ISO-8859-1..:tt.
